	.syntax unified
	.cpu arm9e
	.fpu softvfp
	.eabi_attribute 20, 1
	.eabi_attribute 21, 1
	.eabi_attribute 23, 3
	.eabi_attribute 24, 1
	.eabi_attribute 25, 1
	.eabi_attribute 26, 1
	.eabi_attribute 30, 4
	.eabi_attribute 34, 0
	.eabi_attribute 18, 4
	.thumb
	.syntax unified
	.file	"DZ09_boot.c"
	.text
.Ltext0:
	.cfi_sections	.debug_frame
	.section	.text.BL_CheckFileByDescriptor,"ax",%progbits
	.align	1
	.global	BL_CheckFileByDescriptor
	.code	16
	.thumb_func
	.type	BL_CheckFileByDescriptor, %function
BL_CheckFileByDescriptor:
.LFB1:
	.file 1 "Source\\Bootloader\\DZ09_boot.c"
	.loc 1 30 0
	.cfi_startproc
	@ args = 20, pretend = 16, frame = 8
	@ frame_needed = 0, uses_anonymous_args = 0
	sub	sp, sp, #16
	.cfi_def_cfa_offset 16
	push	{r0, r1, r2, r4, r5, r6, r7, lr}
	.cfi_def_cfa_offset 48
	.cfi_offset 0, -48
	.cfi_offset 1, -44
	.cfi_offset 2, -40
	.cfi_offset 4, -36
	.cfi_offset 5, -32
	.cfi_offset 6, -28
	.cfi_offset 7, -24
	.cfi_offset 14, -20
.LVL0:
	.loc 1 30 0
	movs	r4, r2
	str	r2, [sp, #40]
.LVL1:
	.loc 1 33 0
	ldr	r2, .L11
	.loc 1 30 0
	str	r1, [sp, #36]
	.loc 1 33 0
	adds	r4, r2, r4
.LVL2:
	.loc 1 30 0
	str	r0, [sp, #32]
	str	r3, [sp, #44]
.LVL3:
	.loc 1 34 0
	adds	r1, r2, r3
.LVL4:
	.loc 1 36 0
	cmp	r2, r4
	bcc	.L2
.LVL5:
.L4:
	.loc 1 31 0
	movs	r0, #0
	b	.L3
.LVL6:
.L2:
	.loc 1 37 0 discriminator 1
	ldr	r6, .L11+4
	.loc 1 36 0 discriminator 1
	cmp	r1, r6
	bcs	.L4
.LVL7:
.LBB2:
	.loc 1 42 0
	ldr	r3, [r4]
	ldr	r1, .L11+8
.LVL8:
	lsls	r3, r3, #8
	lsrs	r3, r3, #8
	cmp	r3, r1
	bne	.L4
	.loc 1 43 0
	ldr	r3, [r4, #4]
	cmp	r3, #56
	bne	.L4
	.loc 1 45 0
	ldr	r3, [r4, #24]
	ldr	r1, .L11+12
	lsls	r3, r3, #8
	lsrs	r3, r3, #8
	cmp	r3, r1
	bne	.L4
	.loc 1 47 0
	ldr	r0, [r4, #28]
	.loc 1 46 0
	cmp	r2, r0
	bhi	.L4
	.loc 1 48 0
	ldr	r1, [r4, #32]
	.loc 1 47 0
	adds	r3, r0, r1
	cmp	r6, r3
	bls	.L4
.LVL9:
.LBB3:
	.loc 1 53 0
	ldrb	r3, [r4, #27]
	cmp	r3, #0
	bne	.L5
	.loc 1 54 0
	ldr	r3, [r4, #48]
	b	.L9
.L5:
	.loc 1 55 0
	cmp	r3, #1
	bne	.L4
	.loc 1 55 0 is_stmt 0 discriminator 1
	ldr	r3, [r4, #44]
	cmp	r3, #32
	bne	.L4
	.loc 1 50 0 is_stmt 1
	subs	r1, r1, #32
.LVL10:
	.loc 1 57 0
	adds	r3, r0, r1
	subs	r3, r3, #4
	.loc 1 56 0
	ldr	r2, .L11+16
.LVL11:
	ldr	r3, [r3]
	.loc 1 50 0
	movs	r5, r1
	.loc 1 56 0
	cmp	r3, r2
	bne	.L4
	.loc 1 59 0
	bl	SHA1_ProcessData
.LVL12:
	.loc 1 60 0
	cmp	r0, #0
	beq	.L4
.LBB4:
	.loc 1 62 0
	ldr	r3, [r4, #28]
	adds	r1, r5, r3
.LVL13:
	.loc 1 64 0
	movs	r5, #255
	.loc 1 62 0
	str	r3, [sp, #4]
	.loc 1 64 0
	ldr	r3, [r0]
	lsls	r5, r5, #16
	lsrs	r2, r3, #24
	lsls	r7, r3, #24
	orrs	r7, r2
	lsls	r2, r3, #8
	ands	r2, r5
	orrs	r7, r2
	movs	r2, #255
	lsrs	r3, r3, #8
	lsls	r2, r2, #8
	ldr	r6, [r1]
	ands	r3, r2
	orrs	r3, r7
	cmp	r3, r6
	bne	.L4
	.loc 1 65 0 discriminator 1
	ldr	r3, [r0, #4]
	.loc 1 64 0 discriminator 1
	lsrs	r7, r3, #24
	lsls	r6, r3, #24
	orrs	r6, r7
	lsls	r7, r3, #8
	ands	r7, r5
	orrs	r7, r6
	lsrs	r3, r3, #8
	ldr	r6, [r1, #4]
	ands	r3, r2
	orrs	r3, r7
	cmp	r3, r6
	bne	.L4
	.loc 1 66 0
	ldr	r3, [r0, #8]
	.loc 1 65 0
	lsrs	r7, r3, #24
	lsls	r6, r3, #24
	orrs	r6, r7
	lsls	r7, r3, #8
	ands	r7, r5
	orrs	r7, r6
	lsrs	r3, r3, #8
	ldr	r6, [r1, #8]
	ands	r3, r2
	orrs	r3, r7
	cmp	r3, r6
	bne	.L4
	.loc 1 67 0
	ldr	r3, [r0, #12]
	.loc 1 66 0
	lsrs	r7, r3, #24
	lsls	r6, r3, #24
	orrs	r6, r7
	lsls	r7, r3, #8
	ands	r7, r5
	orrs	r7, r6
	lsrs	r3, r3, #8
	ldr	r6, [r1, #12]
	ands	r3, r2
	orrs	r3, r7
	cmp	r3, r6
	bne	.L4
	.loc 1 68 0
	ldr	r3, [r0, #16]
	.loc 1 67 0
	lsls	r7, r3, #24
	lsrs	r0, r3, #24
.LVL14:
	orrs	r0, r7
	lsls	r7, r3, #8
	lsrs	r3, r3, #8
	ands	r2, r3
	ands	r5, r7
	ldr	r3, [r1, #16]
	orrs	r5, r0
	orrs	r2, r5
	cmp	r2, r3
	bne	.L4
	.loc 1 70 0
	ldr	r0, [r4, #48]
	ldr	r3, [sp, #4]
.LVL15:
.L9:
	adds	r0, r3, r0
.LVL16:
.L3:
.LBE4:
.LBE3:
.LBE2:
	.loc 1 77 0
	@ sp needed
.LVL17:
	pop	{r1, r2, r3, r4, r5, r6, r7}
	pop	{r3}
	add	sp, sp, #16
	bx	r3
.L12:
	.align	2
.L11:
	.word	__ROMImageBase
	.word	__ROMImageLimit
	.word	5066061
	.word	458754
	.word	1162757120
	.cfi_endproc
.LFE1:
	.size	BL_CheckFileByDescriptor, .-BL_CheckFileByDescriptor
	.section	.text.startup.main,"ax",%progbits
	.align	1
	.global	main
	.code	16
	.thumb_func
	.type	main, %function
main:
.LFB2:
	.loc 1 80 0
	.cfi_startproc
	@ args = 0, pretend = 0, frame = 0
	@ frame_needed = 0, uses_anonymous_args = 0
.LVL18:
	push	{r0, r1, r2, r4, r5, r6, r7, lr}
	.cfi_def_cfa_offset 32
	.cfi_offset 0, -32
	.cfi_offset 1, -28
	.cfi_offset 2, -24
	.cfi_offset 4, -20
	.cfi_offset 5, -16
	.cfi_offset 6, -12
	.cfi_offset 7, -8
	.cfi_offset 14, -4
	.loc 1 84 0
	movs	r1, #1
	movs	r0, #2
	bl	RGU_SetWDTInterval
.LVL19:
	.loc 1 86 0
	bl	DBG_Initialize
.LVL20:
	.loc 1 87 0
	bl	USC_StartCounter
.LVL21:
	.loc 1 88 0
	bl	PLL_Initialize
.LVL22:
	.loc 1 90 0
	movs	r0, #3
	bl	EMI_MemoryRemap
.LVL23:
	.loc 1 94 0
	ldr	r4, .L25
	ldr	r1, .L25+4
	movs	r0, r4
	bl	strcmp
.LVL24:
	cmp	r0, #0
	bne	.L22
	.loc 1 94 0 is_stmt 0 discriminator 1
	ldr	r3, [r4, #12]
	cmp	r3, #1
	bne	.L22
.LBB5:
	.loc 1 100 0 is_stmt 1
	ldr	r3, [r4, #16]
	.loc 1 101 0
	ldr	r1, .L25+8
	.loc 1 100 0
	adds	r4, r3, r4
.LVL25:
	.loc 1 101 0
	movs	r0, r4
	bl	strcmp
.LVL26:
	cmp	r0, #0
	bne	.L22
	.loc 1 101 0 is_stmt 0 discriminator 1
	ldr	r3, [r4, #8]
	cmp	r3, #1
	bne	.L22
	movs	r6, r4
	.loc 1 101 0
	movs	r5, r0
.LBB6:
	.loc 1 117 0 is_stmt 1
	movs	r7, #20
	adds	r6, r6, #20
.L19:
.LVL27:
	.loc 1 112 0
	bl	RGU_RestartWDT
.LVL28:
	.loc 1 114 0
	ldr	r3, .L25+12
	ldr	r2, [r6]
	cmp	r2, r3
	bne	.L17
	.loc 1 114 0 is_stmt 0 discriminator 1
	ldrb	r3, [r6, #4]
	cmp	r3, #7
	bne	.L17
	.loc 1 115 0 is_stmt 1
	ldrh	r3, [r6, #6]
	cmp	r3, #2
	bne	.L17
	.loc 1 117 0
	movs	r3, r7
	muls	r3, r5
	adds	r3, r4, r3
	ldr	r2, [r3, #36]
	adds	r3, r3, #16
	str	r2, [sp]
	ldr	r0, [r3, #4]
	ldr	r1, [r3, #8]
	ldr	r2, [r3, #12]
	ldr	r3, [r3, #16]
	bl	BL_CheckFileByDescriptor
.LVL29:
	.loc 1 116 0
	cmp	r0, #0
	beq	.L17
	.loc 1 119 0
	blx	r0
.LVL30:
.L17:
	.loc 1 109 0 discriminator 2
	adds	r5, r5, #1
.LVL31:
	adds	r6, r6, #20
	cmp	r5, #8
	bne	.L19
.LVL32:
.L22:
.LBE6:
.LBE5:
	.loc 1 125 0
	movs	r0, #0
	@ sp needed
	pop	{r1, r2, r3, r4, r5, r6, r7, pc}
.L26:
	.align	2
.L25:
	.word	__ROMImageLimit
	.word	.LC6
	.word	.LC9
	.word	1111638594
	.cfi_endproc
.LFE2:
	.size	main, .-main
	.section	.rodata.str1.1,"aMS",%progbits,1
.LC6:
	.ascii	"SF_BOOT\000"
.LC9:
	.ascii	"BRLYT\000"
	.text
.Letext0:
	.file 2 "d:\\1.11\\share\\em_armgcc\\arm-none-eabi\\include\\machine\\_default_types.h"
	.file 3 "d:\\1.11\\share\\em_armgcc\\arm-none-eabi\\include\\sys\\_stdint.h"
	.file 4 ".\\Source/systypes.h"
	.file 5 ".\\Source\\Lib\\MT6261/drivers\\emi.h"
	.file 6 ".\\Source\\Lib/mtktypes.h"
	.file 7 "Source\\Bootloader\\sha-1.h"
	.file 8 ".\\Source\\Lib\\MT6261/drivers\\rgu.h"
	.file 9 "d:\\1.11\\share\\em_armgcc\\arm-none-eabi\\include\\string.h"
	.file 10 ".\\Source\\System/debug.h"
	.file 11 ".\\Source\\Lib\\MT6261/drivers\\ustimer.h"
	.file 12 ".\\Source\\Lib\\MT6261/drivers\\pll.h"