	.syntax unified
	.cpu arm9e
	.fpu softvfp
	.eabi_attribute 20, 1
	.eabi_attribute 21, 1
	.eabi_attribute 23, 3
	.eabi_attribute 24, 1
	.eabi_attribute 25, 1
	.eabi_attribute 26, 1
	.eabi_attribute 30, 6
	.eabi_attribute 34, 0
	.eabi_attribute 18, 4
	.thumb
	.syntax unified
	.file	"gdiutils.c"
	.text
.Ltext0:
	.cfi_sections	.debug_frame
	.section	.text.GDI_MergeRectsInRegion,"ax",%progbits
	.align	2
	.code	16
	.thumb_func
	.type	GDI_MergeRectsInRegion, %function
GDI_MergeRectsInRegion:
.LFB1:
	.file 1 "Source\\GUI\\gdiutils.c"
	.loc 1 25 0
	.cfi_startproc
	@ args = 0, pretend = 0, frame = 40
	@ frame_needed = 1, uses_anonymous_args = 0
	push	{r7, lr}
	.cfi_def_cfa_offset 8
	.cfi_offset 7, -8
	.cfi_offset 14, -4
	sub	sp, sp, #40
	.cfi_def_cfa_offset 48
	add	r7, sp, #0
	.cfi_def_cfa_register 7
	str	r0, [r7, #4]
	.loc 1 29 0
	ldr	r3, [r7, #4]
	cmp	r3, #0
	bne	.LCB15
	b	.L13	@long jump
.LCB15:
	.loc 1 29 0 discriminator 1
	ldr	r3, [r7, #4]
	movs	r0, r3
	bl	DL_GetItemsCount
	movs	r3, r0
	cmp	r3, #1
	bhi	.LCB21
	b	.L13	@long jump
.LCB21:
	.loc 1 31 0
	ldr	r3, [r7, #4]
	movs	r0, r3
	bl	DL_GetFirstItem
	movs	r3, r0
	str	r3, [r7, #36]
	.loc 1 32 0
	ldr	r3, [r7, #36]
	movs	r0, r3
	bl	DL_GetNextItem
	movs	r3, r0
	str	r3, [r7, #32]
	.loc 1 34 0
	b	.L5
.L12:
	.loc 1 36 0
	ldr	r3, [r7, #36]
	ldr	r3, [r3, #8]
	adds	r3, r3, #12
	str	r3, [r7, #28]
	.loc 1 37 0
	b	.L6
.L11:
	.loc 1 39 0
	ldr	r3, [r7, #32]
	ldr	r3, [r3, #8]
	adds	r3, r3, #12
	str	r3, [r7, #24]
	.loc 1 41 0
	ldr	r3, [r7, #28]
	movs	r2, #2
	ldrsh	r2, [r3, r2]
	ldr	r3, [r7, #24]
	movs	r1, #2
	ldrsh	r3, [r3, r1]
	cmp	r2, r3
	bne	.L7
	.loc 1 41 0 is_stmt 0 discriminator 1
	ldr	r3, [r7, #28]
	movs	r2, #6
	ldrsh	r2, [r3, r2]
	ldr	r3, [r7, #24]
	movs	r1, #6
	ldrsh	r3, [r3, r1]
	cmp	r2, r3
	bne	.L7
	.loc 1 42 0 is_stmt 1 discriminator 2
	ldr	r3, [r7, #28]
	movs	r2, #0
	ldrsh	r3, [r3, r2]
	movs	r2, r3
	ldr	r3, [r7, #24]
	movs	r1, #4
	ldrsh	r3, [r3, r1]
	subs	r3, r2, r3
	.loc 1 41 0 discriminator 2
	cmp	r3, #1
	beq	.L8
	.loc 1 42 0
	ldr	r3, [r7, #24]
	movs	r2, #0
	ldrsh	r3, [r3, r2]
	movs	r2, r3
	ldr	r3, [r7, #28]
	movs	r1, #4
	ldrsh	r3, [r3, r1]
	subs	r3, r2, r3
	cmp	r3, #1
	bne	.L7
.L8:
.LBB2:
	.loc 1 44 0
	ldr	r3, [r7, #32]
	movs	r0, r3
	bl	DL_GetNextItem
	movs	r3, r0
	str	r3, [r7, #20]
.LBB3:
	.loc 1 46 0
	movs	r3, #18
	adds	r3, r7, r3
	ldr	r2, [r7, #28]
	ldrh	r2, [r2]
	strh	r2, [r3]
	movs	r3, #16
	adds	r3, r7, r3
	ldr	r2, [r7, #24]
	ldrh	r2, [r2]
	strh	r2, [r3]
	movs	r3, #16
	adds	r3, r7, r3
	movs	r2, #18
	adds	r2, r7, r2
	ldrh	r0, [r2]
	ldrh	r1, [r3]
	lsls	r2, r1, #16
	asrs	r2, r2, #16
	lsls	r3, r0, #16
	asrs	r3, r3, #16
	cmp	r2, r3
	ble	.L9
	adds	r1, r0, #0
.L9:
	lsls	r3, r1, #16
	asrs	r3, r3, #16
.LBE3:
	lsls	r3, r3, #16
	asrs	r3, r3, #16
	ldr	r2, [r7, #28]
	strh	r3, [r2]
.LBB4:
	.loc 1 47 0
	movs	r3, #14
	adds	r3, r7, r3
	ldr	r2, [r7, #28]
	ldrh	r2, [r2, #4]
	strh	r2, [r3]
	movs	r3, #12
	adds	r3, r7, r3
	ldr	r2, [r7, #24]
	ldrh	r2, [r2, #4]
	strh	r2, [r3]
	movs	r3, #12
	adds	r3, r7, r3
	movs	r2, #14
	adds	r2, r7, r2
	ldrh	r0, [r2]
	ldrh	r1, [r3]
	lsls	r2, r1, #16
	asrs	r2, r2, #16
	lsls	r3, r0, #16
	asrs	r3, r3, #16
	cmp	r2, r3
	bge	.L10
	adds	r1, r0, #0
.L10:
	lsls	r3, r1, #16
	asrs	r3, r3, #16
.LBE4:
	lsls	r3, r3, #16
	asrs	r3, r3, #16
	ldr	r2, [r7, #28]
	strh	r3, [r2, #4]
	.loc 1 49 0
	ldr	r2, [r7, #32]
	ldr	r3, [r7, #4]
	movs	r1, r2
	movs	r0, r3
	bl	DL_DeleteItem
	.loc 1 50 0
	ldr	r3, [r7, #20]
	str	r3, [r7, #32]
	.loc 1 51 0
	b	.L6
.L7:
.LBE2:
	.loc 1 53 0
	ldr	r3, [r7, #32]
	movs	r0, r3
	bl	DL_GetNextItem
	movs	r3, r0
	str	r3, [r7, #32]
.L6:
	.loc 1 37 0
	ldr	r3, [r7, #32]
	cmp	r3, #0
	beq	.LCB170
	b	.L11	@long jump
.LCB170:
	.loc 1 55 0
	ldr	r3, [r7, #36]
	movs	r0, r3
	bl	DL_GetNextItem
	movs	r3, r0
	str	r3, [r7, #36]
	.loc 1 56 0
	ldr	r3, [r7, #36]
	movs	r0, r3
	bl	DL_GetNextItem
	movs	r3, r0
	str	r3, [r7, #32]
.L5:
	.loc 1 34 0
	ldr	r3, [r7, #36]
	cmp	r3, #0
	beq	.L1
	.loc 1 34 0 discriminator 1
	ldr	r3, [r7, #32]
	cmp	r3, #0
	beq	.LCB188
	b	.L12	@long jump
.LCB188:
	b	.L1
.L13:
	.loc 1 29 0
	nop
.L1:
	.loc 1 58 0
	mov	sp, r7
	add	sp, sp, #40
	@ sp needed
	pop	{r7, pc}
	.cfi_endproc
.LFE1:
	.size	GDI_MergeRectsInRegion, .-GDI_MergeRectsInRegion
	.section	.text.Point,"ax",%progbits
	.align	2
	.global	Point
	.code	16
	.thumb_func
	.type	Point, %function
Point:
.LFB2:
	.loc 1 61 0
	.cfi_startproc
	@ args = 0, pretend = 0, frame = 16
	@ frame_needed = 1, uses_anonymous_args = 0
	push	{r7, lr}
	.cfi_def_cfa_offset 8
	.cfi_offset 7, -8
	.cfi_offset 14, -4
	sub	sp, sp, #16
	.cfi_def_cfa_offset 24
	add	r7, sp, #0
	.cfi_def_cfa_register 7
	movs	r2, r0
	adds	r3, r7, #6
	strh	r2, [r3]
	adds	r3, r7, #4
	adds	r2, r1, #0
	strh	r2, [r3]
	.loc 1 62 0
	movs	r3, #8
	adds	r3, r7, r3
	adds	r2, r7, #6
	ldrh	r2, [r2]
	strh	r2, [r3]
	movs	r3, #8
	adds	r3, r7, r3
	adds	r2, r7, #4
	ldrh	r2, [r2]
	strh	r2, [r3, #2]
	.loc 1 64 0
	movs	r3, #12
	adds	r3, r7, r3
	movs	r2, #8
	adds	r2, r7, r2
	ldr	r2, [r2]
	str	r2, [r3]
	movs	r3, #12
	adds	r2, r7, r3
	movs	r3, #0
	ldrh	r1, [r2]
	lsls	r1, r1, #16
	lsrs	r1, r1, #16
	lsrs	r3, r3, #16
	lsls	r3, r3, #16
	orrs	r3, r1
	ldrh	r2, [r2, #2]
	lsls	r2, r2, #16
	lsls	r3, r3, #16
	lsrs	r3, r3, #16
	orrs	r3, r2
	.loc 1 65 0
	movs	r0, r3
	mov	sp, r7
	add	sp, sp, #16
	@ sp needed
	pop	{r7, pc}
	.cfi_endproc
.LFE2:
	.size	Point, .-Point
	.section	.text.Rect,"ax",%progbits
	.align	2
	.global	Rect
	.code	16
	.thumb_func
	.type	Rect, %function
Rect:
.LFB3:
	.loc 1 68 0
	.cfi_startproc
	@ args = 4, pretend = 0, frame = 24
	@ frame_needed = 1, uses_anonymous_args = 0
	push	{r4, r7, lr}
	.cfi_def_cfa_offset 12
	.cfi_offset 4, -12
	.cfi_offset 7, -8
	.cfi_offset 14, -4
	sub	sp, sp, #28
	.cfi_def_cfa_offset 40
	add	r7, sp, #0
	.cfi_def_cfa_register 7
	str	r0, [r7, #12]
	movs	r4, r1
	movs	r0, r2
	movs	r1, r3
	movs	r3, #10
	adds	r3, r7, r3
	adds	r2, r4, #0
	strh	r2, [r3]
	movs	r3, #8
	adds	r3, r7, r3
	adds	r2, r0, #0
	strh	r2, [r3]
	adds	r3, r7, #6
	adds	r2, r1, #0
	strh	r2, [r3]
	.loc 1 69 0
	movs	r3, #16
	adds	r3, r7, r3
	movs	r2, #10
	adds	r2, r7, r2
	ldrh	r2, [r2]
	strh	r2, [r3]
	movs	r3, #16
	adds	r3, r7, r3
	movs	r2, #8
	adds	r2, r7, r2
	ldrh	r2, [r2]
	strh	r2, [r3, #2]
	movs	r3, #16
	adds	r3, r7, r3
	adds	r2, r7, #6
	ldrh	r2, [r2]
	strh	r2, [r3, #4]
	movs	r3, #16
	adds	r3, r7, r3
	movs	r2, #40
	adds	r2, r7, r2
	ldrh	r2, [r2]
	strh	r2, [r3, #6]
	.loc 1 71 0
	ldr	r2, [r7, #12]
	movs	r3, #16
	adds	r3, r7, r3
	movs	r0, r2
	movs	r1, r3
	movs	r3, #8
	movs	r2, r3
	bl	memcpy
	.loc 1 72 0
	ldr	r0, [r7, #12]
	mov	sp, r7
	add	sp, sp, #28
	@ sp needed
	pop	{r4, r7, pc}
	.cfi_endproc
.LFE3:
	.size	Rect, .-Rect
	.section	.text.SizeXY,"ax",%progbits
	.align	2
	.global	SizeXY
	.code	16
	.thumb_func
	.type	SizeXY, %function
SizeXY:
.LFB4:
	.loc 1 75 0
	.cfi_startproc
	@ args = 0, pretend = 0, frame = 16
	@ frame_needed = 1, uses_anonymous_args = 0
	push	{r7, lr}
	.cfi_def_cfa_offset 8
	.cfi_offset 7, -8
	.cfi_offset 14, -4
	sub	sp, sp, #16
	.cfi_def_cfa_offset 24
	add	r7, sp, #0
	.cfi_def_cfa_register 7
	movs	r2, r0
	adds	r3, r7, #6
	strh	r2, [r3]
	adds	r3, r7, #4
	adds	r2, r1, #0
	strh	r2, [r3]
	.loc 1 78 0
	movs	r3, #8
	adds	r3, r7, r3
	adds	r2, r7, #6
	ldrh	r2, [r2]
	strh	r2, [r3]
	.loc 1 79 0
	movs	r3, #8
	adds	r3, r7, r3
	adds	r2, r7, #4
	ldrh	r2, [r2]
	strh	r2, [r3, #2]
	.loc 1 81 0
	movs	r3, #12
	adds	r3, r7, r3
	movs	r2, #8
	adds	r2, r7, r2
	ldr	r2, [r2]
	str	r2, [r3]
	movs	r3, #12
	adds	r2, r7, r3
	movs	r3, #0
	ldrh	r1, [r2]
	lsls	r1, r1, #16
	lsrs	r1, r1, #16
	lsrs	r3, r3, #16
	lsls	r3, r3, #16
	orrs	r3, r1
	ldrh	r2, [r2, #2]
	lsls	r2, r2, #16
	lsls	r3, r3, #16
	lsrs	r3, r3, #16
	orrs	r3, r2
	.loc 1 82 0
	movs	r0, r3
	mov	sp, r7
	add	sp, sp, #16
	@ sp needed
	pop	{r7, pc}
	.cfi_endproc
.LFE4:
	.size	SizeXY, .-SizeXY
	.section	.text.IsRectsOverlaps,"ax",%progbits
	.align	2
	.global	IsRectsOverlaps
	.code	16
	.thumb_func
	.type	IsRectsOverlaps, %function
IsRectsOverlaps:
.LFB5:
	.loc 1 85 0
	.cfi_startproc
	@ args = 0, pretend = 0, frame = 8
	@ frame_needed = 1, uses_anonymous_args = 0
	push	{r7, lr}
	.cfi_def_cfa_offset 8
	.cfi_offset 7, -8
	.cfi_offset 14, -4
	sub	sp, sp, #8
	.cfi_def_cfa_offset 16
	add	r7, sp, #0
	.cfi_def_cfa_register 7
	str	r0, [r7, #4]
	str	r1, [r7]
	.loc 1 86 0
	ldr	r3, [r7, #4]
	cmp	r3, #0
	beq	.L21
	.loc 1 86 0 discriminator 1
	ldr	r3, [r7]
	cmp	r3, #0
	beq	.L21
	.loc 1 88 0
	ldr	r3, [r7, #4]
	movs	r2, #0
	ldrsh	r2, [r3, r2]
	ldr	r3, [r7, #4]
	movs	r1, #4
	ldrsh	r3, [r3, r1]
	cmp	r2, r3
	bgt	.L22
	.loc 1 88 0 is_stmt 0 discriminator 2
	ldr	r3, [r7, #4]
	movs	r2, #2
	ldrsh	r2, [r3, r2]
	ldr	r3, [r7, #4]
	movs	r1, #6
	ldrsh	r3, [r3, r1]
	cmp	r2, r3
	ble	.L23
.L22:
	.loc 1 88 0 discriminator 3
	movs	r3, #0
	b	.L24
.L23:
	.loc 1 89 0 is_stmt 1
	ldr	r3, [r7]
	movs	r2, #0
	ldrsh	r2, [r3, r2]
	ldr	r3, [r7]
	movs	r1, #4
	ldrsh	r3, [r3, r1]
	cmp	r2, r3
	bgt	.L25
	.loc 1 89 0 is_stmt 0 discriminator 2
	ldr	r3, [r7]
	movs	r2, #2
	ldrsh	r2, [r3, r2]
	ldr	r3, [r7]
	movs	r1, #6
	ldrsh	r3, [r3, r1]
	cmp	r2, r3
	ble	.L26
.L25:
	.loc 1 89 0 discriminator 3
	movs	r3, #0
	b	.L24
.L26:
	.loc 1 90 0 is_stmt 1
	ldr	r3, [r7, #4]
	movs	r2, #0
	ldrsh	r2, [r3, r2]
	ldr	r3, [r7]
	movs	r1, #4
	ldrsh	r3, [r3, r1]
	cmp	r2, r3
	bgt	.L27
	.loc 1 90 0 is_stmt 0 discriminator 2
	ldr	r3, [r7, #4]
	movs	r2, #4
	ldrsh	r2, [r3, r2]
	ldr	r3, [r7]
	movs	r1, #0
	ldrsh	r3, [r3, r1]
	cmp	r2, r3
	bge	.L28
.L27:
	.loc 1 90 0 discriminator 3
	movs	r3, #0
	b	.L24
.L28:
	.loc 1 91 0 is_stmt 1
	ldr	r3, [r7, #4]
	movs	r2, #2
	ldrsh	r2, [r3, r2]
	ldr	r3, [r7]
	movs	r1, #6
	ldrsh	r3, [r3, r1]
	cmp	r2, r3
	bgt	.L29
	.loc 1 91 0 is_stmt 0 discriminator 2
	ldr	r3, [r7, #4]
	movs	r2, #6
	ldrsh	r2, [r3, r2]
	ldr	r3, [r7]
	movs	r1, #2
	ldrsh	r3, [r3, r1]
	cmp	r2, r3
	bge	.L30
.L29:
	.loc 1 91 0 discriminator 3
	movs	r3, #0
	b	.L24
.L30:
	.loc 1 92 0 is_stmt 1
	movs	r3, #1
	b	.L24
.L21:
	.loc 1 94 0
	movs	r3, #0
.L24:
	.loc 1 95 0
	movs	r0, r3
	mov	sp, r7
	add	sp, sp, #8
	@ sp needed
	pop	{r7, pc}
	.cfi_endproc
.LFE5:
	.size	IsRectsOverlaps, .-IsRectsOverlaps
	.section	.text.IsPointInRect,"ax",%progbits
	.align	2
	.global	IsPointInRect
	.code	16
	.thumb_func
	.type	IsPointInRect, %function
IsPointInRect:
.LFB6:
	.loc 1 98 0
	.cfi_startproc
	@ args = 0, pretend = 0, frame = 8
	@ frame_needed = 1, uses_anonymous_args = 0
	push	{r7, lr}
	.cfi_def_cfa_offset 8
	.cfi_offset 7, -8
	.cfi_offset 14, -4
	sub	sp, sp, #8
	.cfi_def_cfa_offset 16
	add	r7, sp, #0
	.cfi_def_cfa_register 7
	str	r0, [r7, #4]
	str	r1, [r7]
	.loc 1 101 0
	ldr	r3, [r7]
	cmp	r3, #0
	beq	.L32
	.loc 1 99 0
	ldr	r3, [r7, #4]
	cmp	r3, #0
	beq	.L32
	.loc 1 100 0 discriminator 1
	ldr	r3, [r7, #4]
	movs	r2, #0
	ldrsh	r2, [r3, r2]
	ldr	r3, [r7]
	movs	r1, #0
	ldrsh	r3, [r3, r1]
	.loc 1 99 0 discriminator 1
	cmp	r2, r3
	blt	.L32
	.loc 1 100 0
	ldr	r3, [r7, #4]
	movs	r2, #0
	ldrsh	r2, [r3, r2]
	ldr	r3, [r7]
	movs	r1, #4
	ldrsh	r3, [r3, r1]
	cmp	r2, r3
	bgt	.L32
	.loc 1 101 0 discriminator 1
	ldr	r3, [r7, #4]
	movs	r2, #2
	ldrsh	r2, [r3, r2]
	ldr	r3, [r7]
	movs	r1, #2
	ldrsh	r3, [r3, r1]
	.loc 1 100 0 discriminator 1
	cmp	r2, r3
	blt	.L32
	.loc 1 101 0 discriminator 3
	ldr	r3, [r7, #4]
	movs	r2, #2
	ldrsh	r2, [r3, r2]
	ldr	r3, [r7]
	movs	r1, #6
	ldrsh	r3, [r3, r1]
	cmp	r2, r3
	bgt	.L32
	.loc 1 101 0 is_stmt 0 discriminator 2
	movs	r3, #1
	b	.L33
.L32:
	.loc 1 101 0 discriminator 1
	movs	r3, #0
.L33:
	.loc 1 99 0 is_stmt 1
	lsls	r3, r3, #24
	lsrs	r3, r3, #24
	.loc 1 102 0
	movs	r0, r3
	mov	sp, r7
	add	sp, sp, #8
	@ sp needed
	pop	{r7, pc}
	.cfi_endproc
.LFE6:
	.size	IsPointInRect, .-IsPointInRect
	.section	.text.IsRectInRect,"ax",%progbits
	.align	2
	.global	IsRectInRect
	.code	16
	.thumb_func
	.type	IsRectInRect, %function
IsRectInRect:
.LFB7:
	.loc 1 106 0
	.cfi_startproc
	@ args = 0, pretend = 0, frame = 8
	@ frame_needed = 1, uses_anonymous_args = 0
	push	{r7, lr}
	.cfi_def_cfa_offset 8
	.cfi_offset 7, -8
	.cfi_offset 14, -4
	sub	sp, sp, #8
	.cfi_def_cfa_offset 16
	add	r7, sp, #0
	.cfi_def_cfa_register 7
	str	r0, [r7, #4]
	str	r1, [r7]
	.loc 1 107 0
	ldr	r3, [r7, #4]
	cmp	r3, #0
	beq	.L36
	.loc 1 107 0 discriminator 2
	ldr	r3, [r7]
	cmp	r3, #0
	bne	.L37
.L36:
	.loc 1 107 0 discriminator 3
	movs	r3, #0
	b	.L38
.L37:
	.loc 1 108 0
	ldr	r2, [r7]
	ldr	r3, [r7, #4]
	movs	r1, r2
	movs	r0, r3
	bl	IsRectsOverlaps
	subs	r3, r0, #0
	bne	.L39
	.loc 1 108 0 is_stmt 0 discriminator 1
	movs	r3, #0
	b	.L38
.L39:
	.loc 1 110 0 is_stmt 1
	ldr	r3, [r7, #4]
	ldr	r2, [r7]
	movs	r1, r2
	movs	r0, r3
	bl	IsPointInRect
	subs	r3, r0, #0
	beq	.L40
	.loc 1 110 0 is_stmt 0 discriminator 1
	ldr	r3, [r7, #4]
	adds	r3, r3, #4
	ldr	r2, [r7]
	movs	r1, r2
	movs	r0, r3
	bl	IsPointInRect
	subs	r3, r0, #0
	beq	.L40
	.loc 1 112 0 is_stmt 1
	ldr	r1, [r7]
	ldr	r3, [r7, #4]
	movs	r2, #8
	movs	r0, r3
	bl	memcpy
	.loc 1 113 0
	movs	r3, #1
	b	.L38
.L40:
	.loc 1 115 0
	ldr	r3, [r7]
	ldr	r2, [r7, #4]
	movs	r1, r2
	movs	r0, r3
	bl	IsPointInRect
	subs	r3, r0, #0
	beq	.L41
	.loc 1 115 0 is_stmt 0 discriminator 1
	ldr	r3, [r7]
	adds	r3, r3, #4
	ldr	r2, [r7, #4]
	movs	r1, r2
	movs	r0, r3
	bl	IsPointInRect
	subs	r3, r0, #0
	beq	.L41
	.loc 1 117 0 is_stmt 1
	movs	r3, #1
	b	.L38
.L41:
	.loc 1 119 0
	movs	r3, #0
.L38:
	.loc 1 120 0
	movs	r0, r3
	mov	sp, r7
	add	sp, sp, #8
	@ sp needed
	pop	{r7, pc}
	.cfi_endproc
.LFE7:
	.size	IsRectInRect, .-IsRectInRect
	.section	.text.IsRectCollapsed,"ax",%progbits
	.align	2
	.global	IsRectCollapsed
	.code	16
	.thumb_func
	.type	IsRectCollapsed, %function
IsRectCollapsed:
.LFB8:
	.loc 1 123 0
	.cfi_startproc
	@ args = 0, pretend = 0, frame = 8
	@ frame_needed = 1, uses_anonymous_args = 0
	push	{r7, lr}
	.cfi_def_cfa_offset 8
	.cfi_offset 7, -8
	.cfi_offset 14, -4
	sub	sp, sp, #8
	.cfi_def_cfa_offset 16
	add	r7, sp, #0
	.cfi_def_cfa_register 7
	str	r0, [r7, #4]
	.loc 1 125 0
	ldr	r3, [r7, #4]
	cmp	r3, #0
	beq	.L43
	.loc 1 125 0 is_stmt 0 discriminator 2
	ldr	r3, [r7, #4]
	movs	r2, #0
	ldrsh	r2, [r3, r2]
	ldr	r3, [r7, #4]
	movs	r1, #4
	ldrsh	r3, [r3, r1]
	.loc 1 124 0 is_stmt 1 discriminator 2
	cmp	r2, r3
	bgt	.L43
	.loc 1 125 0 discriminator 3
	ldr	r3, [r7, #4]
	movs	r2, #2
	ldrsh	r2, [r3, r2]
	ldr	r3, [r7, #4]
	movs	r1, #6
	ldrsh	r3, [r3, r1]
	cmp	r2, r3
	ble	.L44
.L43:
	.loc 1 125 0 is_stmt 0 discriminator 1
	movs	r3, #1
	b	.L45
.L44:
	.loc 1 125 0 discriminator 4
	movs	r3, #0
.L45:
	.loc 1 124 0 is_stmt 1
	lsls	r3, r3, #24
	lsrs	r3, r3, #24
	.loc 1 126 0
	movs	r0, r3
	mov	sp, r7
	add	sp, sp, #8
	@ sp needed
	pop	{r7, pc}
	.cfi_endproc
.LFE8:
	.size	IsRectCollapsed, .-IsRectCollapsed
	.section	.text.GDI_CreateRList,"ax",%progbits
	.align	2
	.global	GDI_CreateRList
	.code	16
	.thumb_func
	.type	GDI_CreateRList, %function
GDI_CreateRList:
.LFB9:
	.loc 1 129 0
	.cfi_startproc
	@ args = 0, pretend = 0, frame = 8
	@ frame_needed = 1, uses_anonymous_args = 0
	push	{r7, lr}
	.cfi_def_cfa_offset 8
	.cfi_offset 7, -8
	.cfi_offset 14, -4
	sub	sp, sp, #8
	.cfi_def_cfa_offset 16
	add	r7, sp, #0
	.cfi_def_cfa_register 7
	.loc 1 130 0
	movs	r0, #36
	bl	malloc
	movs	r3, r0
	str	r3, [r7, #4]
	.loc 1 132 0
	ldr	r3, [r7, #4]
	cmp	r3, #0
	beq	.L48
	.loc 1 133 0
	ldr	r3, [r7, #4]
	movs	r2, #0
	str	r2, [r3]
.L48:
	.loc 1 135 0
	ldr	r3, [r7, #4]
	.loc 1 136 0
	movs	r0, r3
	mov	sp, r7
	add	sp, sp, #8
	@ sp needed
	pop	{r7, pc}
	.cfi_endproc
.LFE9:
	.size	GDI_CreateRList, .-GDI_CreateRList
	.section	.text.GDI_DeleteRList,"ax",%progbits
	.align	2
	.global	GDI_DeleteRList
	.code	16
	.thumb_func
	.type	GDI_DeleteRList, %function
GDI_DeleteRList:
.LFB10:
	.loc 1 139 0
	.cfi_startproc
	@ args = 0, pretend = 0, frame = 8
	@ frame_needed = 1, uses_anonymous_args = 0
	push	{r7, lr}
	.cfi_def_cfa_offset 8
	.cfi_offset 7, -8
	.cfi_offset 14, -4
	sub	sp, sp, #8
	.cfi_def_cfa_offset 16
	add	r7, sp, #0
	.cfi_def_cfa_register 7
	str	r0, [r7, #4]
	.loc 1 140 0
	ldr	r3, [r7, #4]
	movs	r0, r3
	bl	free
	.loc 1 142 0
	movs	r3, #0
	.loc 1 143 0
	movs	r0, r3
	mov	sp, r7
	add	sp, sp, #8
	@ sp needed
	pop	{r7, pc}
	.cfi_endproc
.LFE10:
	.size	GDI_DeleteRList, .-GDI_DeleteRList
	.section	.text.GDI_LocalToGlobalPt,"ax",%progbits
	.align	2
	.global	GDI_LocalToGlobalPt
	.code	16
	.thumb_func
	.type	GDI_LocalToGlobalPt, %function
GDI_LocalToGlobalPt:
.LFB11:
	.loc 1 146 0
	.cfi_startproc
	@ args = 0, pretend = 0, frame = 16
	@ frame_needed = 1, uses_anonymous_args = 0
	push	{r7, lr}
	.cfi_def_cfa_offset 8
	.cfi_offset 7, -8
	.cfi_offset 14, -4
	sub	sp, sp, #16
	.cfi_def_cfa_offset 24
	add	r7, sp, #0
	.cfi_def_cfa_register 7
	str	r0, [r7, #4]
	str	r1, [r7]
	.loc 1 147 0
	movs	r3, #8
	adds	r3, r7, r3
	movs	r2, #0
	str	r2, [r3]
	.loc 1 149 0
	ldr	r3, [r7, #4]
	cmp	r3, #0
	beq	.L53
	.loc 1 151 0
	ldr	r3, [r7]
	cmp	r3, #0
	beq	.L54
	.loc 1 153 0
	ldr	r3, [r7]
	movs	r2, #0
	ldrsh	r3, [r3, r2]
	lsls	r3, r3, #16
	lsrs	r2, r3, #16
	ldr	r3, [r7, #4]
	movs	r1, #0
	ldrsh	r3, [r3, r1]
	lsls	r3, r3, #16
	lsrs	r3, r3, #16
	adds	r3, r2, r3
	lsls	r3, r3, #16
	lsrs	r3, r3, #16
	lsls	r3, r3, #16
	asrs	r3, r3, #16
	movs	r2, #8
	adds	r2, r7, r2
	strh	r3, [r2]
	.loc 1 154 0
	ldr	r3, [r7]
	movs	r2, #2
	ldrsh	r3, [r3, r2]
	lsls	r3, r3, #16
	lsrs	r2, r3, #16
	ldr	r3, [r7, #4]
	movs	r1, #2
	ldrsh	r3, [r3, r1]
	lsls	r3, r3, #16
	lsrs	r3, r3, #16
	adds	r3, r2, r3
	lsls	r3, r3, #16
	lsrs	r3, r3, #16
	lsls	r3, r3, #16
	asrs	r3, r3, #16
	movs	r2, #8
	adds	r2, r7, r2
	strh	r3, [r2, #2]
	b	.L53
.L54:
	.loc 1 158 0
	ldr	r3, [r7, #4]
	movs	r2, #0
	ldrsh	r2, [r3, r2]
	movs	r3, #8
	adds	r3, r7, r3
	strh	r2, [r3]
	.loc 1 159 0
	ldr	r3, [r7, #4]
	movs	r2, #2
	ldrsh	r2, [r3, r2]
	movs	r3, #8
	adds	r3, r7, r3
	strh	r2, [r3, #2]
.L53:
	.loc 1 162 0
	movs	r3, #12
	adds	r3, r7, r3
	movs	r2, #8
	adds	r2, r7, r2
	ldr	r2, [r2]
	str	r2, [r3]
	movs	r3, #12
	adds	r2, r7, r3
	movs	r3, #0
	ldrh	r1, [r2]
	lsls	r1, r1, #16
	lsrs	r1, r1, #16
	lsrs	r3, r3, #16
	lsls	r3, r3, #16
	orrs	r3, r1
	ldrh	r2, [r2, #2]
	lsls	r2, r2, #16
	lsls	r3, r3, #16
	lsrs	r3, r3, #16
	orrs	r3, r2
	.loc 1 163 0
	movs	r0, r3
	mov	sp, r7
	add	sp, sp, #16
	@ sp needed
	pop	{r7, pc}
	.cfi_endproc
.LFE11:
	.size	GDI_LocalToGlobalPt, .-GDI_LocalToGlobalPt
	.section	.text.GDI_GlobalToLocalPt,"ax",%progbits
	.align	2
	.global	GDI_GlobalToLocalPt
	.code	16
	.thumb_func
	.type	GDI_GlobalToLocalPt, %function
GDI_GlobalToLocalPt:
.LFB12:
	.loc 1 166 0
	.cfi_startproc
	@ args = 0, pretend = 0, frame = 16
	@ frame_needed = 1, uses_anonymous_args = 0
	push	{r7, lr}
	.cfi_def_cfa_offset 8
	.cfi_offset 7, -8
	.cfi_offset 14, -4
	sub	sp, sp, #16
	.cfi_def_cfa_offset 24
	add	r7, sp, #0
	.cfi_def_cfa_register 7
	str	r0, [r7, #4]
	str	r1, [r7]
	.loc 1 167 0
	movs	r3, #8
	adds	r3, r7, r3
	movs	r2, #0
	str	r2, [r3]
	.loc 1 169 0
	ldr	r3, [r7, #4]
	cmp	r3, #0
	beq	.L57
	.loc 1 171 0
	ldr	r3, [r7]
	cmp	r3, #0
	beq	.L58
	.loc 1 173 0
	ldr	r3, [r7, #4]
	movs	r2, #0
	ldrsh	r3, [r3, r2]
	lsls	r3, r3, #16
	lsrs	r2, r3, #16
	ldr	r3, [r7]
	movs	r1, #0
	ldrsh	r3, [r3, r1]
	lsls	r3, r3, #16
	lsrs	r3, r3, #16
	subs	r3, r2, r3
	lsls	r3, r3, #16
	lsrs	r3, r3, #16
	lsls	r3, r3, #16
	asrs	r3, r3, #16
	movs	r2, #8
	adds	r2, r7, r2
	strh	r3, [r2]
	.loc 1 174 0
	ldr	r3, [r7, #4]
	movs	r2, #2
	ldrsh	r3, [r3, r2]
	lsls	r3, r3, #16
	lsrs	r2, r3, #16
	ldr	r3, [r7]
	movs	r1, #2
	ldrsh	r3, [r3, r1]
	lsls	r3, r3, #16
	lsrs	r3, r3, #16
	subs	r3, r2, r3
	lsls	r3, r3, #16
	lsrs	r3, r3, #16
	lsls	r3, r3, #16
	asrs	r3, r3, #16
	movs	r2, #8
	adds	r2, r7, r2
	strh	r3, [r2, #2]
	b	.L57
.L58:
	.loc 1 178 0
	ldr	r3, [r7, #4]
	movs	r2, #0
	ldrsh	r2, [r3, r2]
	movs	r3, #8
	adds	r3, r7, r3
	strh	r2, [r3]
	.loc 1 179 0
	ldr	r3, [r7, #4]
	movs	r2, #2
	ldrsh	r2, [r3, r2]
	movs	r3, #8
	adds	r3, r7, r3
	strh	r2, [r3, #2]
.L57:
	.loc 1 182 0
	movs	r3, #12
	adds	r3, r7, r3
	movs	r2, #8
	adds	r2, r7, r2
	ldr	r2, [r2]
	str	r2, [r3]
	movs	r3, #12
	adds	r2, r7, r3
	movs	r3, #0
	ldrh	r1, [r2]
	lsls	r1, r1, #16
	lsrs	r1, r1, #16
	lsrs	r3, r3, #16
	lsls	r3, r3, #16
	orrs	r3, r1
	ldrh	r2, [r2, #2]
	lsls	r2, r2, #16
	lsls	r3, r3, #16
	lsrs	r3, r3, #16
	orrs	r3, r2
	.loc 1 183 0
	movs	r0, r3
	mov	sp, r7
	add	sp, sp, #16
	@ sp needed
	pop	{r7, pc}
	.cfi_endproc
.LFE12:
	.size	GDI_GlobalToLocalPt, .-GDI_GlobalToLocalPt
	.section	.text.GDI_LocalToGlobalRct,"ax",%progbits
	.align	2
	.global	GDI_LocalToGlobalRct
	.code	16
	.thumb_func
	.type	GDI_LocalToGlobalRct, %function
GDI_LocalToGlobalRct:
.LFB13:
	.loc 1 186 0
	.cfi_startproc
	@ args = 0, pretend = 0, frame = 24
	@ frame_needed = 1, uses_anonymous_args = 0
	push	{r7, lr}
	.cfi_def_cfa_offset 8
	.cfi_offset 7, -8
	.cfi_offset 14, -4
	sub	sp, sp, #24
	.cfi_def_cfa_offset 32
	add	r7, sp, #0
	.cfi_def_cfa_register 7
	str	r0, [r7, #12]
	str	r1, [r7, #8]
	str	r2, [r7, #4]
	.loc 1 187 0
	movs	r3, #16
	adds	r3, r7, r3
	movs	r0, r3
	movs	r3, #8
	movs	r2, r3
	movs	r1, #0
	bl	memset
	.loc 1 189 0
	ldr	r3, [r7, #8]
	cmp	r3, #0
	beq	.L61
	.loc 1 191 0
	ldr	r3, [r7, #4]
	cmp	r3, #0
	beq	.L62
	.loc 1 193 0
	ldr	r3, [r7, #4]
	movs	r2, #0
	ldrsh	r3, [r3, r2]
	lsls	r3, r3, #16
	lsrs	r2, r3, #16
	ldr	r3, [r7, #8]
	movs	r1, #0
	ldrsh	r3, [r3, r1]
	lsls	r3, r3, #16
	lsrs	r3, r3, #16
	adds	r3, r2, r3
	lsls	r3, r3, #16
	lsrs	r3, r3, #16
	lsls	r3, r3, #16
	asrs	r3, r3, #16
	movs	r2, #16
	adds	r2, r7, r2
	strh	r3, [r2]
	.loc 1 194 0
	ldr	r3, [r7, #4]
	movs	r2, #2
	ldrsh	r3, [r3, r2]
	lsls	r3, r3, #16
	lsrs	r2, r3, #16
	ldr	r3, [r7, #8]
	movs	r1, #2
	ldrsh	r3, [r3, r1]
	lsls	r3, r3, #16
	lsrs	r3, r3, #16
	adds	r3, r2, r3
	lsls	r3, r3, #16
	lsrs	r3, r3, #16
	lsls	r3, r3, #16
	asrs	r3, r3, #16
	movs	r2, #16
	adds	r2, r7, r2
	strh	r3, [r2, #2]
	.loc 1 195 0
	ldr	r3, [r7, #4]
	movs	r2, #0
	ldrsh	r3, [r3, r2]
	lsls	r3, r3, #16
	lsrs	r2, r3, #16
	ldr	r3, [r7, #8]
	movs	r1, #4
	ldrsh	r3, [r3, r1]
	lsls	r3, r3, #16
	lsrs	r3, r3, #16
	adds	r3, r2, r3
	lsls	r3, r3, #16
	lsrs	r3, r3, #16
	lsls	r3, r3, #16
	asrs	r3, r3, #16
	movs	r2, #16
	adds	r2, r7, r2
	strh	r3, [r2, #4]
	.loc 1 196 0
	ldr	r3, [r7, #4]
	movs	r2, #2
	ldrsh	r3, [r3, r2]
	lsls	r3, r3, #16
	lsrs	r2, r3, #16
	ldr	r3, [r7, #8]
	movs	r1, #6
	ldrsh	r3, [r3, r1]
	lsls	r3, r3, #16
	lsrs	r3, r3, #16
	adds	r3, r2, r3
	lsls	r3, r3, #16
	lsrs	r3, r3, #16
	lsls	r3, r3, #16
	asrs	r3, r3, #16
	movs	r2, #16
	adds	r2, r7, r2
	strh	r3, [r2, #6]
	b	.L61
.L62:
	.loc 1 200 0
	ldr	r3, [r7, #8]
	movs	r2, #0
	ldrsh	r2, [r3, r2]
	movs	r3, #16
	adds	r3, r7, r3
	strh	r2, [r3]
	.loc 1 201 0
	ldr	r3, [r7, #8]
	movs	r2, #2
	ldrsh	r2, [r3, r2]
	movs	r3, #16
	adds	r3, r7, r3
	strh	r2, [r3, #2]
	.loc 1 202 0
	ldr	r3, [r7, #8]
	movs	r2, #0
	ldrsh	r2, [r3, r2]
	movs	r3, #16
	adds	r3, r7, r3
	strh	r2, [r3, #4]
	.loc 1 203 0
	ldr	r3, [r7, #8]
	movs	r2, #2
	ldrsh	r2, [r3, r2]
	movs	r3, #16
	adds	r3, r7, r3
	strh	r2, [r3, #6]
.L61:
	.loc 1 206 0
	ldr	r2, [r7, #12]
	movs	r3, #16
	adds	r3, r7, r3
	movs	r0, r2
	movs	r1, r3
	movs	r3, #8
	movs	r2, r3
	bl	memcpy
	.loc 1 207 0
	ldr	r0, [r7, #12]
	mov	sp, r7
	add	sp, sp, #24
	@ sp needed
	pop	{r7, pc}
	.cfi_endproc
.LFE13:
	.size	GDI_LocalToGlobalRct, .-GDI_LocalToGlobalRct
	.section	.text.GDI_GlobalToLocalRct,"ax",%progbits
	.align	2
	.global	GDI_GlobalToLocalRct
	.code	16
	.thumb_func
	.type	GDI_GlobalToLocalRct, %function
GDI_GlobalToLocalRct:
.LFB14:
	.loc 1 210 0
	.cfi_startproc
	@ args = 0, pretend = 0, frame = 24
	@ frame_needed = 1, uses_anonymous_args = 0
	push	{r7, lr}
	.cfi_def_cfa_offset 8
	.cfi_offset 7, -8
	.cfi_offset 14, -4
	sub	sp, sp, #24
	.cfi_def_cfa_offset 32
	add	r7, sp, #0
	.cfi_def_cfa_register 7
	str	r0, [r7, #12]
	str	r1, [r7, #8]
	str	r2, [r7, #4]
	.loc 1 211 0
	movs	r3, #16
	adds	r3, r7, r3
	movs	r0, r3
	movs	r3, #8
	movs	r2, r3
	movs	r1, #0
	bl	memset
	.loc 1 213 0
	ldr	r3, [r7, #8]
	cmp	r3, #0
	beq	.L65
	.loc 1 215 0
	ldr	r3, [r7, #4]
	cmp	r3, #0
	beq	.L66
	.loc 1 217 0
	ldr	r3, [r7, #8]
	movs	r2, #0
	ldrsh	r3, [r3, r2]
	lsls	r3, r3, #16
	lsrs	r2, r3, #16
	ldr	r3, [r7, #4]
	movs	r1, #0
	ldrsh	r3, [r3, r1]
	lsls	r3, r3, #16
	lsrs	r3, r3, #16
	subs	r3, r2, r3
	lsls	r3, r3, #16
	lsrs	r3, r3, #16
	lsls	r3, r3, #16
	asrs	r3, r3, #16
	movs	r2, #16
	adds	r2, r7, r2
	strh	r3, [r2]
	.loc 1 218 0
	ldr	r3, [r7, #8]
	movs	r2, #2
	ldrsh	r3, [r3, r2]
	lsls	r3, r3, #16
	lsrs	r2, r3, #16
	ldr	r3, [r7, #4]
	movs	r1, #2
	ldrsh	r3, [r3, r1]
	lsls	r3, r3, #16
	lsrs	r3, r3, #16
	subs	r3, r2, r3
	lsls	r3, r3, #16
	lsrs	r3, r3, #16
	lsls	r3, r3, #16
	asrs	r3, r3, #16
	movs	r2, #16
	adds	r2, r7, r2
	strh	r3, [r2, #2]
	.loc 1 219 0
	ldr	r3, [r7, #8]
	movs	r2, #4
	ldrsh	r3, [r3, r2]
	lsls	r3, r3, #16
	lsrs	r2, r3, #16
	ldr	r3, [r7, #4]
	movs	r1, #0
	ldrsh	r3, [r3, r1]
	lsls	r3, r3, #16
	lsrs	r3, r3, #16
	subs	r3, r2, r3
	lsls	r3, r3, #16
	lsrs	r3, r3, #16
	lsls	r3, r3, #16
	asrs	r3, r3, #16
	movs	r2, #16
	adds	r2, r7, r2
	strh	r3, [r2, #4]
	.loc 1 220 0
	ldr	r3, [r7, #8]
	movs	r2, #6
	ldrsh	r3, [r3, r2]
	lsls	r3, r3, #16
	lsrs	r2, r3, #16
	ldr	r3, [r7, #4]
	movs	r1, #2
	ldrsh	r3, [r3, r1]
	lsls	r3, r3, #16
	lsrs	r3, r3, #16
	subs	r3, r2, r3
	lsls	r3, r3, #16
	lsrs	r3, r3, #16
	lsls	r3, r3, #16
	asrs	r3, r3, #16
	movs	r2, #16
	adds	r2, r7, r2
	strh	r3, [r2, #6]
	b	.L65
.L66:
	.loc 1 224 0
	ldr	r3, [r7, #8]
	movs	r2, #0
	ldrsh	r2, [r3, r2]
	movs	r3, #16
	adds	r3, r7, r3
	strh	r2, [r3]
	.loc 1 225 0
	ldr	r3, [r7, #8]
	movs	r2, #2
	ldrsh	r2, [r3, r2]
	movs	r3, #16
	adds	r3, r7, r3
	strh	r2, [r3, #2]
	.loc 1 226 0
	ldr	r3, [r7, #8]
	movs	r2, #0
	ldrsh	r2, [r3, r2]
	movs	r3, #16
	adds	r3, r7, r3
	strh	r2, [r3, #4]
	.loc 1 227 0
	ldr	r3, [r7, #8]
	movs	r2, #2
	ldrsh	r2, [r3, r2]
	movs	r3, #16
	adds	r3, r7, r3
	strh	r2, [r3, #6]
.L65:
	.loc 1 230 0
	ldr	r2, [r7, #12]
	movs	r3, #16
	adds	r3, r7, r3
	movs	r0, r2
	movs	r1, r3
	movs	r3, #8
	movs	r2, r3
	bl	memcpy
	.loc 1 231 0
	ldr	r0, [r7, #12]
	mov	sp, r7
	add	sp, sp, #24
	@ sp needed
	pop	{r7, pc}
	.cfi_endproc
.LFE14:
	.size	GDI_GlobalToLocalRct, .-GDI_GlobalToLocalRct
	.section	.text.GDI_ScreenToLayerPt,"ax",%progbits
	.align	2
	.global	GDI_ScreenToLayerPt
	.code	16
	.thumb_func
	.type	GDI_ScreenToLayerPt, %function
GDI_ScreenToLayerPt:
.LFB15:
	.loc 1 234 0
	.cfi_startproc
	@ args = 0, pretend = 0, frame = 16
	@ frame_needed = 1, uses_anonymous_args = 0
	push	{r7, lr}
	.cfi_def_cfa_offset 8
	.cfi_offset 7, -8
	.cfi_offset 14, -4
	sub	sp, sp, #16
	.cfi_def_cfa_offset 24
	add	r7, sp, #0
	.cfi_def_cfa_register 7
	movs	r2, r0
	str	r1, [r7]
	adds	r3, r7, #7
	strb	r2, [r3]
	.loc 1 237 0
	ldr	r3, [r7]
	cmp	r3, #0
	beq	.L69
	.loc 1 237 0 discriminator 1
	adds	r3, r7, #7
	ldrb	r3, [r3]
	cmp	r3, #3
	bhi	.L69
	.loc 1 237 0 is_stmt 0 discriminator 2
	adds	r3, r7, #7
	ldrb	r2, [r3]
	ldr	r3, .L73
	lsls	r2, r2, #2
	ldr	r3, [r2, r3]
	cmp	r3, #0
	bne	.L70
.L69:
	.loc 1 238 0 is_stmt 1
	movs	r3, #8
	adds	r3, r7, r3
	movs	r2, #0
	strh	r2, [r3, #2]
	movs	r3, #8
	adds	r3, r7, r3
	movs	r2, #2
	ldrsh	r2, [r3, r2]
	movs	r3, #8
	adds	r3, r7, r3
	strh	r2, [r3]
	b	.L71
.L70:
	.loc 1 241 0
	ldr	r3, [r7]
	movs	r2, #0
	ldrsh	r3, [r3, r2]
	lsls	r3, r3, #16
	lsrs	r2, r3, #16
	ldr	r3, .L73+4
	movs	r1, #8
	ldrsh	r3, [r3, r1]
	lsls	r3, r3, #16
	lsrs	r3, r3, #16
	adds	r3, r2, r3
	lsls	r3, r3, #16
	lsrs	r1, r3, #16
	adds	r3, r7, #7
	ldrb	r2, [r3]
	ldr	r0, .L73+4
	movs	r3, r2
	lsls	r3, r3, #3
	subs	r3, r3, r2
	lsls	r3, r3, #2
	adds	r3, r0, r3
	adds	r3, r3, #34
	movs	r2, #0
	ldrsh	r3, [r3, r2]
	lsls	r3, r3, #16
	lsrs	r3, r3, #16
	subs	r3, r1, r3
	lsls	r3, r3, #16
	lsrs	r3, r3, #16
	lsls	r3, r3, #16
	asrs	r3, r3, #16
	movs	r2, #8
	adds	r2, r7, r2
	strh	r3, [r2]
	.loc 1 242 0
	ldr	r3, [r7]
	movs	r2, #2
	ldrsh	r3, [r3, r2]
	lsls	r3, r3, #16
	lsrs	r2, r3, #16
	ldr	r3, .L73+4
	movs	r1, #10
	ldrsh	r3, [r3, r1]
	lsls	r3, r3, #16
	lsrs	r3, r3, #16
	adds	r3, r2, r3
	lsls	r3, r3, #16
	lsrs	r1, r3, #16
	adds	r3, r7, #7
	ldrb	r2, [r3]
	ldr	r0, .L73+4
	movs	r3, r2
	lsls	r3, r3, #3
	subs	r3, r3, r2
	lsls	r3, r3, #2
	adds	r3, r0, r3
	adds	r3, r3, #36
	movs	r2, #0
	ldrsh	r3, [r3, r2]
	lsls	r3, r3, #16
	lsrs	r3, r3, #16
	subs	r3, r1, r3
	lsls	r3, r3, #16
	lsrs	r3, r3, #16
	lsls	r3, r3, #16
	asrs	r3, r3, #16
	movs	r2, #8
	adds	r2, r7, r2
	strh	r3, [r2, #2]
.L71:
	.loc 1 244 0
	movs	r3, #12
	adds	r3, r7, r3
	movs	r2, #8
	adds	r2, r7, r2
	ldr	r2, [r2]
	str	r2, [r3]
	movs	r3, #12
	adds	r2, r7, r3
	movs	r3, #0
	ldrh	r1, [r2]
	lsls	r1, r1, #16
	lsrs	r1, r1, #16
	lsrs	r3, r3, #16
	lsls	r3, r3, #16
	orrs	r3, r1
	ldrh	r2, [r2, #2]
	lsls	r2, r2, #16
	lsls	r3, r3, #16
	lsrs	r3, r3, #16
	orrs	r3, r2
	.loc 1 245 0
	movs	r0, r3
	mov	sp, r7
	add	sp, sp, #16
	@ sp needed
	pop	{r7, pc}
.L74:
	.align	2
.L73:
	.word	GUILayer
	.word	LCDScreen
	.cfi_endproc
.LFE15:
	.size	GDI_ScreenToLayerPt, .-GDI_ScreenToLayerPt
	.section	.text.GDI_ANDRectangles,"ax",%progbits
	.align	2
	.global	GDI_ANDRectangles
	.code	16
	.thumb_func
	.type	GDI_ANDRectangles, %function
GDI_ANDRectangles:
.LFB16:
	.loc 1 249 0
	.cfi_startproc
	@ args = 0, pretend = 0, frame = 24
	@ frame_needed = 1, uses_anonymous_args = 0
	push	{r7, lr}
	.cfi_def_cfa_offset 8
	.cfi_offset 7, -8
	.cfi_offset 14, -4
	sub	sp, sp, #24
	.cfi_def_cfa_offset 32
	add	r7, sp, #0
	.cfi_def_cfa_register 7
	str	r0, [r7, #4]
	str	r1, [r7]
	.loc 1 250 0
	ldr	r3, [r7, #4]
	cmp	r3, #0
	bne	.LCB1437
	b	.L76	@long jump
.LCB1437:
	.loc 1 250 0 discriminator 1
	ldr	r3, [r7]
	cmp	r3, #0
	bne	.LCB1440
	b	.L76	@long jump
.LCB1440:
	.loc 1 252 0
	ldr	r2, [r7]
	ldr	r3, [r7, #4]
	movs	r1, r2
	movs	r0, r3
	bl	IsRectsOverlaps
	subs	r3, r0, #0
	bne	.LCB1448
	b	.L76	@long jump
.LCB1448:
.LBB5:
	.loc 1 254 0
	movs	r3, #22
	adds	r3, r7, r3
	ldr	r2, [r7, #4]
	ldrh	r2, [r2]
	strh	r2, [r3]
	movs	r3, #20
	adds	r3, r7, r3
	ldr	r2, [r7]
	ldrh	r2, [r2]
	strh	r2, [r3]
	movs	r3, #20
	adds	r3, r7, r3
	movs	r2, #22
	adds	r2, r7, r2
	ldrh	r0, [r2]
	ldrh	r1, [r3]
	lsls	r2, r1, #16
	asrs	r2, r2, #16
	lsls	r3, r0, #16
	asrs	r3, r3, #16
	cmp	r2, r3
	bge	.L77
	adds	r1, r0, #0
.L77:
	lsls	r3, r1, #16
	asrs	r3, r3, #16
.LBE5:
	lsls	r3, r3, #16
	asrs	r3, r3, #16
	ldr	r2, [r7, #4]
	strh	r3, [r2]
.LBB6:
	.loc 1 255 0
	movs	r3, #18
	adds	r3, r7, r3
	ldr	r2, [r7, #4]
	ldrh	r2, [r2, #4]
	strh	r2, [r3]
	movs	r3, #16
	adds	r3, r7, r3
	ldr	r2, [r7]
	ldrh	r2, [r2, #4]
	strh	r2, [r3]
	movs	r3, #16
	adds	r3, r7, r3
	movs	r2, #18
	adds	r2, r7, r2
	ldrh	r0, [r2]
	ldrh	r1, [r3]
	lsls	r2, r1, #16
	asrs	r2, r2, #16
	lsls	r3, r0, #16
	asrs	r3, r3, #16
	cmp	r2, r3
	ble	.L78
	adds	r1, r0, #0
.L78:
	lsls	r3, r1, #16
	asrs	r3, r3, #16
.LBE6:
	lsls	r3, r3, #16
	asrs	r3, r3, #16
	ldr	r2, [r7, #4]
	strh	r3, [r2, #4]
.LBB7:
	.loc 1 256 0
	movs	r3, #14
	adds	r3, r7, r3
	ldr	r2, [r7, #4]
	ldrh	r2, [r2, #2]
	strh	r2, [r3]
	movs	r3, #12
	adds	r3, r7, r3
	ldr	r2, [r7]
	ldrh	r2, [r2, #2]
	strh	r2, [r3]
	movs	r3, #12
	adds	r3, r7, r3
	movs	r2, #14
	adds	r2, r7, r2
	ldrh	r0, [r2]
	ldrh	r1, [r3]
	lsls	r2, r1, #16
	asrs	r2, r2, #16
	lsls	r3, r0, #16
	asrs	r3, r3, #16
	cmp	r2, r3
	bge	.L79
	adds	r1, r0, #0
.L79:
	lsls	r3, r1, #16
	asrs	r3, r3, #16
.LBE7:
	lsls	r3, r3, #16
	asrs	r3, r3, #16
	ldr	r2, [r7, #4]
	strh	r3, [r2, #2]
.LBB8:
	.loc 1 257 0
	movs	r3, #10
	adds	r3, r7, r3
	ldr	r2, [r7, #4]
	ldrh	r2, [r2, #6]
	strh	r2, [r3]
	movs	r3, #8
	adds	r3, r7, r3
	ldr	r2, [r7]
	ldrh	r2, [r2, #6]
	strh	r2, [r3]
	movs	r3, #8
	adds	r3, r7, r3
	movs	r2, #10
	adds	r2, r7, r2
	ldrh	r0, [r2]
	ldrh	r1, [r3]
	lsls	r2, r1, #16
	asrs	r2, r2, #16
	lsls	r3, r0, #16
	asrs	r3, r3, #16
	cmp	r2, r3
	ble	.L80
	adds	r1, r0, #0
.L80:
	lsls	r3, r1, #16
	asrs	r3, r3, #16
.LBE8:
	lsls	r3, r3, #16
	asrs	r3, r3, #16
	ldr	r2, [r7, #4]
	strh	r3, [r2, #6]
	.loc 1 258 0
	movs	r3, #1
	b	.L81
.L76:
	.loc 1 261 0
	movs	r3, #0
.L81:
	.loc 1 262 0
	movs	r0, r3
	mov	sp, r7
	add	sp, sp, #24
	@ sp needed
	pop	{r7, pc}
	.cfi_endproc
.LFE16:
	.size	GDI_ANDRectangles, .-GDI_ANDRectangles
	.section	.text.GDI_ADDRectangles,"ax",%progbits
	.align	2
	.global	GDI_ADDRectangles
	.code	16
	.thumb_func
	.type	GDI_ADDRectangles, %function
GDI_ADDRectangles:
.LFB17:
	.loc 1 266 0
	.cfi_startproc
	@ args = 0, pretend = 0, frame = 32
	@ frame_needed = 1, uses_anonymous_args = 0
	push	{r7, lr}
	.cfi_def_cfa_offset 8
	.cfi_offset 7, -8
	.cfi_offset 14, -4
	sub	sp, sp, #32
	.cfi_def_cfa_offset 40
	add	r7, sp, #0
	.cfi_def_cfa_register 7
	str	r0, [r7, #4]
	str	r1, [r7]
	.loc 1 267 0
	movs	r3, #0
	str	r3, [r7, #28]
	.loc 1 270 0
	ldr	r3, [r7, #4]
	cmp	r3, #0
	beq	.L83
	.loc 1 270 0 discriminator 2
	ldr	r3, [r7]
	cmp	r3, #0
	bne	.L84
.L83:
	.loc 1 270 0 discriminator 3
	movs	r3, #0
	b	.L85
.L84:
	.loc 1 271 0
	ldr	r2, [r7]
	ldr	r3, [r7, #4]
	movs	r1, r2
	movs	r0, r3
	bl	IsRectsOverlaps
	subs	r3, r0, #0
	bne	.L86
	.loc 1 273 0
	bl	DL_Create
	movs	r3, r0
	str	r3, [r7, #28]
	.loc 1 274 0
	ldr	r3, [r7, #28]
	cmp	r3, #0
	bne	.LCB1641
	b	.L90	@long jump
.LCB1641:
	.loc 1 276 0
	movs	r0, #20
	bl	malloc
	movs	r3, r0
	str	r3, [r7, #20]
	.loc 1 277 0
	movs	r0, #20
	bl	malloc
	movs	r3, r0
	str	r3, [r7, #16]
	.loc 1 278 0
	ldr	r3, [r7, #20]
	cmp	r3, #0
	beq	.L88
	.loc 1 278 0 discriminator 1
	ldr	r3, [r7, #16]
	cmp	r3, #0
	bne	.L89
.L88:
	.loc 1 280 0
	ldr	r3, [r7, #20]
	movs	r0, r3
	bl	free
	.loc 1 281 0
	ldr	r3, [r7, #16]
	movs	r0, r3
	bl	free
	.loc 1 282 0
	ldr	r3, [r7, #28]
	movs	r0, r3
	bl	free
	.loc 1 283 0
	movs	r3, #0
	b	.L85
.L89:
	.loc 1 285 0
	ldr	r3, [r7, #20]
	ldr	r2, [r7, #4]
	adds	r3, r3, #12
	movs	r1, r2
	movs	r2, #8
	movs	r0, r3
	bl	memcpy
	.loc 1 286 0
	ldr	r3, [r7, #16]
	ldr	r2, [r7]
	adds	r3, r3, #12
	movs	r1, r2
	movs	r2, #8
	movs	r0, r3
	bl	memcpy
	.loc 1 287 0
	ldr	r2, [r7, #20]
	ldr	r3, [r7, #28]
	movs	r1, r2
	movs	r0, r3
	bl	DL_AddItemPtr
	.loc 1 288 0
	ldr	r2, [r7, #16]
	ldr	r3, [r7, #28]
	movs	r1, r2
	movs	r0, r3
	bl	DL_AddItemPtr
	b	.L90
.L86:
	.loc 1 293 0
	ldr	r2, [r7]
	ldr	r3, [r7, #4]
	movs	r1, r2
	movs	r0, r3
	bl	IsRectInRect
	subs	r3, r0, #0
	beq	.L91
	.loc 1 295 0
	movs	r0, #20
	bl	malloc
	movs	r3, r0
	str	r3, [r7, #20]
	.loc 1 296 0
	ldr	r3, [r7, #20]
	cmp	r3, #0
	beq	.L90
	.loc 1 298 0
	bl	DL_Create
	movs	r3, r0
	str	r3, [r7, #28]
	.loc 1 299 0
	ldr	r3, [r7, #20]
	ldr	r2, [r7, #4]
	adds	r3, r3, #12
	movs	r1, r2
	movs	r2, #8
	movs	r0, r3
	bl	memcpy
	.loc 1 300 0
	ldr	r3, [r7, #28]
	cmp	r3, #0
	beq	.L92
	.loc 1 300 0 discriminator 1
	ldr	r2, [r7, #20]
	ldr	r3, [r7, #28]
	movs	r1, r2
	movs	r0, r3
	bl	DL_AddItemPtr
	b	.L90
.L92:
	.loc 1 303 0
	ldr	r3, [r7, #20]
	movs	r0, r3
	bl	free
	.loc 1 304 0
	movs	r3, #0
	b	.L85
.L91:
.LBB9:
	.loc 1 310 0
	ldr	r2, [r7]
	ldr	r3, [r7, #4]
	movs	r1, r2
	movs	r0, r3
	bl	GDI_SUBRectangles
	movs	r3, r0
	str	r3, [r7, #12]
	.loc 1 312 0
	ldr	r3, [r7, #12]
	cmp	r3, #0
	beq	.L90
	.loc 1 314 0
	ldr	r3, [r7, #12]
	ldr	r3, [r3]
	cmp	r3, #0
	beq	.L93
	.loc 1 314 0 is_stmt 0 discriminator 1
	bl	DL_Create
	movs	r3, r0
	str	r3, [r7, #28]
	ldr	r3, [r7, #28]
	cmp	r3, #0
	beq	.L93
.LBB10:
	.loc 1 319 0 is_stmt 1
	movs	r3, #0
	str	r3, [r7, #24]
	b	.L94
.L96:
	.loc 1 321 0
	movs	r0, #20
	bl	malloc
	movs	r3, r0
	str	r3, [r7, #16]
	.loc 1 322 0
	ldr	r3, [r7, #16]
	cmp	r3, #0
	beq	.L95
	.loc 1 324 0
	ldr	r3, [r7, #16]
	ldr	r1, [r7, #12]
	ldr	r2, [r7, #24]
	lsls	r2, r2, #3
	movs	r0, #4
	adds	r2, r1, r2
	adds	r2, r2, r0
	adds	r3, r3, #12
	ldmia	r2!, {r0, r1}
	stmia	r3!, {r0, r1}
	.loc 1 325 0
	ldr	r2, [r7, #16]
	ldr	r3, [r7, #28]
	movs	r1, r2
	movs	r0, r3
	bl	DL_AddItemPtr
.L95:
	.loc 1 319 0 discriminator 2
	ldr	r3, [r7, #24]
	adds	r3, r3, #1
	str	r3, [r7, #24]
.L94:
	.loc 1 319 0 is_stmt 0 discriminator 1
	ldr	r3, [r7, #12]
	ldr	r2, [r3]
	ldr	r3, [r7, #24]
	cmp	r2, r3
	bhi	.L96
	.loc 1 328 0 is_stmt 1
	movs	r0, #20
	bl	malloc
	movs	r3, r0
	str	r3, [r7, #16]
	.loc 1 329 0
	ldr	r3, [r7, #16]
	cmp	r3, #0
	beq	.L93
	.loc 1 331 0
	ldr	r3, [r7, #16]
	ldr	r2, [r7]
	adds	r3, r3, #12
	movs	r1, r2
	movs	r2, #8
	movs	r0, r3
	bl	memcpy
	.loc 1 332 0
	ldr	r2, [r7, #16]
	ldr	r3, [r7, #28]
	movs	r1, r2
	movs	r0, r3
	bl	DL_AddItemPtr
.L93:
.LBE10:
	.loc 1 335 0
	ldr	r3, [r7, #12]
	movs	r0, r3
	bl	free
.L90:
.LBE9:
	.loc 1 339 0
	ldr	r3, [r7, #28]
.L85:
	.loc 1 340 0
	movs	r0, r3
	mov	sp, r7
	add	sp, sp, #32
	@ sp needed
	pop	{r7, pc}
	.cfi_endproc
.LFE17:
	.size	GDI_ADDRectangles, .-GDI_ADDRectangles
	.section	.text.GDI_SUBRectangles,"ax",%progbits
	.align	2
	.global	GDI_SUBRectangles
	.code	16
	.thumb_func
	.type	GDI_SUBRectangles, %function
GDI_SUBRectangles:
.LFB18:
	.loc 1 344 0
	.cfi_startproc
	@ args = 0, pretend = 0, frame = 32
	@ frame_needed = 1, uses_anonymous_args = 0
	push	{r4, r7, lr}
	.cfi_def_cfa_offset 12
	.cfi_offset 4, -12
	.cfi_offset 7, -8
	.cfi_offset 14, -4
	sub	sp, sp, #36
	.cfi_def_cfa_offset 48
	add	r7, sp, #0
	.cfi_def_cfa_register 7
	str	r0, [r7, #4]
	str	r1, [r7]
	.loc 1 345 0
	bl	GDI_CreateRList
	movs	r3, r0
	str	r3, [r7, #28]
	.loc 1 347 0
	ldr	r3, [r7, #28]
	cmp	r3, #0
	bne	.L98
	.loc 1 347 0 discriminator 1
	movs	r3, #0
	b	.L99
.L98:
	.loc 1 348 0
	ldr	r3, [r7, #4]
	cmp	r3, #0
	beq	.L100
	.loc 1 348 0 discriminator 2
	ldr	r3, [r7]
	cmp	r3, #0
	bne	.L101
.L100:
	.loc 1 348 0 discriminator 3
	ldr	r3, [r7, #28]
	b	.L99
.L101:
	.loc 1 350 0
	ldr	r2, [r7]
	ldr	r3, [r7, #4]
	movs	r1, r2
	movs	r0, r3
	bl	IsRectsOverlaps
	subs	r3, r0, #0
	bne	.L102
	.loc 1 352 0
	ldr	r3, [r7, #28]
	ldr	r3, [r3]
	adds	r1, r3, #1
	ldr	r2, [r7, #28]
	str	r1, [r2]
	ldr	r2, [r7, #28]
	lsls	r3, r3, #3
	movs	r1, #4
	adds	r3, r2, r3
	adds	r2, r3, r1
	ldr	r3, [r7, #4]
	movs	r0, r2
	movs	r1, r3
	movs	r3, #8
	movs	r2, r3
	bl	memcpy
	.loc 1 354 0
	ldr	r3, [r7, #28]
	b	.L99
.L102:
	.loc 1 357 0
	ldr	r3, [r7]
	movs	r2, #4
	ldrsh	r3, [r3, r2]
	movs	r2, r3
	ldr	r3, [r7]
	movs	r1, #0
	ldrsh	r3, [r3, r1]
	subs	r3, r2, r3
	bpl	.LCB1921
	b	.L103	@long jump
.LCB1921:
	.loc 1 359 0
	ldr	r3, [r7]
	movs	r2, #2
	ldrsh	r3, [r3, r2]
	movs	r2, r3
	ldr	r3, [r7, #4]
	movs	r1, #2
	ldrsh	r3, [r3, r1]
	subs	r3, r2, r3
	cmp	r3, #0
	ble	.L104
	.loc 1 362 0
	ldr	r3, [r7, #28]
	ldr	r3, [r3]
	ldr	r2, [r7, #4]
	movs	r1, #0
	ldrsh	r1, [r2, r1]
	ldr	r2, [r7, #28]
	lsls	r3, r3, #3
	adds	r3, r2, r3
	adds	r3, r3, #4
	adds	r2, r1, #0
	strh	r2, [r3]
	.loc 1 363 0
	ldr	r3, [r7, #28]
	ldr	r3, [r3]
	ldr	r2, [r7, #4]
	movs	r1, #2
	ldrsh	r1, [r2, r1]
	ldr	r2, [r7, #28]
	lsls	r3, r3, #3
	adds	r3, r2, r3
	adds	r3, r3, #6
	adds	r2, r1, #0
	strh	r2, [r3]
	.loc 1 364 0
	ldr	r3, [r7, #28]
	ldr	r3, [r3]
	ldr	r2, [r7, #4]
	movs	r1, #4
	ldrsh	r1, [r2, r1]
	ldr	r2, [r7, #28]
	lsls	r3, r3, #3
	adds	r3, r2, r3
	adds	r3, r3, #8
	adds	r2, r1, #0
	strh	r2, [r3]
	.loc 1 365 0
	ldr	r3, [r7, #28]
	ldr	r2, [r3]
	ldr	r3, [r7]
	movs	r1, #2
	ldrsh	r3, [r3, r1]
	lsls	r3, r3, #16
	lsrs	r3, r3, #16
	subs	r3, r3, #1
	lsls	r3, r3, #16
	lsrs	r3, r3, #16
	lsls	r3, r3, #16
	asrs	r3, r3, #16
	ldr	r1, [r7, #28]
	lsls	r2, r2, #3
	adds	r2, r1, r2
	adds	r2, r2, #10
	strh	r3, [r2]
	.loc 1 366 0
	ldr	r3, [r7, #28]
	ldr	r3, [r3]
	adds	r2, r3, #1
	ldr	r3, [r7, #28]
	str	r2, [r3]
.L104:
	.loc 1 368 0
	ldr	r3, [r7, #4]
	movs	r2, #6
	ldrsh	r3, [r3, r2]
	movs	r2, r3
	ldr	r3, [r7]
	movs	r1, #6
	ldrsh	r3, [r3, r1]
	subs	r3, r2, r3
	cmp	r3, #0
	ble	.L103
	.loc 1 371 0
	ldr	r3, [r7, #28]
	ldr	r3, [r3]
	ldr	r2, [r7, #4]
	movs	r1, #0
	ldrsh	r1, [r2, r1]
	ldr	r2, [r7, #28]
	lsls	r3, r3, #3
	adds	r3, r2, r3
	adds	r3, r3, #4
	adds	r2, r1, #0
	strh	r2, [r3]
	.loc 1 372 0
	ldr	r3, [r7, #28]
	ldr	r2, [r3]
	ldr	r3, [r7]
	movs	r1, #6
	ldrsh	r3, [r3, r1]
	lsls	r3, r3, #16
	lsrs	r3, r3, #16
	adds	r3, r3, #1
	lsls	r3, r3, #16
	lsrs	r3, r3, #16
	lsls	r3, r3, #16
	asrs	r3, r3, #16
	ldr	r1, [r7, #28]
	lsls	r2, r2, #3
	adds	r2, r1, r2
	adds	r2, r2, #6
	strh	r3, [r2]
	.loc 1 373 0
	ldr	r3, [r7, #28]
	ldr	r3, [r3]
	ldr	r2, [r7, #4]
	movs	r1, #4
	ldrsh	r1, [r2, r1]
	ldr	r2, [r7, #28]
	lsls	r3, r3, #3
	adds	r3, r2, r3
	adds	r3, r3, #8
	adds	r2, r1, #0
	strh	r2, [r3]
	.loc 1 374 0
	ldr	r3, [r7, #28]
	ldr	r3, [r3]
	ldr	r2, [r7, #4]
	movs	r1, #6
	ldrsh	r1, [r2, r1]
	ldr	r2, [r7, #28]
	lsls	r3, r3, #3
	adds	r3, r2, r3
	adds	r3, r3, #10
	adds	r2, r1, #0
	strh	r2, [r3]
	.loc 1 375 0
	ldr	r3, [r7, #28]
	ldr	r3, [r3]
	adds	r2, r3, #1
	ldr	r3, [r7, #28]
	str	r2, [r3]
.L103:
	.loc 1 378 0
	ldr	r3, [r7, #4]
	movs	r2, #6
	ldrsh	r3, [r3, r2]
	movs	r2, r3
	ldr	r3, [r7, #4]
	movs	r1, #2
	ldrsh	r3, [r3, r1]
	subs	r3, r2, r3
	bpl	.LCB2051
	b	.L105	@long jump
.LCB2051:
	.loc 1 380 0
	ldr	r3, [r7, #4]
	movs	r2, #4
	ldrsh	r3, [r3, r2]
	movs	r2, r3
	ldr	r3, [r7]
	movs	r1, #4
	ldrsh	r3, [r3, r1]
	subs	r3, r2, r3
	cmp	r3, #0
	ble	.L106
	.loc 1 383 0
	ldr	r3, [r7, #28]
	ldr	r2, [r3]
	ldr	r3, [r7]
	movs	r1, #4
	ldrsh	r3, [r3, r1]
	lsls	r3, r3, #16
	lsrs	r3, r3, #16
	adds	r3, r3, #1
	lsls	r3, r3, #16
	lsrs	r3, r3, #16
	lsls	r3, r3, #16
	asrs	r3, r3, #16
	ldr	r1, [r7, #28]
	lsls	r2, r2, #3
	adds	r2, r1, r2
	adds	r2, r2, #4
	strh	r3, [r2]
	.loc 1 384 0
	ldr	r3, [r7, #28]
	ldr	r4, [r3]
.LBB11:
	movs	r3, #26
	adds	r3, r7, r3
	ldr	r2, [r7, #4]
	ldrh	r2, [r2, #2]
	strh	r2, [r3]
	movs	r3, #24
	adds	r3, r7, r3
	ldr	r2, [r7]
	ldrh	r2, [r2, #2]
	strh	r2, [r3]
	movs	r3, #24
	adds	r3, r7, r3
	movs	r2, #26
	adds	r2, r7, r2
	ldrh	r0, [r2]
	ldrh	r1, [r3]
	lsls	r2, r1, #16
	asrs	r2, r2, #16
	lsls	r3, r0, #16
	asrs	r3, r3, #16
	cmp	r2, r3
	bge	.L107
	adds	r1, r0, #0
.L107:
	lsls	r3, r1, #16
	asrs	r3, r3, #16
.LBE11:
	lsls	r3, r3, #16
	asrs	r3, r3, #16
	ldr	r1, [r7, #28]
	lsls	r2, r4, #3
	adds	r2, r1, r2
	adds	r2, r2, #6
	strh	r3, [r2]
	.loc 1 385 0
	ldr	r3, [r7, #28]
	ldr	r3, [r3]
	ldr	r2, [r7, #4]
	movs	r1, #4
	ldrsh	r1, [r2, r1]
	ldr	r2, [r7, #28]
	lsls	r3, r3, #3
	adds	r3, r2, r3
	adds	r3, r3, #8
	adds	r2, r1, #0
	strh	r2, [r3]
	.loc 1 386 0
	ldr	r3, [r7, #28]
	ldr	r4, [r3]
.LBB12:
	movs	r3, #22
	adds	r3, r7, r3
	ldr	r2, [r7, #4]
	ldrh	r2, [r2, #6]
	strh	r2, [r3]
	movs	r3, #20
	adds	r3, r7, r3
	ldr	r2, [r7]
	ldrh	r2, [r2, #6]
	strh	r2, [r3]
	movs	r3, #20
	adds	r3, r7, r3
	movs	r2, #22
	adds	r2, r7, r2
	ldrh	r0, [r2]
	ldrh	r1, [r3]
	lsls	r2, r1, #16
	asrs	r2, r2, #16
	lsls	r3, r0, #16
	asrs	r3, r3, #16
	cmp	r2, r3
	ble	.L108
	adds	r1, r0, #0
.L108:
	lsls	r3, r1, #16
	asrs	r3, r3, #16
.LBE12:
	lsls	r3, r3, #16
	asrs	r3, r3, #16
	ldr	r1, [r7, #28]
	lsls	r2, r4, #3
	adds	r2, r1, r2
	adds	r2, r2, #10
	strh	r3, [r2]
	.loc 1 387 0
	ldr	r3, [r7, #28]
	ldr	r3, [r3]
	adds	r2, r3, #1
	ldr	r3, [r7, #28]
	str	r2, [r3]
.L106:
	.loc 1 389 0
	ldr	r3, [r7]
	movs	r2, #0
	ldrsh	r3, [r3, r2]
	movs	r2, r3
	ldr	r3, [r7, #4]
	movs	r1, #0
	ldrsh	r3, [r3, r1]
	subs	r3, r2, r3
	cmp	r3, #0
	ble	.L105
	.loc 1 392 0
	ldr	r3, [r7, #28]
	ldr	r3, [r3]
	ldr	r2, [r7, #4]
	movs	r1, #0
	ldrsh	r1, [r2, r1]
	ldr	r2, [r7, #28]
	lsls	r3, r3, #3
	adds	r3, r2, r3
	adds	r3, r3, #4
	adds	r2, r1, #0
	strh	r2, [r3]
	.loc 1 393 0
	ldr	r3, [r7, #28]
	ldr	r4, [r3]
.LBB13:
	movs	r3, #18
	adds	r3, r7, r3
	ldr	r2, [r7, #4]
	ldrh	r2, [r2, #2]
	strh	r2, [r3]
	movs	r3, #16
	adds	r3, r7, r3
	ldr	r2, [r7]
	ldrh	r2, [r2, #2]
	strh	r2, [r3]
	movs	r3, #16
	adds	r3, r7, r3
	movs	r2, #18
	adds	r2, r7, r2
	ldrh	r0, [r2]
	ldrh	r1, [r3]
	lsls	r2, r1, #16
	asrs	r2, r2, #16
	lsls	r3, r0, #16
	asrs	r3, r3, #16
	cmp	r2, r3
	bge	.L109
	adds	r1, r0, #0
.L109:
	lsls	r3, r1, #16
	asrs	r3, r3, #16
.LBE13:
	lsls	r3, r3, #16
	asrs	r3, r3, #16
	ldr	r1, [r7, #28]
	lsls	r2, r4, #3
	adds	r2, r1, r2
	adds	r2, r2, #6
	strh	r3, [r2]
	.loc 1 394 0
	ldr	r3, [r7, #28]
	ldr	r2, [r3]
	ldr	r3, [r7]
	movs	r1, #0
	ldrsh	r3, [r3, r1]
	lsls	r3, r3, #16
	lsrs	r3, r3, #16
	subs	r3, r3, #1
	lsls	r3, r3, #16
	lsrs	r3, r3, #16
	lsls	r3, r3, #16
	asrs	r3, r3, #16
	ldr	r1, [r7, #28]
	lsls	r2, r2, #3
	adds	r2, r1, r2
	adds	r2, r2, #8
	strh	r3, [r2]
	.loc 1 395 0
	ldr	r3, [r7, #28]
	ldr	r4, [r3]
.LBB14:
	movs	r3, #14
	adds	r3, r7, r3
	ldr	r2, [r7, #4]
	ldrh	r2, [r2, #6]
	strh	r2, [r3]
	movs	r3, #12
	adds	r3, r7, r3
	ldr	r2, [r7]
	ldrh	r2, [r2, #6]
	strh	r2, [r3]
	movs	r3, #12
	adds	r3, r7, r3
	movs	r2, #14
	adds	r2, r7, r2
	ldrh	r0, [r2]
	ldrh	r1, [r3]
	lsls	r2, r1, #16
	asrs	r2, r2, #16
	lsls	r3, r0, #16
	asrs	r3, r3, #16
	cmp	r2, r3
	ble	.L110
	adds	r1, r0, #0
.L110:
	lsls	r3, r1, #16
	asrs	r3, r3, #16
.LBE14:
	lsls	r3, r3, #16
	asrs	r3, r3, #16
	ldr	r1, [r7, #28]
	lsls	r2, r4, #3
	adds	r2, r1, r2
	adds	r2, r2, #10
	strh	r3, [r2]
	.loc 1 396 0
	ldr	r3, [r7, #28]
	ldr	r3, [r3]
	adds	r2, r3, #1
	ldr	r3, [r7, #28]
	str	r2, [r3]
.L105:
	.loc 1 399 0
	ldr	r3, [r7, #28]
.L99:
	.loc 1 400 0
	movs	r0, r3
	mov	sp, r7
	add	sp, sp, #36
	@ sp needed
	pop	{r4, r7, pc}
	.cfi_endproc
.LFE18:
	.size	GDI_SUBRectangles, .-GDI_SUBRectangles
	.section	.text.GDI_ADDRectToRegion,"ax",%progbits
	.align	2
	.global	GDI_ADDRectToRegion
	.code	16
	.thumb_func
	.type	GDI_ADDRectToRegion, %function
GDI_ADDRectToRegion:
.LFB19:
	.loc 1 403 0
	.cfi_startproc
	@ args = 0, pretend = 0, frame = 32
	@ frame_needed = 1, uses_anonymous_args = 0
	push	{r7, lr}
	.cfi_def_cfa_offset 8
	.cfi_offset 7, -8
	.cfi_offset 14, -4
	sub	sp, sp, #32
	.cfi_def_cfa_offset 40
	add	r7, sp, #0
	.cfi_def_cfa_register 7
	str	r0, [r7, #4]
	str	r1, [r7]
	.loc 1 407 0
	ldr	r3, [r7, #4]
	cmp	r3, #0
	beq	.L112
	.loc 1 407 0 discriminator 2
	ldr	r3, [r7]
	cmp	r3, #0
	bne	.L113
.L112:
	.loc 1 407 0 discriminator 3
	movs	r3, #0
	b	.L114
.L113:
	.loc 1 409 0
	ldr	r3, [r7, #4]
	movs	r0, r3
	bl	DL_GetItemsCount
	subs	r3, r0, #0
	beq	.L115
.LBB15:
	.loc 1 411 0
	ldr	r3, [r7, #4]
	movs	r0, r3
	bl	DL_GetFirstItem
	movs	r3, r0
	str	r3, [r7, #28]
	.loc 1 413 0
	b	.L116
.L123:
	.loc 1 415 0
	ldr	r3, [r7, #28]
	ldr	r3, [r3, #8]
	adds	r3, r3, #12
	str	r3, [r7, #20]
	.loc 1 417 0
	ldr	r2, [r7]
	ldr	r3, [r7, #20]
	movs	r1, r2
	movs	r0, r3
	bl	IsRectsOverlaps
	subs	r3, r0, #0
	beq	.L117
.LBB16:
	.loc 1 419 0
	ldr	r2, [r7]
	ldr	r3, [r7, #20]
	movs	r1, r2
	movs	r0, r3
	bl	GDI_SUBRectangles
	movs	r3, r0
	str	r3, [r7, #16]
	.loc 1 421 0
	ldr	r3, [r7, #16]
	cmp	r3, #0
	beq	.L117
	.loc 1 423 0
	ldr	r3, [r7, #16]
	ldr	r3, [r3]
	cmp	r3, #0
	beq	.L118
.LBB17:
	.loc 1 427 0
	ldr	r2, [r7, #20]
	ldr	r3, [r7, #16]
	movs	r0, r2
	adds	r3, r3, #4
	movs	r2, #8
	movs	r1, r3
	bl	memcpy
	.loc 1 429 0
	movs	r3, #1
	str	r3, [r7, #24]
	b	.L119
.L121:
	.loc 1 431 0
	movs	r0, #20
	bl	malloc
	movs	r3, r0
	str	r3, [r7, #8]
	ldr	r3, [r7, #8]
	cmp	r3, #0
	beq	.L120
	.loc 1 433 0
	ldr	r3, [r7, #8]
	ldr	r1, [r7, #16]
	ldr	r2, [r7, #24]
	lsls	r2, r2, #3
	movs	r0, #4
	adds	r2, r1, r2
	adds	r2, r2, r0
	adds	r3, r3, #12
	ldmia	r2!, {r0, r1}
	stmia	r3!, {r0, r1}
	.loc 1 434 0
	ldr	r2, [r7, #8]
	ldr	r1, [r7, #28]
	ldr	r3, [r7, #4]
	movs	r0, r3
	bl	DL_InsertItemBeforePtr
.L120:
	.loc 1 429 0 discriminator 2
	ldr	r3, [r7, #24]
	adds	r3, r3, #1
	str	r3, [r7, #24]
.L119:
	.loc 1 429 0 is_stmt 0 discriminator 1
	ldr	r3, [r7, #16]
	ldr	r2, [r3]
	ldr	r3, [r7, #24]
	cmp	r2, r3
	bhi	.L121
	b	.L126
.L118:
.LBE17:
.LBB18:
	.loc 1 440 0 is_stmt 1
	ldr	r3, [r7, #28]
	movs	r0, r3
	bl	DL_GetNextItem
	movs	r3, r0
	str	r3, [r7, #12]
	.loc 1 442 0
	ldr	r2, [r7, #28]
	ldr	r3, [r7, #4]
	movs	r1, r2
	movs	r0, r3
	bl	DL_DeleteItem
	.loc 1 444 0
	ldr	r3, [r7, #12]
	str	r3, [r7, #28]
	.loc 1 445 0
	ldr	r3, [r7, #16]
	movs	r0, r3
	bl	free
	.loc 1 446 0
	b	.L116
.L126:
.LBE18:
	.loc 1 448 0
	ldr	r3, [r7, #16]
	movs	r0, r3
	bl	free
.L117:
.LBE16:
	.loc 1 451 0
	ldr	r3, [r7, #28]
	movs	r0, r3
	bl	DL_GetNextItem
	movs	r3, r0
	str	r3, [r7, #28]
.L116:
	.loc 1 413 0
	ldr	r3, [r7, #28]
	cmp	r3, #0
	bne	.L123
.L115:
.LBE15:
	.loc 1 454 0
	movs	r0, #20
	bl	malloc
	movs	r3, r0
	str	r3, [r7, #8]
	.loc 1 455 0
	ldr	r3, [r7, #8]
	cmp	r3, #0
	beq	.L124
	.loc 1 457 0
	ldr	r3, [r7, #8]
	ldr	r2, [r7]
	adds	r3, r3, #12
	movs	r1, r2
	movs	r2, #8
	movs	r0, r3
	bl	memcpy
	.loc 1 458 0
	ldr	r2, [r7, #8]
	ldr	r3, [r7, #4]
	movs	r1, r2
	movs	r0, r3
	bl	DL_AddItemPtr
	subs	r3, r0, #0
	bne	.L125
	.loc 1 458 0 is_stmt 0 discriminator 1
	ldr	r3, [r7, #8]
	movs	r0, r3
	bl	free
	b	.L124
.L125:
	.loc 1 459 0 is_stmt 1
	movs	r3, #1
	b	.L114
.L124:
	.loc 1 461 0
	movs	r3, #0
.L114:
	.loc 1 462 0
	movs	r0, r3
	mov	sp, r7
	add	sp, sp, #32
	@ sp needed
	pop	{r7, pc}
	.cfi_endproc
.LFE19:
	.size	GDI_ADDRectToRegion, .-GDI_ADDRectToRegion
	.section	.text.GDI_SUBRectFromRegion,"ax",%progbits
	.align	2
	.global	GDI_SUBRectFromRegion
	.code	16
	.thumb_func
	.type	GDI_SUBRectFromRegion, %function
GDI_SUBRectFromRegion:
.LFB20:
	.loc 1 465 0
	.cfi_startproc
	@ args = 0, pretend = 0, frame = 32
	@ frame_needed = 1, uses_anonymous_args = 0
	push	{r7, lr}
	.cfi_def_cfa_offset 8
	.cfi_offset 7, -8
	.cfi_offset 14, -4
	sub	sp, sp, #32
	.cfi_def_cfa_offset 40
	add	r7, sp, #0
	.cfi_def_cfa_register 7
	str	r0, [r7, #4]
	str	r1, [r7]
	.loc 1 466 0
	ldr	r3, [r7, #4]
	cmp	r3, #0
	bne	.L128
	.loc 1 466 0 discriminator 1
	movs	r3, #0
	b	.L129
.L128:
	.loc 1 468 0
	ldr	r3, [r7, #4]
	movs	r0, r3
	bl	DL_GetItemsCount
	subs	r3, r0, #0
	bne	.LCB2536
	b	.L130	@long jump
.LCB2536:
	.loc 1 468 0 is_stmt 0 discriminator 1
	ldr	r3, [r7]
	cmp	r3, #0
	bne	.LCB2539
	b	.L130	@long jump
.LCB2539:
.LBB19:
	.loc 1 470 0 is_stmt 1
	ldr	r3, [r7, #4]
	movs	r0, r3
	bl	DL_GetFirstItem
	movs	r3, r0
	str	r3, [r7, #28]
	.loc 1 472 0
	b	.L131
.L138:
.LBB20:
	.loc 1 474 0
	ldr	r3, [r7, #28]
	ldr	r3, [r3, #8]
	adds	r3, r3, #12
	str	r3, [r7, #20]
	.loc 1 476 0
	ldr	r2, [r7]
	ldr	r3, [r7, #20]
	movs	r1, r2
	movs	r0, r3
	bl	IsRectsOverlaps
	subs	r3, r0, #0
	beq	.L132
.LBB21:
	.loc 1 478 0
	ldr	r2, [r7]
	ldr	r3, [r7, #20]
	movs	r1, r2
	movs	r0, r3
	bl	GDI_SUBRectangles
	movs	r3, r0
	str	r3, [r7, #16]
	.loc 1 480 0
	ldr	r3, [r7, #16]
	cmp	r3, #0
	beq	.L132
	.loc 1 482 0
	ldr	r3, [r7, #16]
	ldr	r3, [r3]
	cmp	r3, #0
	beq	.L133
.LBB22:
	.loc 1 486 0
	ldr	r2, [r7, #20]
	ldr	r3, [r7, #16]
	movs	r0, r2
	adds	r3, r3, #4
	movs	r2, #8
	movs	r1, r3
	bl	memcpy
	.loc 1 488 0
	movs	r3, #1
	str	r3, [r7, #24]
	b	.L134
.L136:
.LBB23:
	.loc 1 492 0
	movs	r0, #20
	bl	malloc
	movs	r3, r0
	str	r3, [r7, #8]
	ldr	r3, [r7, #8]
	cmp	r3, #0
	beq	.L135
	.loc 1 494 0
	ldr	r3, [r7, #8]
	ldr	r1, [r7, #16]
	ldr	r2, [r7, #24]
	lsls	r2, r2, #3
	movs	r0, #4
	adds	r2, r1, r2
	adds	r2, r2, r0
	adds	r3, r3, #12
	ldmia	r2!, {r0, r1}
	stmia	r3!, {r0, r1}
	.loc 1 495 0
	ldr	r2, [r7, #8]
	ldr	r1, [r7, #28]
	ldr	r3, [r7, #4]
	movs	r0, r3
	bl	DL_InsertItemBeforePtr
.L135:
.LBE23:
	.loc 1 488 0 discriminator 2
	ldr	r3, [r7, #24]
	adds	r3, r3, #1
	str	r3, [r7, #24]
.L134:
	.loc 1 488 0 is_stmt 0 discriminator 1
	ldr	r3, [r7, #16]
	ldr	r2, [r3]
	ldr	r3, [r7, #24]
	cmp	r2, r3
	bhi	.L136
	b	.L139
.L133:
.LBE22:
.LBB24:
	.loc 1 501 0 is_stmt 1
	ldr	r3, [r7, #28]
	movs	r0, r3
	bl	DL_GetNextItem
	movs	r3, r0
	str	r3, [r7, #12]
	.loc 1 503 0
	ldr	r2, [r7, #28]
	ldr	r3, [r7, #4]
	movs	r1, r2
	movs	r0, r3
	bl	DL_DeleteItem
	.loc 1 505 0
	ldr	r3, [r7, #12]
	str	r3, [r7, #28]
	.loc 1 506 0
	ldr	r3, [r7, #16]
	movs	r0, r3
	bl	free
	.loc 1 507 0
	b	.L131
.L139:
.LBE24:
	.loc 1 509 0
	ldr	r3, [r7, #16]
	movs	r0, r3
	bl	free
.L132:
.LBE21:
	.loc 1 512 0
	ldr	r3, [r7, #28]
	movs	r0, r3
	bl	DL_GetNextItem
	movs	r3, r0
	str	r3, [r7, #28]
.L131:
.LBE20:
	.loc 1 472 0
	ldr	r3, [r7, #28]
	cmp	r3, #0
	bne	.L138
	.loc 1 514 0
	ldr	r3, [r7, #4]
	movs	r0, r3
	bl	GDI_MergeRectsInRegion
.L130:
.LBE19:
	.loc 1 516 0
	ldr	r3, [r7, #4]
	movs	r0, r3
	bl	DL_GetItemsCount
	movs	r3, r0
	subs	r2, r3, #1
	sbcs	r3, r3, r2
	lsls	r3, r3, #24
	lsrs	r3, r3, #24
.L129:
	.loc 1 517 0
	movs	r0, r3
	mov	sp, r7
	add	sp, sp, #32
	@ sp needed
	pop	{r7, pc}
	.cfi_endproc
.LFE20:
	.size	GDI_SUBRectFromRegion, .-GDI_SUBRectFromRegion
	.section	.text.GDI_GetPixelPtr,"ax",%progbits
	.align	2
	.global	GDI_GetPixelPtr
	.code	16
	.thumb_func
	.type	GDI_GetPixelPtr, %function
GDI_GetPixelPtr:
.LFB21:
	.loc 1 520 0
	.cfi_startproc
	@ args = 0, pretend = 0, frame = 16
	@ frame_needed = 1, uses_anonymous_args = 0
	push	{r7, lr}
	.cfi_def_cfa_offset 8
	.cfi_offset 7, -8
	.cfi_offset 14, -4
	sub	sp, sp, #16
	.cfi_def_cfa_offset 24
	add	r7, sp, #0
	.cfi_def_cfa_register 7
	str	r0, [r7, #4]
	movs	r3, r7
	str	r1, [r3]
	.loc 1 521 0
	ldr	r3, [r7, #4]
	ldr	r3, [r3, #24]
	str	r3, [r7, #12]
	.loc 1 523 0
	movs	r3, r7
	movs	r2, #2
	ldrsh	r3, [r3, r2]
	movs	r2, r3
	ldr	r3, [r7, #4]
	movs	r1, #6
	ldrsh	r3, [r3, r1]
	movs	r1, r3
	ldr	r3, [r7, #4]
	movs	r0, #2
	ldrsh	r3, [r3, r0]
	subs	r3, r1, r3
	adds	r3, r3, #1
	muls	r3, r2
	movs	r2, r7
	movs	r1, #0
	ldrsh	r2, [r2, r1]
	adds	r3, r3, r2
	ldr	r2, [r7, #4]
	ldrb	r2, [r2, #20]
	muls	r3, r2
	movs	r2, r3
	ldr	r3, [r7, #12]
	adds	r3, r3, r2
	.loc 1 524 0
	movs	r0, r3
	mov	sp, r7
	add	sp, sp, #16
	@ sp needed
	pop	{r7, pc}
	.cfi_endproc
.LFE21:
	.size	GDI_GetPixelPtr, .-GDI_GetPixelPtr
	.section	.text.GDI_FillRectangleX,"ax",%progbits
	.align	2
	.global	GDI_FillRectangleX
	.code	16
	.thumb_func
	.type	GDI_FillRectangleX, %function
GDI_FillRectangleX:
.LFB22:
	.loc 1 527 0
	.cfi_startproc
	@ args = 0, pretend = 0, frame = 40
	@ frame_needed = 1, uses_anonymous_args = 0
	push	{r7, lr}
	.cfi_def_cfa_offset 8
	.cfi_offset 7, -8
	.cfi_offset 14, -4
	sub	sp, sp, #40
	.cfi_def_cfa_offset 48
	add	r7, sp, #0
	.cfi_def_cfa_register 7
	str	r0, [r7, #12]
	str	r1, [r7, #8]
	str	r2, [r7, #4]
	.loc 1 530 0
	ldr	r3, [r7, #12]
	cmp	r3, #0
	bne	.LCB2763
	b	.L159	@long jump
.LCB2763:
	.loc 1 530 0 discriminator 1
	ldr	r3, [r7, #8]
	cmp	r3, #0
	bne	.LCB2766
	b	.L159	@long jump
.LCB2766:
	.loc 1 530 0 discriminator 2
	ldr	r3, [r7, #12]
	ldr	r3, [r3, #24]
	cmp	r3, #0
	bne	.LCB2770
	b	.L159	@long jump
.LCB2770:
	.loc 1 532 0
	ldr	r3, [r7, #12]
	movs	r2, #6
	ldrsh	r3, [r3, r2]
	movs	r2, r3
	ldr	r3, [r7, #8]
	movs	r1, #4
	ldrsh	r3, [r3, r1]
	movs	r1, r3
	ldr	r3, [r7, #8]
	movs	r0, #0
	ldrsh	r3, [r3, r0]
	subs	r3, r1, r3
	subs	r3, r2, r3
	str	r3, [r7, #20]
	.loc 1 534 0
	ldr	r3, [r7, #12]
	ldrb	r3, [r3, #21]
	cmp	r3, #1
	beq	.L147
	bge	.LCB2787
	b	.L160	@long jump
.LCB2787:
	subs	r3, r3, #4
	cmp	r3, #2
	bls	.LCB2790
	b	.L160	@long jump
.LCB2790:
	b	.L158
.L147:
.LBB25:
	.loc 1 538 0
	ldr	r3, [r7, #8]
	ldr	r0, [r7, #12]
	ldrh	r2, [r3]
	ldrh	r3, [r3, #2]
	lsls	r3, r3, #16
	orrs	r3, r2
	movs	r2, #0
	movs	r2, r3
	movs	r1, r2
	bl	GDI_GetPixelPtr
	movs	r3, r0
	str	r3, [r7, #28]
	.loc 1 540 0
	ldr	r3, [r7, #4]
	lsrs	r2, r3, #8
	movs	r3, #248
	lsls	r3, r3, #8
	ands	r2, r3
	ldr	r3, [r7, #4]
	lsrs	r1, r3, #5
	movs	r3, #252
	lsls	r3, r3, #3
	ands	r3, r1
	orrs	r2, r3
	ldr	r3, [r7, #4]
	lsrs	r3, r3, #3
	movs	r1, #31
	ands	r3, r1
	orrs	r3, r2
	str	r3, [r7, #4]
	.loc 1 541 0
	ldr	r3, [r7, #8]
	movs	r2, #2
	ldrsh	r3, [r3, r2]
	str	r3, [r7, #32]
	b	.L149
.L152:
	.loc 1 543 0
	ldr	r3, [r7, #8]
	movs	r2, #0
	ldrsh	r3, [r3, r2]
	str	r3, [r7, #36]
	b	.L150
.L151:
	.loc 1 543 0 is_stmt 0 discriminator 3
	ldr	r3, [r7, #28]
	adds	r2, r3, #2
	str	r2, [r7, #28]
	ldr	r2, [r7, #4]
	lsls	r2, r2, #16
	lsrs	r2, r2, #16
	strh	r2, [r3]
	ldr	r3, [r7, #36]
	adds	r3, r3, #1
	str	r3, [r7, #36]
.L150:
	.loc 1 543 0 discriminator 1
	ldr	r3, [r7, #8]
	movs	r2, #4
	ldrsh	r3, [r3, r2]
	movs	r2, r3
	ldr	r3, [r7, #36]
	cmp	r2, r3
	bge	.L151
	.loc 1 544 0 is_stmt 1 discriminator 2
	ldr	r3, [r7, #20]
	lsls	r3, r3, #1
	ldr	r2, [r7, #28]
	adds	r3, r2, r3
	str	r3, [r7, #28]
	.loc 1 541 0 discriminator 2
	ldr	r3, [r7, #32]
	adds	r3, r3, #1
	str	r3, [r7, #32]
.L149:
	.loc 1 541 0 is_stmt 0 discriminator 1
	ldr	r3, [r7, #8]
	movs	r2, #6
	ldrsh	r3, [r3, r2]
	movs	r2, r3
	ldr	r3, [r7, #32]
	cmp	r2, r3
	bge	.L152
.LBE25:
	.loc 1 547 0 is_stmt 1
	b	.L153
.L158:
.LBB26:
	.loc 1 552 0
	ldr	r3, [r7, #8]
	ldr	r0, [r7, #12]
	ldrh	r2, [r3]
	ldrh	r3, [r3, #2]
	lsls	r3, r3, #16
	orrs	r3, r2
	movs	r2, #0
	movs	r2, r3
	movs	r1, r2
	bl	GDI_GetPixelPtr
	movs	r3, r0
	str	r3, [r7, #24]
	.loc 1 554 0
	ldr	r3, [r7, #8]
	movs	r2, #2
	ldrsh	r3, [r3, r2]
	str	r3, [r7, #32]
	b	.L154
.L157:
	.loc 1 556 0
	ldr	r3, [r7, #8]
	movs	r2, #0
	ldrsh	r3, [r3, r2]
	str	r3, [r7, #36]
	b	.L155
.L156:
	.loc 1 556 0 is_stmt 0 discriminator 3
	ldr	r3, [r7, #24]
	adds	r2, r3, #4
	str	r2, [r7, #24]
	ldr	r2, [r7, #4]
	str	r2, [r3]
	ldr	r3, [r7, #36]
	adds	r3, r3, #1
	str	r3, [r7, #36]
.L155:
	.loc 1 556 0 discriminator 1
	ldr	r3, [r7, #8]
	movs	r2, #4
	ldrsh	r3, [r3, r2]
	movs	r2, r3
	ldr	r3, [r7, #36]
	cmp	r2, r3
	bge	.L156
	.loc 1 557 0 is_stmt 1 discriminator 2
	ldr	r3, [r7, #20]
	lsls	r3, r3, #2
	ldr	r2, [r7, #24]
	adds	r3, r2, r3
	str	r3, [r7, #24]
	.loc 1 554 0 discriminator 2
	ldr	r3, [r7, #32]
	adds	r3, r3, #1
	str	r3, [r7, #32]
.L154:
	.loc 1 554 0 is_stmt 0 discriminator 1
	ldr	r3, [r7, #8]
	movs	r2, #6
	ldrsh	r3, [r3, r2]
	movs	r2, r3
	ldr	r3, [r7, #32]
	cmp	r2, r3
	bge	.L157
.LBE26:
	.loc 1 560 0 is_stmt 1
	b	.L153
.L160:
	.loc 1 562 0
	nop
.L153:
	.loc 1 564 0 discriminator 2
	nop
	b	.L142
.L159:
	.loc 1 530 0
	nop
.L142:
	.loc 1 565 0
	mov	sp, r7
	add	sp, sp, #40
	@ sp needed
	pop	{r7, pc}
	.cfi_endproc
.LFE22:
	.size	GDI_FillRectangleX, .-GDI_FillRectangleX
	.text
.Letext0:
	.file 2 "d:\\1.11\\share\\em_armgcc\\arm-none-eabi\\include\\machine\\_default_types.h"
	.file 3 "d:\\1.11\\share\\em_armgcc\\arm-none-eabi\\include\\sys\\_stdint.h"
	.file 4 ".\\Source/systypes.h"
	.file 5 ".\\Source\\System/dlist.h"
	.file 6 ".\\Source\\GUI/gditypes.h"
	.file 7 ".\\Source\\Lib\\MT6261/drivers\\lcdif.h"
	.file 8 ".\\Source\\GUI/guiobject.h"
	.file 9 ".\\Source\\GUI/guiwin.h"