	.syntax unified
	.cpu arm9e
	.fpu softvfp
	.eabi_attribute 20, 1
	.eabi_attribute 21, 1
	.eabi_attribute 23, 3
	.eabi_attribute 24, 1
	.eabi_attribute 25, 1
	.eabi_attribute 26, 1
	.eabi_attribute 30, 6
	.eabi_attribute 34, 0
	.eabi_attribute 18, 4
	.thumb
	.syntax unified
	.file	"gui.c"
	.text
.Ltext0:
	.cfi_sections	.debug_frame
	.comm	GUILocked,1,1
	.section	.text.GUI_IsObjectVisibleAcrossParents,"ax",%progbits
	.align	2
	.code	16
	.thumb_func
	.type	GUI_IsObjectVisibleAcrossParents, %function
GUI_IsObjectVisibleAcrossParents:
.LFB1:
	.file 1 "Source\\GUI\\gui.c"
	.loc 1 27 0
	.cfi_startproc
	@ args = 0, pretend = 0, frame = 32
	@ frame_needed = 1, uses_anonymous_args = 0
	push	{r4, r7, lr}
	.cfi_def_cfa_offset 12
	.cfi_offset 4, -12
	.cfi_offset 7, -8
	.cfi_offset 14, -4
	sub	sp, sp, #36
	.cfi_def_cfa_offset 48
	add	r7, sp, #0
	.cfi_def_cfa_register 7
	str	r0, [r7, #12]
	.loc 1 28 0
	movs	r3, #31
	adds	r3, r7, r3
	movs	r2, #0
	strb	r2, [r3]
	.loc 1 31 0
	ldr	r3, [r7, #12]
	cmp	r3, #0
	beq	.L2
	.loc 1 31 0 discriminator 1
	ldr	r3, [r7, #12]
	ldr	r3, [r3]
	str	r3, [r7, #24]
	ldr	r3, [r7, #24]
	cmp	r3, #0
	beq	.L2
.LBB2:
	.loc 1 35 0
	ldr	r3, [r7, #24]
	ldr	r3, [r3, #20]
	cmp	r3, #0
	bne	.L3
	.loc 1 38 0
	ldr	r3, [r7, #12]
	adds	r2, r3, #4
	ldr	r3, [r7, #24]
	adds	r3, r3, #12
	movs	r1, r3
	movs	r0, r2
	bl	GDI_ANDRectangles
	subs	r3, r0, #0
	beq	.L4
	.loc 1 39 0 discriminator 1
	ldr	r3, [r7, #24]
	ldr	r3, [r3, #20]
	.loc 1 38 0 discriminator 1
	cmp	r3, #0
	bne	.L5
	.loc 1 39 0
	ldr	r3, [r7, #24]
	movs	r0, r3
	bl	GUI_IsWindowObject
	subs	r3, r0, #0
	beq	.L4
.L5:
	.loc 1 38 0 discriminator 3
	movs	r2, #1
	b	.L6
.L4:
	.loc 1 38 0 is_stmt 0 discriminator 2
	movs	r2, #0
.L6:
	.loc 1 38 0 discriminator 5
	movs	r3, #31
	adds	r3, r7, r3
	strb	r2, [r3]
	b	.L8
.L3:
	.loc 1 41 0 is_stmt 1
	movs	r3, #31
	adds	r3, r7, r3
	movs	r2, #1
	strb	r2, [r3]
	.loc 1 43 0
	b	.L8
.L12:
	.loc 1 45 0
	ldr	r3, [r7, #24]
	ldr	r2, [r3, #20]
	movs	r3, #16
	adds	r4, r7, r3
	movs	r3, r7
	movs	r1, r2
	movs	r0, r3
	bl	GUI_CalculateClientArea
	movs	r3, r7
	movs	r0, r4
	movs	r1, r3
	movs	r3, #8
	movs	r2, r3
	bl	memcpy
	.loc 1 47 0
	ldr	r3, [r7, #12]
	adds	r3, r3, #4
	movs	r2, #16
	adds	r2, r7, r2
	movs	r1, r2
	movs	r0, r3
	bl	GDI_ANDRectangles
	subs	r3, r0, #0
	beq	.L9
	.loc 1 48 0 discriminator 1
	ldr	r3, [r7, #24]
	ldr	r3, [r3, #20]
	movs	r0, r3
	bl	GUI_IsWindowObject
	subs	r3, r0, #0
	.loc 1 47 0 discriminator 1
	beq	.L9
	.loc 1 47 0 is_stmt 0 discriminator 3
	movs	r2, #1
	b	.L10
.L9:
	.loc 1 47 0 discriminator 4
	movs	r2, #0
.L10:
	.loc 1 47 0 discriminator 6
	movs	r3, #31
	adds	r3, r7, r3
	strb	r2, [r3]
	.loc 1 49 0 is_stmt 1 discriminator 6
	ldr	r3, [r7, #24]
	ldr	r3, [r3, #20]
	str	r3, [r7, #24]
.L8:
	.loc 1 43 0
	movs	r3, #31
	adds	r3, r7, r3
	ldrb	r3, [r3]
	cmp	r3, #0
	beq	.L2
	.loc 1 43 0 is_stmt 0 discriminator 1
	ldr	r3, [r7, #24]
	ldr	r3, [r3, #20]
	cmp	r3, #0
	bne	.L12
.L2:
.LBE2:
	.loc 1 52 0 is_stmt 1
	movs	r3, #31
	adds	r3, r7, r3
	ldrb	r3, [r3]
	.loc 1 53 0
	movs	r0, r3
	mov	sp, r7
	add	sp, sp, #36
	@ sp needed
	pop	{r4, r7, pc}
	.cfi_endproc
.LFE1:
	.size	GUI_IsObjectVisibleAcrossParents, .-GUI_IsObjectVisibleAcrossParents
	.section	.text.GUI_SubTopChildObjectsFromRegion,"ax",%progbits
	.align	2
	.code	16
	.thumb_func
	.type	GUI_SubTopChildObjectsFromRegion, %function
GUI_SubTopChildObjectsFromRegion:
.LFB2:
	.loc 1 56 0
	.cfi_startproc
	@ args = 0, pretend = 0, frame = 24
	@ frame_needed = 1, uses_anonymous_args = 0
	push	{r7, lr}
	.cfi_def_cfa_offset 8
	.cfi_offset 7, -8
	.cfi_offset 14, -4
	sub	sp, sp, #24
	.cfi_def_cfa_offset 32
	add	r7, sp, #0
	.cfi_def_cfa_register 7
	str	r0, [r7, #4]
	str	r1, [r7]
	.loc 1 57 0
	ldr	r3, [r7]
	ldr	r3, [r3, #20]
	cmp	r3, #0
	beq	.L15
.LBB3:
	.loc 1 59 0
	ldr	r3, [r7]
	ldr	r3, [r3, #20]
	adds	r3, r3, #68
	str	r3, [r7, #16]
	.loc 1 60 0
	ldr	r3, [r7, #16]
	movs	r0, r3
	bl	DL_GetLastItem
	movs	r3, r0
	str	r3, [r7, #20]
	.loc 1 63 0
	b	.L16
.L19:
.LBB4:
	.loc 1 65 0
	ldr	r3, [r7, #20]
	ldr	r3, [r3, #8]
	str	r3, [r7, #12]
	.loc 1 67 0
	ldr	r2, [r7, #12]
	ldr	r3, [r7]
	cmp	r2, r3
	beq	.L21
	.loc 1 69 0
	ldr	r3, [r7, #12]
	cmp	r3, #0
	beq	.L18
	.loc 1 69 0 discriminator 1
	ldr	r3, [r7, #12]
	ldrb	r3, [r3, #26]
	cmp	r3, #0
	beq	.L18
	.loc 1 71 0
	ldr	r3, [r7, #12]
	adds	r3, r3, #12
	movs	r2, r3
	ldr	r3, [r7, #4]
	movs	r1, r2
	movs	r0, r3
	bl	GDI_SUBRectFromRegion
	subs	r3, r0, #0
	beq	.L22
.L18:
	.loc 1 73 0
	ldr	r3, [r7, #20]
	movs	r0, r3
	bl	DL_GetPrevItem
	movs	r3, r0
	str	r3, [r7, #20]
.L16:
.LBE4:
	.loc 1 63 0
	ldr	r3, [r7, #20]
	cmp	r3, #0
	beq	.L15
	.loc 1 63 0 discriminator 1
	ldr	r3, [r7, #4]
	movs	r0, r3
	bl	DL_GetItemsCount
	subs	r3, r0, #0
	bne	.L19
	b	.L15
.L21:
.LBB5:
	.loc 1 67 0
	nop
	b	.L15
.L22:
	.loc 1 71 0
	nop
.L15:
.LBE5:
.LBE3:
	.loc 1 76 0
	ldr	r3, [r7, #4]
	movs	r0, r3
	bl	DL_GetItemsCount
	movs	r3, r0
	subs	r2, r3, #1
	sbcs	r3, r3, r2
	lsls	r3, r3, #24
	lsrs	r3, r3, #24
	.loc 1 77 0
	movs	r0, r3
	mov	sp, r7
	add	sp, sp, #24
	@ sp needed
	pop	{r7, pc}
	.cfi_endproc
.LFE2:
	.size	GUI_SubTopChildObjectsFromRegion, .-GUI_SubTopChildObjectsFromRegion
	.section	.text.GUI_UpdateObjectByRegion,"ax",%progbits
	.align	2
	.code	16
	.thumb_func
	.type	GUI_UpdateObjectByRegion, %function
GUI_UpdateObjectByRegion:
.LFB3:
	.loc 1 80 0
	.cfi_startproc
	@ args = 0, pretend = 0, frame = 40
	@ frame_needed = 1, uses_anonymous_args = 0
	push	{r4, r7, lr}
	.cfi_def_cfa_offset 12
	.cfi_offset 4, -12
	.cfi_offset 7, -8
	.cfi_offset 14, -4
	sub	sp, sp, #44
	.cfi_def_cfa_offset 56
	add	r7, sp, #0
	.cfi_def_cfa_register 7
	str	r0, [r7, #20]
	str	r1, [r7, #16]
	str	r2, [r7, #12]
	.loc 1 81 0
	ldr	r3, [r7, #20]
	movs	r0, r3
	bl	DL_GetFirstItem
	movs	r3, r0
	str	r3, [r7, #36]
	.loc 1 84 0
	ldr	r3, [r7, #16]
	movs	r0, r3
	bl	GUI_IsWindowObject
	subs	r3, r0, #0
	beq	.L24
	.loc 1 84 0 is_stmt 0 discriminator 1
	ldr	r3, [r7, #16]
	movs	r2, #62
	ldrb	r3, [r3, r2]
	b	.L25
.L24:
	.loc 1 85 0 is_stmt 1 discriminator 2
	ldr	r3, [r7, #16]
	ldr	r3, [r3, #20]
	.loc 1 84 0 discriminator 2
	movs	r2, #62
	ldrb	r3, [r3, r2]
.L25:
	.loc 1 84 0 is_stmt 0 discriminator 4
	movs	r2, #35
	adds	r2, r7, r2
	strb	r3, [r2]
	.loc 1 87 0 is_stmt 1 discriminator 4
	b	.L26
.L31:
	.loc 1 89 0
	ldr	r3, [r7, #36]
	ldr	r3, [r3, #8]
	cmp	r3, #0
	beq	.L27
.LBB6:
	.loc 1 91 0
	ldr	r3, [r7, #36]
	ldr	r3, [r3, #8]
	movs	r2, #24
	adds	r2, r7, r2
	adds	r3, r3, #12
	ldmia	r3!, {r0, r1}
	stmia	r2!, {r0, r1}
	.loc 1 93 0
	ldr	r2, [r7, #12]
	movs	r3, #24
	adds	r3, r7, r3
	movs	r1, r2
	movs	r0, r3
	bl	GDI_ANDRectangles
	subs	r3, r0, #0
	beq	.L27
	.loc 1 95 0
	ldr	r3, [r7, #16]
	ldr	r3, [r3, #52]
	cmp	r3, #0
	beq	.L29
	.loc 1 95 0 discriminator 1
	ldr	r3, [r7, #16]
	ldr	r3, [r3, #52]
	movs	r2, #24
	adds	r1, r7, r2
	ldr	r2, [r7, #16]
	movs	r0, r2
	blx	r3
	b	.L30
.L29:
	.loc 1 96 0
	movs	r3, #24
	adds	r2, r7, r3
	ldr	r3, [r7, #16]
	movs	r1, r2
	movs	r0, r3
	bl	GUI_DrawObjectDefault
.L30:
	.loc 1 98 0
	movs	r3, #35
	adds	r3, r7, r3
	ldrb	r2, [r3]
	movs	r3, r2
	lsls	r3, r3, #3
	subs	r3, r3, r2
	lsls	r3, r3, #2
	adds	r3, r3, #32
	movs	r2, r3
	ldr	r3, .L32
	adds	r3, r2, r3
	adds	r2, r3, #2
	movs	r3, #24
	adds	r4, r7, r3
	movs	r3, r7
	movs	r1, #24
	adds	r1, r7, r1
	movs	r0, r3
	bl	GDI_LocalToGlobalRct
	movs	r3, r7
	movs	r0, r4
	movs	r1, r3
	movs	r3, #8
	movs	r2, r3
	bl	memcpy
	.loc 1 99 0
	movs	r3, #24
	adds	r4, r7, r3
	movs	r3, r7
	ldr	r2, .L32+4
	movs	r1, #24
	adds	r1, r7, r1
	movs	r0, r3
	bl	GDI_GlobalToLocalRct
	movs	r3, r7
	movs	r0, r4
	movs	r1, r3
	movs	r3, #8
	movs	r2, r3
	bl	memcpy
	.loc 1 100 0
	movs	r3, #24
	adds	r3, r7, r3
	ldr	r0, [r3]
	ldr	r1, [r3, #4]
	bl	LCDIF_UpdateRectangle
.L27:
.LBE6:
	.loc 1 103 0
	ldr	r3, [r7, #36]
	movs	r0, r3
	bl	DL_GetNextItem
	movs	r3, r0
	str	r3, [r7, #36]
.L26:
	.loc 1 87 0
	ldr	r3, [r7, #36]
	cmp	r3, #0
	bne	.L31
	.loc 1 105 0
	nop
	mov	sp, r7
	add	sp, sp, #44
	@ sp needed
	pop	{r4, r7, pc}
.L33:
	.align	2
.L32:
	.word	LCDScreen
	.word	LCDScreen+8
	.cfi_endproc
.LFE3:
	.size	GUI_UpdateObjectByRegion, .-GUI_UpdateObjectByRegion
	.section	.text.GUI_UpdateChildTree,"ax",%progbits
	.align	2
	.code	16
	.thumb_func
	.type	GUI_UpdateChildTree, %function
GUI_UpdateChildTree:
.LFB4:
	.loc 1 108 0
	.cfi_startproc
	@ args = 0, pretend = 0, frame = 40
	@ frame_needed = 1, uses_anonymous_args = 0
	push	{r7, lr}
	.cfi_def_cfa_offset 8
	.cfi_offset 7, -8
	.cfi_offset 14, -4
	sub	sp, sp, #40
	.cfi_def_cfa_offset 48
	add	r7, sp, #0
	.cfi_def_cfa_register 7
	str	r0, [r7, #12]
	str	r1, [r7, #8]
	str	r2, [r7, #4]
	.loc 1 109 0
	ldr	r3, [r7, #8]
	adds	r3, r3, #68
	movs	r0, r3
	bl	DL_GetLastItem
	movs	r3, r0
	str	r3, [r7, #36]
	.loc 1 111 0
	movs	r3, #24
	adds	r3, r7, r3
	ldr	r2, [r7, #8]
	movs	r1, r2
	movs	r0, r3
	bl	GUI_CalculateClientArea
	.loc 1 113 0
	b	.L35
.L42:
.LBB7:
	.loc 1 115 0
	movs	r3, #16
	adds	r2, r7, r3
	ldr	r3, [r7, #32]
	adds	r3, r3, #12
	ldmia	r3!, {r0, r1}
	stmia	r2!, {r0, r1}
	.loc 1 117 0
	ldr	r3, [r7, #32]
	ldrb	r3, [r3, #26]
	cmp	r3, #0
	beq	.L36
	.loc 1 117 0 is_stmt 0 discriminator 1
	movs	r3, #24
	adds	r2, r7, r3
	movs	r3, #16
	adds	r3, r7, r3
	movs	r1, r2
	movs	r0, r3
	bl	GDI_ANDRectangles
	subs	r3, r0, #0
	beq	.L36
	.loc 1 119 0 is_stmt 1
	ldr	r3, [r7, #32]
	movs	r0, r3
	bl	GUI_IsWindowObject
	subs	r3, r0, #0
	beq	.L37
	.loc 1 121 0
	movs	r3, #16
	adds	r2, r7, r3
	ldr	r1, [r7, #32]
	ldr	r3, [r7, #12]
	movs	r0, r3
	bl	GUI_UpdateChildTree
	subs	r3, r0, #0
	bne	.L38
	b	.L41
.L37:
	.loc 1 123 0
	movs	r3, #16
	adds	r2, r7, r3
	ldr	r1, [r7, #32]
	ldr	r3, [r7, #12]
	movs	r0, r3
	bl	GUI_UpdateObjectByRegion
.L38:
	.loc 1 124 0
	movs	r3, #16
	adds	r2, r7, r3
	ldr	r3, [r7, #12]
	movs	r1, r2
	movs	r0, r3
	bl	GDI_SUBRectFromRegion
.L36:
	.loc 1 126 0
	ldr	r3, [r7, #12]
	movs	r0, r3
	bl	DL_GetItemsCount
	subs	r3, r0, #0
	beq	.L44
	.loc 1 127 0
	ldr	r3, [r7, #36]
	movs	r0, r3
	bl	DL_GetPrevItem
	movs	r3, r0
	str	r3, [r7, #36]
.L35:
.LBE7:
	.loc 1 113 0
	ldr	r3, [r7, #36]
	cmp	r3, #0
	beq	.L41
	.loc 1 113 0 discriminator 1
	ldr	r3, [r7, #36]
	ldr	r3, [r3, #8]
	str	r3, [r7, #32]
	ldr	r3, [r7, #32]
	cmp	r3, #0
	bne	.L42
	b	.L41
.L44:
.LBB8:
	.loc 1 126 0
	nop
.L41:
.LBE8:
	.loc 1 129 0
	ldr	r2, [r7, #4]
	ldr	r1, [r7, #8]
	ldr	r3, [r7, #12]
	movs	r0, r3
	bl	GUI_UpdateObjectByRegion
	.loc 1 131 0
	ldr	r3, [r7, #12]
	movs	r0, r3
	bl	DL_GetItemsCount
	movs	r3, r0
	subs	r2, r3, #1
	sbcs	r3, r3, r2
	lsls	r3, r3, #24
	lsrs	r3, r3, #24
	.loc 1 132 0
	movs	r0, r3
	mov	sp, r7
	add	sp, sp, #40
	@ sp needed
	pop	{r7, pc}
	.cfi_endproc
.LFE4:
	.size	GUI_UpdateChildTree, .-GUI_UpdateChildTree
	.section	.text.GUI_DestroySingleObject,"ax",%progbits
	.align	2
	.code	16
	.thumb_func
	.type	GUI_DestroySingleObject, %function
GUI_DestroySingleObject:
.LFB5:
	.loc 1 135 0
	.cfi_startproc
	@ args = 0, pretend = 0, frame = 32
	@ frame_needed = 1, uses_anonymous_args = 0
	push	{r7, lr}
	.cfi_def_cfa_offset 8
	.cfi_offset 7, -8
	.cfi_offset 14, -4
	sub	sp, sp, #48
	.cfi_def_cfa_offset 56
	add	r7, sp, #16
	.cfi_def_cfa 7, 40
	str	r0, [r7, #4]
	.loc 1 138 0
	ldr	r3, [r7, #4]
	ldr	r3, [r3, #20]
	cmp	r3, #0
	beq	.L46
.LBB9:
	.loc 1 140 0
	ldr	r3, [r7, #4]
	ldr	r3, [r3, #20]
	adds	r3, r3, #68
	str	r3, [r7, #28]
	.loc 1 141 0
	ldr	r1, [r7, #4]
	ldr	r3, [r7, #28]
	movs	r2, #0
	movs	r0, r3
	bl	DL_FindItemByData
	movs	r3, r0
	str	r3, [r7, #24]
	.loc 1 143 0
	ldr	r3, [r7, #24]
	cmp	r3, #0
	bne	.LCB594
	b	.L50	@long jump
.LCB594:
.LBB10:
	.loc 1 153 0
	ldr	r3, [r7, #4]
	ldr	r3, [r3, #56]
	cmp	r3, #0
	beq	.L48
	.loc 1 153 0 discriminator 1
	ldr	r3, [r7, #4]
	ldr	r3, [r3, #56]
	ldr	r2, [r7, #4]
	movs	r0, r2
	blx	r3
.L48:
	.loc 1 154 0
	ldr	r3, [r7, #4]
	ldrb	r3, [r3, #24]
	movs	r2, r3
	ldr	r3, .L53
	lsls	r2, r2, #2
	ldr	r3, [r2, r3]
	cmp	r3, #0
	beq	.L49
	.loc 1 155 0
	ldr	r3, [r7, #4]
	ldrb	r3, [r3, #24]
	movs	r2, r3
	ldr	r3, .L53
	lsls	r2, r2, #2
	ldr	r3, [r2, r3]
	ldr	r2, [r7, #4]
	movs	r0, r2
	blx	r3
.L49:
	.loc 1 157 0
	bl	__disable_interrupts
	movs	r3, r0
	str	r3, [r7, #20]
	.loc 1 158 0
	ldr	r2, [r7, #24]
	ldr	r3, [r7, #28]
	movs	r1, r2
	movs	r0, r3
	bl	DL_DeleteItem
	.loc 1 159 0
	ldr	r3, [r7, #4]
	movs	r2, #60
	movs	r1, #0
	movs	r0, r3
	bl	__secure_memset
	.loc 1 160 0
	movs	r3, #0
	str	r3, [r7, #4]
	.loc 1 162 0
	ldr	r3, [r7, #20]
	movs	r0, r3
	bl	__restore_interrupts
	b	.L50
.L46:
.LBE10:
.LBE9:
	.loc 1 165 0
	ldr	r3, [r7, #4]
	movs	r0, r3
	bl	GUI_IsWindowObject
	subs	r3, r0, #0
	beq	.L50
.LBB11:
	.loc 1 167 0
	movs	r3, #19
	adds	r3, r7, r3
	ldr	r2, [r7, #4]
	movs	r1, #62
	ldrb	r2, [r2, r1]
	strb	r2, [r3]
	.loc 1 169 0
	movs	r3, #19
	adds	r3, r7, r3
	ldrb	r3, [r3]
	cmp	r3, #3
	bhi	.L50
	.loc 1 171 0
	ldr	r3, [r7, #4]
	movs	r1, #0
	movs	r0, r3
	bl	GUI_SetObjectVisibility
	.loc 1 173 0
	ldr	r3, [r7, #4]
	ldr	r3, [r3, #56]
	cmp	r3, #0
	beq	.L51
	.loc 1 173 0 discriminator 1
	ldr	r3, [r7, #4]
	ldr	r3, [r3, #56]
	ldr	r2, [r7, #4]
	movs	r0, r2
	blx	r3
.L51:
	.loc 1 175 0
	bl	__disable_interrupts
	movs	r3, r0
	str	r3, [r7, #20]
	.loc 1 176 0
	movs	r1, #0
	movs	r0, #0
	bl	Point
	movs	r3, r0
	movs	r2, r3
	movs	r3, #12
	adds	r3, r7, r3
	str	r2, [r3]
	movs	r3, #12
	adds	r1, r7, r3
	movs	r3, #19
	adds	r3, r7, r3
	ldrb	r0, [r3]
	movs	r3, #0
	str	r3, [sp, #8]
	movs	r3, #0
	str	r3, [sp, #4]
	movs	r3, #0
	str	r3, [sp]
	movs	r3, #0
	movs	r2, #0
	ldr	r1, [r1]
	bl	LCDIF_SetupLayer
	.loc 1 177 0
	ldr	r3, [r7, #4]
	movs	r2, #60
	movs	r1, #0
	movs	r0, r3
	bl	__secure_memset
	.loc 1 178 0
	ldr	r3, [r7, #4]
	movs	r0, r3
	bl	free
	.loc 1 179 0
	movs	r3, #19
	adds	r3, r7, r3
	ldrb	r2, [r3]
	movs	r3, #0
	str	r3, [r7, #4]
	ldr	r3, .L53+4
	lsls	r2, r2, #2
	ldr	r1, [r7, #4]
	str	r1, [r2, r3]
	.loc 1 181 0
	ldr	r3, [r7, #20]
	movs	r0, r3
	bl	__restore_interrupts
.L50:
.LBE11:
	.loc 1 184 0
	ldr	r3, [r7, #4]
	.loc 1 185 0
	movs	r0, r3
	mov	sp, r7
	add	sp, sp, #32
	@ sp needed
	pop	{r7, pc}
.L54:
	.align	2
.L53:
	.word	DestroyObject.7531
	.word	GUILayer
	.cfi_endproc
.LFE5:
	.size	GUI_DestroySingleObject, .-GUI_DestroySingleObject
	.section	.text.GUI_DestroyChildTree,"ax",%progbits
	.align	2
	.code	16
	.thumb_func
	.type	GUI_DestroyChildTree, %function
GUI_DestroyChildTree:
.LFB6:
	.loc 1 188 0
	.cfi_startproc
	@ args = 0, pretend = 0, frame = 24
	@ frame_needed = 1, uses_anonymous_args = 0
	push	{r7, lr}
	.cfi_def_cfa_offset 8
	.cfi_offset 7, -8
	.cfi_offset 14, -4
	sub	sp, sp, #24
	.cfi_def_cfa_offset 32
	add	r7, sp, #0
	.cfi_def_cfa_register 7
	str	r0, [r7, #4]
	.loc 1 189 0
	ldr	r3, [r7, #4]
	adds	r3, r3, #68
	str	r3, [r7, #20]
	.loc 1 199 0
	b	.L56
.L60:
.LBB12:
	.loc 1 201 0
	ldr	r3, [r7, #16]
	ldr	r3, [r3, #8]
	str	r3, [r7, #12]
	.loc 1 204 0
	ldr	r3, [r7, #12]
	movs	r0, r3
	bl	GUI_IsWindowObject
	subs	r3, r0, #0
	beq	.L57
	.loc 1 204 0 is_stmt 0 discriminator 1
	ldr	r3, [r7, #12]
	movs	r0, r3
	bl	GUI_DestroyChildTree
.L57:
	.loc 1 206 0 is_stmt 1
	ldr	r3, [r7, #12]
	ldr	r3, [r3, #56]
	cmp	r3, #0
	beq	.L58
	.loc 1 206 0 discriminator 1
	ldr	r3, [r7, #12]
	ldr	r3, [r3, #56]
	ldr	r2, [r7, #12]
	movs	r0, r2
	blx	r3
.L58:
	.loc 1 207 0
	ldr	r3, [r7, #4]
	ldrb	r3, [r3, #24]
	movs	r2, r3
	ldr	r3, .L61
	lsls	r2, r2, #2
	ldr	r3, [r2, r3]
	cmp	r3, #0
	beq	.L59
	.loc 1 208 0
	ldr	r3, [r7, #4]
	ldrb	r3, [r3, #24]
	movs	r2, r3
	ldr	r3, .L61
	lsls	r2, r2, #2
	ldr	r3, [r2, r3]
	ldr	r2, [r7, #4]
	movs	r0, r2
	blx	r3
.L59:
	.loc 1 210 0
	bl	__disable_interrupts
	movs	r3, r0
	str	r3, [r7, #8]
	.loc 1 211 0
	ldr	r3, [r7, #20]
	movs	r0, r3
	bl	DL_DeleteLastItem
	.loc 1 212 0
	ldr	r3, [r7, #12]
	movs	r2, #60
	movs	r1, #0
	movs	r0, r3
	bl	__secure_memset
	.loc 1 214 0
	ldr	r3, [r7, #8]
	movs	r0, r3
	bl	__restore_interrupts
.L56:
.LBE12:
	.loc 1 199 0
	ldr	r3, [r7, #20]
	movs	r0, r3
	bl	DL_GetLastItem
	movs	r3, r0
	str	r3, [r7, #16]
	ldr	r3, [r7, #16]
	cmp	r3, #0
	bne	.L60
	.loc 1 216 0
	nop
	mov	sp, r7
	add	sp, sp, #24
	@ sp needed
	pop	{r7, pc}
.L62:
	.align	2
.L61:
	.word	DestroyObject.7539
	.cfi_endproc
.LFE6:
	.size	GUI_DestroyChildTree, .-GUI_DestroyChildTree
	.section	.text.GUI_SetLockState,"ax",%progbits
	.align	2
	.global	GUI_SetLockState
	.code	16
	.thumb_func
	.type	GUI_SetLockState, %function
GUI_SetLockState:
.LFB7:
	.loc 1 219 0
	.cfi_startproc
	@ args = 0, pretend = 0, frame = 8
	@ frame_needed = 1, uses_anonymous_args = 0
	push	{r7, lr}
	.cfi_def_cfa_offset 8
	.cfi_offset 7, -8
	.cfi_offset 14, -4
	sub	sp, sp, #8
	.cfi_def_cfa_offset 16
	add	r7, sp, #0
	.cfi_def_cfa_register 7
	movs	r2, r0
	adds	r3, r7, #7
	strb	r2, [r3]
	.loc 1 220 0
	ldr	r3, .L64
	adds	r2, r7, #7
	ldrb	r2, [r2]
	strb	r2, [r3]
	.loc 1 221 0
	nop
	mov	sp, r7
	add	sp, sp, #8
	@ sp needed
	pop	{r7, pc}
.L65:
	.align	2
.L64:
	.word	GUILocked
	.cfi_endproc
.LFE7:
	.size	GUI_SetLockState, .-GUI_SetLockState
	.section	.rodata
	.align	2
.LC6:
	.ascii	"GUI subsystem initialization:\015\000"
	.align	2
.LC10:
	.ascii	" LCD interface initialization...\000"
	.align	2
.LC13:
	.ascii	"GUI initialization failed!\015\000"
	.section	.text.GUI_Initialize,"ax",%progbits
	.align	2
	.global	GUI_Initialize
	.code	16
	.thumb_func
	.type	GUI_Initialize, %function
GUI_Initialize:
.LFB8:
	.loc 1 224 0
	.cfi_startproc
	@ args = 0, pretend = 0, frame = 8
	@ frame_needed = 1, uses_anonymous_args = 0
	push	{r4, r7, lr}
	.cfi_def_cfa_offset 12
	.cfi_offset 4, -12
	.cfi_offset 7, -8
	.cfi_offset 14, -4
	sub	sp, sp, #12
	.cfi_def_cfa_offset 24
	add	r7, sp, #0
	.cfi_def_cfa_register 7
	.loc 1 227 0
	ldr	r3, .L70
	movs	r0, r3
	bl	puts
	.loc 1 227 0
	ldr	r3, .L70+4
	ldr	r3, [r3]
	ldr	r3, [r3, #8]
	.loc 1 227 0
	movs	r0, r3
	bl	fflush
	.loc 1 229 0
	ldr	r3, .L70+8
	movs	r2, #1
	strb	r2, [r3]
	.loc 1 231 0
	ldr	r3, .L70+12
	movs	r0, r3
	bl	printf
	.loc 1 231 0
	ldr	r3, .L70+4
	ldr	r3, [r3]
	ldr	r3, [r3, #8]
	.loc 1 231 0
	movs	r0, r3
	bl	fflush
	.loc 1 232 0
	adds	r4, r7, #7
	bl	LCDIF_Initialize
	movs	r3, r0
	strb	r3, [r4]
	.loc 1 234 0
	bl	PMUBL_Initialize
	.loc 1 236 0
	adds	r3, r7, #7
	ldrb	r3, [r3]
	cmp	r3, #0
	beq	.L67
	.loc 1 238 0
	bl	FT6236_Initialize
	.loc 1 240 0
	ldr	r3, .L70+16
	movs	r0, r3
	bl	LCDIF_UpdateRectangleBlocked
	.loc 1 241 0
	ldr	r3, .L70+20
	movs	r0, r3
	bl	USC_Pause_us
	b	.L68
.L67:
	.loc 1 243 0
	ldr	r3, .L70+24
	movs	r0, r3
	bl	puts
	.loc 1 243 0
	ldr	r3, .L70+4
	ldr	r3, [r3]
	ldr	r3, [r3, #8]
	.loc 1 243 0
	movs	r0, r3
	bl	fflush
.L68:
	.loc 1 245 0
	adds	r3, r7, #7
	ldrb	r3, [r3]
	.loc 1 246 0
	movs	r0, r3
	mov	sp, r7
	add	sp, sp, #12
	@ sp needed
	pop	{r4, r7, pc}
.L71:
	.align	2
.L70:
	.word	.LC6
	.word	_impure_ptr
	.word	GUILocked
	.word	.LC10
	.word	LCDScreen
	.word	75000
	.word	.LC13
	.cfi_endproc
.LFE8:
	.size	GUI_Initialize, .-GUI_Initialize
	.section	.text.GUI_Invalidate,"ax",%progbits
	.align	2
	.global	GUI_Invalidate
	.code	16
	.thumb_func
	.type	GUI_Invalidate, %function
GUI_Invalidate:
.LFB9:
	.loc 1 249 0
	.cfi_startproc
	@ args = 0, pretend = 0, frame = 24
	@ frame_needed = 1, uses_anonymous_args = 0
	push	{r7, lr}
	.cfi_def_cfa_offset 8
	.cfi_offset 7, -8
	.cfi_offset 14, -4
	sub	sp, sp, #24
	.cfi_def_cfa_offset 32
	add	r7, sp, #0
	.cfi_def_cfa_register 7
	str	r0, [r7, #4]
	.loc 1 250 0
	movs	r3, #8
	adds	r3, r7, r3
	movs	r0, r3
	movs	r3, #16
	movs	r2, r3
	movs	r1, #0
	bl	memset
	.loc 1 252 0
	ldr	r3, [r7, #4]
	cmp	r3, #0
	beq	.L74
	.loc 1 252 0 discriminator 1
	ldr	r3, [r7, #4]
	ldrb	r3, [r3, #28]
	cmp	r3, #0
	beq	.L74
	.loc 1 254 0
	movs	r3, #8
	adds	r3, r7, r3
	ldr	r2, [r7, #4]
	str	r2, [r3]
	.loc 1 255 0
	movs	r3, #8
	adds	r3, r7, r3
	ldr	r2, [r7, #4]
	adds	r3, r3, #4
	adds	r2, r2, #12
	ldmia	r2!, {r0, r1}
	stmia	r3!, {r0, r1}
	.loc 1 257 0
	movs	r3, #8
	adds	r3, r7, r3
	movs	r0, r3
	bl	GUI_IsObjectVisibleAcrossParents
	subs	r3, r0, #0
	beq	.L74
	.loc 1 258 0
	movs	r3, #8
	adds	r2, r7, r3
	movs	r3, #16
	movs	r1, #0
	movs	r0, #4
	bl	EM_PostEvent
.L74:
	.loc 1 260 0
	nop
	mov	sp, r7
	add	sp, sp, #24
	@ sp needed
	pop	{r7, pc}
	.cfi_endproc
.LFE9:
	.size	GUI_Invalidate, .-GUI_Invalidate
	.section	.text.GUI_InvalidateArea,"ax",%progbits
	.align	2
	.global	GUI_InvalidateArea
	.code	16
	.thumb_func
	.type	GUI_InvalidateArea, %function
GUI_InvalidateArea:
.LFB10:
	.loc 1 263 0
	.cfi_startproc
	@ args = 0, pretend = 0, frame = 40
	@ frame_needed = 1, uses_anonymous_args = 0
	push	{r4, r7, lr}
	.cfi_def_cfa_offset 12
	.cfi_offset 4, -12
	.cfi_offset 7, -8
	.cfi_offset 14, -4
	sub	sp, sp, #44
	.cfi_def_cfa_offset 56
	add	r7, sp, #0
	.cfi_def_cfa_register 7
	str	r0, [r7, #12]
	str	r1, [r7, #8]
	.loc 1 264 0
	movs	r3, #20
	adds	r3, r7, r3
	movs	r0, r3
	movs	r3, #16
	movs	r2, r3
	movs	r1, #0
	bl	memset
	.loc 1 266 0
	ldr	r3, [r7, #12]
	cmp	r3, #0
	bne	.LCB1067
	b	.L75	@long jump
.LCB1067:
	.loc 1 266 0 discriminator 1
	ldr	r3, [r7, #12]
	ldrb	r3, [r3, #28]
	cmp	r3, #0
	bne	.LCB1071
	b	.L75	@long jump
.LCB1071:
	.loc 1 266 0 is_stmt 0 discriminator 2
	ldr	r3, [r7, #8]
	cmp	r3, #0
	bne	.LCB1074
	b	.L75	@long jump
.LCB1074:
	.loc 1 268 0 is_stmt 1
	movs	r3, #20
	adds	r3, r7, r3
	ldr	r2, [r7, #12]
	str	r2, [r3]
	.loc 1 270 0
	ldr	r3, [r7, #12]
	ldr	r3, [r3, #20]
	cmp	r3, #0
	beq	.L77
	.loc 1 271 0
	ldr	r3, [r7, #12]
	ldr	r3, [r3, #20]
	adds	r3, r3, #12
	movs	r2, r3
	movs	r3, #20
	adds	r4, r7, r3
	movs	r3, r7
	ldr	r1, [r7, #8]
	movs	r0, r3
	bl	GDI_LocalToGlobalRct
	movs	r2, r7
	adds	r3, r4, #4
	movs	r1, r2
	movs	r2, #8
	movs	r0, r3
	bl	memcpy
	b	.L78
.L77:
	.loc 1 272 0
	ldr	r3, [r7, #12]
	movs	r2, #62
	ldrb	r3, [r3, r2]
	movs	r0, r3
	bl	LCDIF_IsLayerInitialized
	subs	r3, r0, #0
	beq	.L83
	.loc 1 272 0 is_stmt 0 discriminator 1
	ldr	r3, [r7, #12]
	ldrb	r3, [r3, #26]
	cmp	r3, #0
	beq	.L83
	.loc 1 273 0 is_stmt 1
	movs	r3, #20
	adds	r3, r7, r3
	ldr	r2, [r7, #8]
	adds	r3, r3, #4
	movs	r1, r2
	movs	r2, #8
	movs	r0, r3
	bl	memcpy
.L78:
.LBB13:
	.loc 1 276 0
	movs	r3, #20
	adds	r3, r7, r3
	movs	r2, #4
	ldrsh	r2, [r3, r2]
	movs	r3, #20
	adds	r3, r7, r3
	movs	r1, #8
	ldrsh	r3, [r3, r1]
	cmp	r2, r3
	ble	.L81
	.loc 1 276 0 is_stmt 0 discriminator 1
	movs	r3, #38
	adds	r3, r7, r3
	movs	r2, #20
	adds	r2, r7, r2
	ldrh	r2, [r2, #4]
	strh	r2, [r3]
	movs	r3, #20
	adds	r3, r7, r3
	movs	r2, #8
	ldrsh	r2, [r3, r2]
	movs	r3, #20
	adds	r3, r7, r3
	strh	r2, [r3, #4]
	movs	r3, #20
	adds	r3, r7, r3
	movs	r2, #38
	adds	r2, r7, r2
	ldrh	r2, [r2]
	strh	r2, [r3, #8]
.L81:
.LBE13:
.LBB14:
	.loc 1 277 0 is_stmt 1
	movs	r3, #20
	adds	r3, r7, r3
	movs	r2, #6
	ldrsh	r2, [r3, r2]
	movs	r3, #20
	adds	r3, r7, r3
	movs	r1, #10
	ldrsh	r3, [r3, r1]
	cmp	r2, r3
	ble	.L82
	.loc 1 277 0 is_stmt 0 discriminator 1
	movs	r3, #36
	adds	r3, r7, r3
	movs	r2, #20
	adds	r2, r7, r2
	ldrh	r2, [r2, #6]
	strh	r2, [r3]
	movs	r3, #20
	adds	r3, r7, r3
	movs	r2, #10
	ldrsh	r2, [r3, r2]
	movs	r3, #20
	adds	r3, r7, r3
	strh	r2, [r3, #6]
	movs	r3, #20
	adds	r3, r7, r3
	movs	r2, #36
	adds	r2, r7, r2
	ldrh	r2, [r2]
	strh	r2, [r3, #10]
.L82:
.LBE14:
	.loc 1 279 0 is_stmt 1
	movs	r3, #20
	adds	r3, r7, r3
	movs	r0, r3
	bl	GUI_IsObjectVisibleAcrossParents
	subs	r3, r0, #0
	beq	.L75
	.loc 1 280 0
	movs	r3, #20
	adds	r2, r7, r3
	movs	r3, #16
	movs	r1, #0
	movs	r0, #4
	bl	EM_PostEvent
	b	.L75
.L83:
	.loc 1 274 0
	nop
.L75:
	.loc 1 282 0
	mov	sp, r7
	add	sp, sp, #44
	@ sp needed
	pop	{r4, r7, pc}
	.cfi_endproc
.LFE10:
	.size	GUI_InvalidateArea, .-GUI_InvalidateArea
	.section	.text.GUI_OnPaintHandler,"ax",%progbits
	.align	2
	.global	GUI_OnPaintHandler
	.code	16
	.thumb_func
	.type	GUI_OnPaintHandler, %function
GUI_OnPaintHandler:
.LFB11:
	.loc 1 285 0
	.cfi_startproc
	@ args = 0, pretend = 0, frame = 24
	@ frame_needed = 1, uses_anonymous_args = 0
	push	{r7, lr}
	.cfi_def_cfa_offset 8
	.cfi_offset 7, -8
	.cfi_offset 14, -4
	sub	sp, sp, #24
	.cfi_def_cfa_offset 32
	add	r7, sp, #0
	.cfi_def_cfa_register 7
	str	r0, [r7, #4]
	.loc 1 286 0
	ldr	r3, [r7, #4]
	cmp	r3, #0
	bne	.LCB1230
	b	.L99	@long jump
.LCB1230:
	.loc 1 287 0 discriminator 1
	ldr	r3, [r7, #4]
	ldr	r3, [r3]
	movs	r0, r3
	bl	GUI_IsWindowObject
	subs	r3, r0, #0
	.loc 1 286 0 discriminator 1
	bne	.L86
	.loc 1 287 0
	ldr	r3, [r7, #4]
	ldr	r3, [r3]
	ldr	r3, [r3, #20]
	cmp	r3, #0
	bne	.LCB1242
	b	.L99	@long jump
.LCB1242:
.L86:
.LBB15:
	.loc 1 289 0
	ldr	r3, [r7, #4]
	ldr	r3, [r3]
	movs	r0, r3
	bl	GUI_IsWindowObject
	subs	r3, r0, #0
	beq	.L87
	.loc 1 290 0 discriminator 1
	ldr	r3, [r7, #4]
	ldr	r3, [r3]
	.loc 1 289 0 discriminator 1
	movs	r2, #62
	ldrb	r3, [r3, r2]
	b	.L88
.L87:
	.loc 1 290 0 discriminator 2
	ldr	r3, [r7, #4]
	ldr	r3, [r3]
	ldr	r3, [r3, #20]
	.loc 1 289 0 discriminator 2
	movs	r2, #62
	ldrb	r3, [r3, r2]
.L88:
	.loc 1 289 0 is_stmt 0 discriminator 4
	movs	r2, #19
	adds	r2, r7, r2
	strb	r3, [r2]
	.loc 1 292 0 is_stmt 1 discriminator 4
	movs	r3, #19
	adds	r3, r7, r3
	ldrb	r2, [r3]
	ldr	r3, .L102
	lsls	r2, r2, #2
	ldr	r3, [r2, r3]
	cmp	r3, #0
	bne	.LCB1277
	b	.L99	@long jump
.LCB1277:
	.loc 1 293 0 discriminator 1
	ldr	r3, [r7, #4]
	adds	r0, r3, #4
	movs	r3, #19
	adds	r3, r7, r3
	ldrb	r2, [r3]
	movs	r3, r2
	lsls	r3, r3, #3
	subs	r3, r3, r2
	lsls	r3, r3, #2
	adds	r3, r3, #24
	movs	r2, r3
	ldr	r3, .L102+4
	adds	r3, r2, r3
	adds	r3, r3, #2
	movs	r1, r3
	bl	GDI_ANDRectangles
	subs	r3, r0, #0
	.loc 1 292 0 discriminator 1
	bne	.LCB1296
	b	.L99	@long jump
.LCB1296:
.LBB16:
	.loc 1 295 0
	bl	DL_Create
	movs	r3, r0
	str	r3, [r7, #12]
	.loc 1 296 0
	movs	r0, #20
	bl	malloc
	movs	r3, r0
	str	r3, [r7, #8]
	.loc 1 298 0
	ldr	r3, [r7, #12]
	cmp	r3, #0
	bne	.LCB1307
	b	.L89	@long jump
.LCB1307:
	.loc 1 298 0 discriminator 1
	ldr	r3, [r7, #8]
	cmp	r3, #0
	bne	.LCB1310
	b	.L89	@long jump
.LCB1310:
	.loc 1 299 0 discriminator 2
	ldr	r2, [r7, #8]
	ldr	r3, [r7, #12]
	movs	r1, r2
	movs	r0, r3
	bl	DL_AddItemPtr
	subs	r3, r0, #0
	.loc 1 298 0 discriminator 2
	bne	.LCB1318
	b	.L89	@long jump
.LCB1318:
.LBB17:
	.loc 1 303 0
	ldr	r3, [r7, #8]
	ldr	r2, [r7, #4]
	adds	r3, r3, #12
	adds	r2, r2, #4
	ldmia	r2!, {r0, r1}
	stmia	r3!, {r0, r1}
	.loc 1 305 0
	ldr	r3, [r7, #4]
	ldr	r3, [r3]
	ldr	r3, [r3, #20]
	cmp	r3, #0
	beq	.L90
	.loc 1 307 0
	ldr	r3, [r7, #4]
	ldr	r3, [r3]
	str	r3, [r7, #20]
	.loc 1 309 0
	b	.L91
.L93:
	.loc 1 311 0
	ldr	r2, [r7, #20]
	ldr	r3, [r7, #12]
	movs	r1, r2
	movs	r0, r3
	bl	GUI_SubTopChildObjectsFromRegion
	subs	r3, r0, #0
	beq	.L100
	.loc 1 312 0
	ldr	r3, [r7, #20]
	ldr	r3, [r3, #20]
	str	r3, [r7, #20]
.L91:
	.loc 1 309 0
	ldr	r3, [r7, #20]
	ldr	r3, [r3, #20]
	cmp	r3, #0
	bne	.L93
	b	.L90
.L100:
	.loc 1 311 0
	nop
.L90:
	.loc 1 316 0
	ldr	r3, [r7, #12]
	movs	r0, r3
	bl	DL_GetItemsCount
	subs	r3, r0, #0
	beq	.L101
	.loc 1 318 0
	ldr	r3, [r7, #4]
	ldr	r3, [r3]
	movs	r0, r3
	bl	GUI_IsWindowObject
	subs	r3, r0, #0
	beq	.L95
	.loc 1 320 0
	ldr	r3, [r7, #4]
	ldr	r3, [r3]
	ldrb	r3, [r3, #26]
	cmp	r3, #0
	beq	.L96
	.loc 1 323 0
	ldr	r3, [r7, #4]
	ldr	r1, [r3]
	ldr	r3, [r7, #4]
	ldr	r3, [r3]
	adds	r3, r3, #12
	movs	r2, r3
	ldr	r3, [r7, #12]
	movs	r0, r3
	bl	GUI_UpdateChildTree
.LBE17:
	.loc 1 300 0
	b	.L101
.L96:
.LBB18:
	.loc 1 325 0
	ldr	r3, [r7, #4]
	ldr	r3, [r3]
	ldr	r3, [r3, #20]
	cmp	r3, #0
	beq	.L101
	.loc 1 328 0
	ldr	r3, [r7, #4]
	ldr	r3, [r3]
	ldr	r1, [r3, #20]
	ldr	r3, [r7, #4]
	ldr	r3, [r3]
	adds	r3, r3, #12
	movs	r2, r3
	ldr	r3, [r7, #12]
	movs	r0, r3
	bl	GUI_UpdateChildTree
.LBE18:
	.loc 1 300 0
	b	.L101
.L95:
.LBB19:
	.loc 1 335 0
	ldr	r3, [r7, #4]
	ldr	r3, [r3]
	ldr	r3, [r3, #20]
	cmp	r3, #0
	beq	.L101
	.loc 1 338 0
	ldr	r3, [r7, #4]
	ldr	r3, [r3]
	ldrb	r3, [r3, #26]
	cmp	r3, #0
	beq	.L97
	.loc 1 339 0
	ldr	r3, [r7, #4]
	ldr	r1, [r3]
	ldr	r3, [r7, #4]
	ldr	r3, [r3]
	adds	r3, r3, #12
	movs	r2, r3
	ldr	r3, [r7, #12]
	movs	r0, r3
	bl	GUI_UpdateObjectByRegion
.LBE19:
	.loc 1 300 0
	b	.L101
.L97:
.LBB20:
	.loc 1 343 0
	ldr	r3, [r7, #4]
	ldr	r3, [r3]
	ldr	r1, [r3, #20]
	ldr	r3, [r7, #4]
	ldr	r3, [r3]
	adds	r3, r3, #12
	movs	r2, r3
	ldr	r3, [r7, #12]
	movs	r0, r3
	bl	GUI_UpdateChildTree
.LBE20:
	.loc 1 300 0
	b	.L101
.L89:
	.loc 1 348 0
	ldr	r3, [r7, #8]
	movs	r0, r3
	bl	free
	b	.L98
.L101:
	.loc 1 300 0
	nop
.L98:
	.loc 1 350 0
	ldr	r3, [r7, #12]
	movs	r1, #0
	movs	r0, r3
	bl	DL_Delete
.L99:
.LBE16:
.LBE15:
	.loc 1 353 0
	nop
	mov	sp, r7
	add	sp, sp, #24
	@ sp needed
	pop	{r7, pc}
.L103:
	.align	2
.L102:
	.word	GUILayer
	.word	LCDScreen
	.cfi_endproc
.LFE11:
	.size	GUI_OnPaintHandler, .-GUI_OnPaintHandler
	.section	.text.GUI_OnPenPressHandler,"ax",%progbits
	.align	2
	.global	GUI_OnPenPressHandler
	.code	16
	.thumb_func
	.type	GUI_OnPenPressHandler, %function
GUI_OnPenPressHandler:
.LFB12:
	.loc 1 356 0
	.cfi_startproc
	@ args = 0, pretend = 0, frame = 32
	@ frame_needed = 1, uses_anonymous_args = 0
	push	{r4, r7, lr}
	.cfi_def_cfa_offset 12
	.cfi_offset 4, -12
	.cfi_offset 7, -8
	.cfi_offset 14, -4
	sub	sp, sp, #36
	.cfi_def_cfa_offset 48
	add	r7, sp, #0
	.cfi_def_cfa_register 7
	str	r0, [r7, #4]
	.loc 1 357 0
	ldr	r3, .L111
	ldrb	r3, [r3]
	cmp	r3, #0
	bne	.L105
	.loc 1 357 0 is_stmt 0 discriminator 1
	bl	GUI_GetObjectActive
	subs	r3, r0, #0
	bne	.L105
.LBB21:
	.loc 1 359 0 is_stmt 1
	ldr	r3, [r7, #4]
	adds	r3, r3, #24
	str	r3, [r7, #28]
	.loc 1 361 0
	ldr	r3, [r7, #28]
	adds	r3, r3, #4
	movs	r2, #12
	adds	r2, r7, r2
	movs	r1, r2
	movs	r0, r3
	bl	GUI_GetObjectFromPoint
	movs	r3, r0
	str	r3, [r7, #24]
	.loc 1 363 0
	ldr	r3, [r7, #24]
	cmp	r3, #0
	beq	.L106
.LBB22:
	.loc 1 365 0
	ldr	r2, [r7, #12]
	movs	r3, #23
	adds	r3, r7, r3
	movs	r1, #62
	ldrb	r2, [r2, r1]
	strb	r2, [r3]
	.loc 1 368 0
	ldr	r3, [r7, #24]
	movs	r0, r3
	bl	GUI_IsWindowObject
	subs	r3, r0, #0
	bne	.L107
	.loc 1 368 0 is_stmt 0 discriminator 1
	ldr	r3, [r7, #24]
	ldr	r3, [r3, #20]
	b	.L108
.L107:
	.loc 1 368 0 discriminator 2
	ldr	r3, [r7, #24]
.L108:
	.loc 1 368 0 discriminator 4
	movs	r0, r3
	bl	GUI_MoveWindowTreeToTop
	movs	r3, r0
	str	r3, [r7, #16]
	.loc 1 371 0 is_stmt 1 discriminator 4
	ldr	r3, [r7, #24]
	ldrb	r3, [r3, #25]
	cmp	r3, #0
	beq	.L109
	.loc 1 371 0 is_stmt 0 discriminator 1
	ldr	r3, [r7, #24]
	ldrb	r3, [r3, #27]
	cmp	r3, #0
	beq	.L109
	.loc 1 373 0 is_stmt 1
	ldr	r3, [r7, #28]
	adds	r2, r3, #4
	ldr	r4, [r7, #28]
	movs	r3, #23
	adds	r3, r7, r3
	ldrb	r3, [r3]
	movs	r1, r2
	movs	r0, r3
	bl	GDI_ScreenToLayerPt
	movs	r3, r0
	str	r3, [r4, #4]
	.loc 1 375 0
	ldr	r3, [r7, #28]
	adds	r2, r3, #4
	ldr	r3, [r7, #24]
	adds	r3, r3, #12
	movs	r1, r3
	movs	r0, r2
	bl	GDI_GlobalToLocalPt
	movs	r3, r0
	movs	r2, r3
	movs	r3, #8
	adds	r3, r7, r3
	str	r2, [r3]
	.loc 1 377 0
	ldr	r3, [r7, #16]
	rsbs	r2, r3, #0
	adcs	r3, r3, r2
	lsls	r3, r3, #24
	lsrs	r3, r3, #24
	movs	r2, r3
	ldr	r3, [r7, #24]
	movs	r1, r2
	movs	r0, r3
	bl	GUI_SetObjectActive
	.loc 1 378 0
	ldr	r3, [r7, #24]
	ldr	r3, [r3, #36]
	cmp	r3, #0
	beq	.L109
	.loc 1 378 0 discriminator 1
	ldr	r3, [r7, #24]
	ldr	r3, [r3, #36]
	movs	r2, #8
	adds	r1, r7, r2
	ldr	r2, [r7, #24]
	movs	r0, r2
	blx	r3
.L109:
	.loc 1 380 0
	ldr	r3, [r7, #16]
	movs	r0, r3
	bl	GUI_Invalidate
.LBE22:
	b	.L105
.L106:
	.loc 1 382 0
	movs	r1, #1
	movs	r0, #0
	bl	GUI_SetObjectActive
.L105:
.LBE21:
	.loc 1 384 0
	movs	r0, #0
	bl	PMUBL_RestartBacklightTimer
	.loc 1 385 0
	nop
	mov	sp, r7
	add	sp, sp, #36
	@ sp needed
	pop	{r4, r7, pc}
.L112:
	.align	2
.L111:
	.word	GUILocked
	.cfi_endproc
.LFE12:
	.size	GUI_OnPenPressHandler, .-GUI_OnPenPressHandler
	.section	.text.GUI_OnPenReleaseHandler,"ax",%progbits
	.align	2
	.global	GUI_OnPenReleaseHandler
	.code	16
	.thumb_func
	.type	GUI_OnPenReleaseHandler, %function
GUI_OnPenReleaseHandler:
.LFB13:
	.loc 1 388 0
	.cfi_startproc
	@ args = 0, pretend = 0, frame = 24
	@ frame_needed = 1, uses_anonymous_args = 0
	push	{r4, r7, lr}
	.cfi_def_cfa_offset 12
	.cfi_offset 4, -12
	.cfi_offset 7, -8
	.cfi_offset 14, -4
	sub	sp, sp, #28
	.cfi_def_cfa_offset 40
	add	r7, sp, #0
	.cfi_def_cfa_register 7
	str	r0, [r7, #4]
	.loc 1 391 0
	ldr	r3, .L120
	ldrb	r3, [r3]
	cmp	r3, #0
	beq	.LCB1657
	b	.L114	@long jump
.LCB1657:
	.loc 1 391 0 is_stmt 0 discriminator 1
	bl	GUI_GetObjectActive
	movs	r3, r0
	str	r3, [r7, #16]
	ldr	r3, [r7, #16]
	cmp	r3, #0
	beq	.L114
.LBB23:
	.loc 1 394 0 is_stmt 1
	ldr	r3, [r7, #4]
	adds	r3, r3, #24
	str	r3, [r7, #12]
	.loc 1 398 0
	ldr	r3, [r7, #16]
	movs	r0, r3
	bl	GUI_IsWindowObject
	subs	r3, r0, #0
	beq	.L115
	.loc 1 398 0 is_stmt 0 discriminator 1
	movs	r3, #23
	adds	r3, r7, r3
	ldr	r2, [r7, #16]
	movs	r1, #62
	ldrb	r2, [r2, r1]
	strb	r2, [r3]
	b	.L116
.L115:
	.loc 1 399 0 is_stmt 1
	ldr	r3, [r7, #16]
	ldr	r3, [r3, #20]
	cmp	r3, #0
	beq	.L117
	.loc 1 399 0 discriminator 1
	ldr	r3, [r7, #16]
	ldr	r2, [r3, #20]
	movs	r3, #23
	adds	r3, r7, r3
	movs	r1, #62
	ldrb	r2, [r2, r1]
	strb	r2, [r3]
	b	.L116
.L117:
	.loc 1 402 0
	movs	r1, #1
	movs	r0, #0
	bl	GUI_SetObjectActive
	b	.L114
.L116:
	.loc 1 406 0
	movs	r1, #1
	movs	r0, #0
	bl	GUI_SetObjectActive
	.loc 1 408 0
	ldr	r3, [r7, #16]
	ldrb	r3, [r3, #25]
	cmp	r3, #0
	beq	.L114
	.loc 1 408 0 is_stmt 0 discriminator 1
	ldr	r3, [r7, #16]
	ldrb	r3, [r3, #27]
	cmp	r3, #0
	beq	.L114
	.loc 1 410 0 is_stmt 1
	ldr	r3, [r7, #12]
	adds	r2, r3, #4
	ldr	r4, [r7, #12]
	movs	r3, #23
	adds	r3, r7, r3
	ldrb	r3, [r3]
	movs	r1, r2
	movs	r0, r3
	bl	GDI_ScreenToLayerPt
	movs	r3, r0
	str	r3, [r4, #4]
	.loc 1 412 0
	ldr	r3, [r7, #12]
	adds	r2, r3, #4
	ldr	r3, [r7, #16]
	adds	r3, r3, #12
	movs	r1, r3
	movs	r0, r2
	bl	GDI_GlobalToLocalPt
	movs	r3, r0
	movs	r2, r3
	movs	r3, #8
	adds	r3, r7, r3
	str	r2, [r3]
	.loc 1 414 0
	ldr	r3, [r7, #16]
	ldr	r3, [r3, #48]
	cmp	r3, #0
	beq	.L119
	.loc 1 415 0 discriminator 1
	ldr	r3, [r7, #12]
	adds	r2, r3, #4
	ldr	r3, [r7, #16]
	adds	r3, r3, #12
	movs	r1, r3
	movs	r0, r2
	bl	IsPointInRect
	subs	r3, r0, #0
	.loc 1 414 0 discriminator 1
	beq	.L119
	.loc 1 416 0
	ldr	r3, [r7, #16]
	ldr	r3, [r3, #48]
	movs	r2, #8
	adds	r1, r7, r2
	ldr	r2, [r7, #16]
	movs	r0, r2
	blx	r3
.L119:
	.loc 1 417 0
	ldr	r3, [r7, #16]
	ldr	r3, [r3, #40]
	cmp	r3, #0
	beq	.L114
	.loc 1 417 0 discriminator 1
	ldr	r3, [r7, #16]
	ldr	r3, [r3, #40]
	movs	r2, #8
	adds	r1, r7, r2
	ldr	r2, [r7, #16]
	movs	r0, r2
	blx	r3
.L114:
.LBE23:
	.loc 1 421 0
	movs	r0, #1
	bl	PMUBL_RestartBacklightTimer
	.loc 1 422 0
	nop
	mov	sp, r7
	add	sp, sp, #28
	@ sp needed
	pop	{r4, r7, pc}
.L121:
	.align	2
.L120:
	.word	GUILocked
	.cfi_endproc
.LFE13:
	.size	GUI_OnPenReleaseHandler, .-GUI_OnPenReleaseHandler
	.section	.text.GUI_OnPenMoveHandler,"ax",%progbits
	.align	2
	.global	GUI_OnPenMoveHandler
	.code	16
	.thumb_func
	.type	GUI_OnPenMoveHandler, %function
GUI_OnPenMoveHandler:
.LFB14:
	.loc 1 425 0
	.cfi_startproc
	@ args = 0, pretend = 0, frame = 24
	@ frame_needed = 1, uses_anonymous_args = 0
	push	{r4, r7, lr}
	.cfi_def_cfa_offset 12
	.cfi_offset 4, -12
	.cfi_offset 7, -8
	.cfi_offset 14, -4
	sub	sp, sp, #28
	.cfi_def_cfa_offset 40
	add	r7, sp, #0
	.cfi_def_cfa_register 7
	str	r0, [r7, #4]
	.loc 1 428 0
	ldr	r3, .L130
	ldrb	r3, [r3]
	cmp	r3, #0
	bne	.L123
	.loc 1 428 0 is_stmt 0 discriminator 1
	bl	GUI_GetObjectActive
	movs	r3, r0
	str	r3, [r7, #16]
	ldr	r3, [r7, #16]
	cmp	r3, #0
	beq	.L123
.LBB24:
	.loc 1 430 0 is_stmt 1
	ldr	r3, [r7, #4]
	adds	r3, r3, #24
	str	r3, [r7, #12]
	.loc 1 434 0
	ldr	r3, [r7, #16]
	movs	r0, r3
	bl	GUI_IsWindowObject
	subs	r3, r0, #0
	beq	.L124
	.loc 1 434 0 is_stmt 0 discriminator 1
	movs	r3, #23
	adds	r3, r7, r3
	ldr	r2, [r7, #16]
	movs	r1, #62
	ldrb	r2, [r2, r1]
	strb	r2, [r3]
	b	.L125
.L124:
	.loc 1 435 0 is_stmt 1
	ldr	r3, [r7, #16]
	ldr	r3, [r3, #20]
	cmp	r3, #0
	beq	.L126
	.loc 1 435 0 discriminator 1
	ldr	r3, [r7, #16]
	ldr	r2, [r3, #20]
	movs	r3, #23
	adds	r3, r7, r3
	movs	r1, #62
	ldrb	r2, [r2, r1]
	strb	r2, [r3]
	b	.L125
.L126:
	.loc 1 438 0
	movs	r1, #1
	movs	r0, #0
	bl	GUI_SetObjectActive
	b	.L122
.L125:
	.loc 1 442 0
	ldr	r3, [r7, #16]
	ldrb	r3, [r3, #25]
	cmp	r3, #0
	beq	.L123
	.loc 1 442 0 is_stmt 0 discriminator 1
	ldr	r3, [r7, #16]
	ldrb	r3, [r3, #27]
	cmp	r3, #0
	beq	.L123
	.loc 1 444 0 is_stmt 1
	ldr	r3, [r7, #12]
	adds	r2, r3, #4
	ldr	r4, [r7, #12]
	movs	r3, #23
	adds	r3, r7, r3
	ldrb	r3, [r3]
	movs	r1, r2
	movs	r0, r3
	bl	GDI_ScreenToLayerPt
	movs	r3, r0
	str	r3, [r4, #4]
	.loc 1 446 0
	ldr	r3, [r7, #12]
	adds	r2, r3, #4
	ldr	r3, [r7, #16]
	adds	r3, r3, #12
	movs	r1, r3
	movs	r0, r2
	bl	GDI_GlobalToLocalPt
	movs	r3, r0
	movs	r2, r3
	movs	r3, #8
	adds	r3, r7, r3
	str	r2, [r3]
	.loc 1 448 0
	ldr	r3, [r7, #16]
	ldr	r3, [r3, #44]
	cmp	r3, #0
	beq	.L129
	.loc 1 448 0 discriminator 1
	ldr	r3, [r7, #16]
	ldr	r3, [r3, #44]
	movs	r2, #8
	adds	r1, r7, r2
	ldr	r2, [r7, #16]
	movs	r0, r2
	blx	r3
.L129:
	.loc 1 449 0
	ldr	r3, [r7, #12]
	adds	r2, r3, #4
	ldr	r3, [r7, #16]
	adds	r3, r3, #12
	movs	r1, r3
	movs	r0, r2
	bl	IsPointInRect
	movs	r3, r0
	movs	r2, r3
	ldr	r3, [r7, #16]
	movs	r1, r2
	movs	r0, r3
	bl	GUI_UpdateActiveState
.L123:
.LBE24:
	.loc 1 452 0
	movs	r0, #0
	bl	PMUBL_RestartBacklightTimer
.L122:
	.loc 1 453 0
	mov	sp, r7
	add	sp, sp, #28
	@ sp needed
	pop	{r4, r7, pc}
.L131:
	.align	2
.L130:
	.word	GUILocked
	.cfi_endproc
.LFE14:
	.size	GUI_OnPenMoveHandler, .-GUI_OnPenMoveHandler
	.section	.text.GUI_OnDestroyHandler,"ax",%progbits
	.align	2
	.global	GUI_OnDestroyHandler
	.code	16
	.thumb_func
	.type	GUI_OnDestroyHandler, %function
GUI_OnDestroyHandler:
.LFB15:
	.loc 1 456 0
	.cfi_startproc
	@ args = 0, pretend = 0, frame = 16
	@ frame_needed = 1, uses_anonymous_args = 0
	push	{r7, lr}
	.cfi_def_cfa_offset 8
	.cfi_offset 7, -8
	.cfi_offset 14, -4
	sub	sp, sp, #16
	.cfi_def_cfa_offset 24
	add	r7, sp, #0
	.cfi_def_cfa_register 7
	str	r0, [r7, #4]
	.loc 1 457 0
	ldr	r3, [r7, #4]
	cmp	r3, #0
	beq	.L135
	.loc 1 457 0 discriminator 1
	ldr	r3, [r7, #4]
	ldr	r3, [r3]
	cmp	r3, #0
	beq	.L135
.LBB25:
	.loc 1 459 0
	ldr	r3, [r7, #4]
	ldr	r3, [r3]
	str	r3, [r7, #12]
	.loc 1 462 0
	ldr	r3, [r7, #12]
	movs	r0, r3
	bl	GUI_IsWindowObject
	subs	r3, r0, #0
	beq	.L134
	.loc 1 462 0 is_stmt 0 discriminator 1
	ldr	r3, [r7, #12]
	movs	r0, r3
	bl	GUI_DestroyChildTree
.L134:
	.loc 1 463 0 is_stmt 1
	ldr	r3, [r7, #12]
	movs	r0, r3
	bl	GUI_DestroySingleObject
.L135:
.LBE25:
	.loc 1 465 0
	nop
	mov	sp, r7
	add	sp, sp, #16
	@ sp needed
	pop	{r7, pc}
	.cfi_endproc
.LFE15:
	.size	GUI_OnDestroyHandler, .-GUI_OnDestroyHandler
	.section	.rodata.DestroyObject.7531,"a",%progbits
	.align	2
	.type	DestroyObject.7531, %object
	.size	DestroyObject.7531, 16
DestroyObject.7531:
	.word	0
	.word	GUI_DestroyWindow
	.word	GUI_DestroyButton
	.word	GUI_DestroyLabel
	.section	.rodata.DestroyObject.7539,"a",%progbits
	.align	2
	.type	DestroyObject.7539, %object
	.size	DestroyObject.7539, 16
DestroyObject.7539:
	.word	0
	.word	GUI_DestroyWindow
	.word	GUI_DestroyButton
	.word	GUI_DestroyLabel
	.text
.Letext0:
	.file 2 "d:\\1.11\\share\\em_armgcc\\arm-none-eabi\\include\\machine\\_default_types.h"
	.file 3 "d:\\1.11\\share\\em_armgcc\\arm-none-eabi\\include\\sys\\_stdint.h"
	.file 4 "d:\\1.11\\share\\em_armgcc\\arm-none-eabi\\include\\sys\\lock.h"
	.file 5 "d:\\1.11\\share\\em_armgcc\\arm-none-eabi\\include\\sys\\_types.h"
	.file 6 "d:\\1.11\\share\\em_armgcc\\lib\\gcc\\arm-none-eabi\\5.4.1\\include\\stddef.h"
	.file 7 "d:\\1.11\\share\\em_armgcc\\arm-none-eabi\\include\\sys\\reent.h"
	.file 8 ".\\Source/systypes.h"
	.file 9 ".\\Source\\System/dlist.h"
	.file 10 ".\\Source\\GUI/gditypes.h"
	.file 11 ".\\Source\\Lib\\MT6261/drivers\\lcdif.h"
	.file 12 ".\\Source\\Lib\\MT6261/drivers\\usb.h"
	.file 13 ".\\Source\\System/evmngr.h"
	.file 14 ".\\Source\\GUI/guiobject.h"
	.file 15 ".\\Source\\GUI/guiwin.h"
	.file 16 ".\\Source\\GUI/gui.h"