	.syntax unified
	.cpu arm9e
	.fpu softvfp
	.eabi_attribute 20, 1
	.eabi_attribute 21, 1
	.eabi_attribute 23, 3
	.eabi_attribute 24, 1
	.eabi_attribute 25, 1
	.eabi_attribute 26, 1
	.eabi_attribute 30, 6
	.eabi_attribute 34, 0
	.eabi_attribute 18, 4
	.thumb
	.syntax unified
	.file	"guibutton.c"
	.text
.Ltext0:
	.cfi_sections	.debug_frame
	.section	.bss.ButtonTimer,"aw",%nobits
	.align	2
	.type	ButtonTimer, %object
	.size	ButtonTimer, 4
ButtonTimer:
	.space	4
	.section	.bss.ArepeatButton,"aw",%nobits
	.align	2
	.type	ArepeatButton, %object
	.size	ArepeatButton, 4
ArepeatButton:
	.space	4
	.section	.bss.ButtonDelayDone,"aw",%nobits
	.type	ButtonDelayDone, %object
	.size	ButtonDelayDone, 1
ButtonDelayDone:
	.space	1
	.section	.text.GUI_DisableButtonTimer,"ax",%progbits
	.align	2
	.code	16
	.thumb_func
	.type	GUI_DisableButtonTimer, %function
GUI_DisableButtonTimer:
.LFB1:
	.file 1 "Source\\GUI\\guibutton.c"
	.loc 1 33 0
	.cfi_startproc
	@ args = 0, pretend = 0, frame = 0
	@ frame_needed = 1, uses_anonymous_args = 0
	push	{r7, lr}
	.cfi_def_cfa_offset 8
	.cfi_offset 7, -8
	.cfi_offset 14, -4
	add	r7, sp, #0
	.cfi_def_cfa_register 7
	.loc 1 34 0
	ldr	r3, .L2
	ldr	r3, [r3]
	movs	r0, r3
	bl	LRT_Stop
	.loc 1 35 0
	ldr	r3, .L2
	ldr	r3, [r3]
	movs	r0, r3
	bl	LRT_Destroy
	.loc 1 36 0
	ldr	r3, .L2
	movs	r2, #0
	str	r2, [r3]
	.loc 1 37 0
	ldr	r3, .L2+4
	movs	r2, #0
	str	r2, [r3]
	.loc 1 38 0
	nop
	mov	sp, r7
	@ sp needed
	pop	{r7, pc}
.L3:
	.align	2
.L2:
	.word	ButtonTimer
	.word	ArepeatButton
	.cfi_endproc
.LFE1:
	.size	GUI_DisableButtonTimer, .-GUI_DisableButtonTimer
	.section	.text.GUI_ButtonTimerHandler,"ax",%progbits
	.align	2
	.code	16
	.thumb_func
	.type	GUI_ButtonTimerHandler, %function
GUI_ButtonTimerHandler:
.LFB2:
	.loc 1 41 0
	.cfi_startproc
	@ args = 0, pretend = 0, frame = 16
	@ frame_needed = 1, uses_anonymous_args = 0
	push	{r7, lr}
	.cfi_def_cfa_offset 8
	.cfi_offset 7, -8
	.cfi_offset 14, -4
	sub	sp, sp, #16
	.cfi_def_cfa_offset 24
	add	r7, sp, #0
	.cfi_def_cfa_register 7
	str	r0, [r7, #4]
	.loc 1 42 0
	bl	GUI_GetObjectActive
	movs	r3, r0
	movs	r2, r3
	ldr	r3, .L8
	ldr	r3, [r3]
	cmp	r2, r3
	bne	.L5
	.loc 1 43 0 discriminator 1
	ldr	r3, .L8
	ldr	r3, [r3]
	movs	r2, #84
	ldrb	r3, [r3, r2]
	.loc 1 42 0 discriminator 1
	cmp	r3, #0
	beq	.L5
	.loc 1 43 0
	ldr	r3, .L8
	ldr	r3, [r3]
	ldr	r3, [r3, #48]
	cmp	r3, #0
	beq	.L5
.LBB2:
	.loc 1 45 0
	movs	r3, #12
	adds	r3, r7, r3
	movs	r2, #0
	str	r2, [r3]
	.loc 1 47 0
	ldr	r3, .L8+4
	ldrb	r3, [r3]
	cmp	r3, #0
	bne	.L6
	.loc 1 49 0
	ldr	r3, .L8+4
	movs	r2, #1
	strb	r2, [r3]
	.loc 1 50 0
	ldr	r3, [r7, #4]
	movs	r1, #75
	movs	r0, r3
	bl	LRT_SetInterval
.L6:
	.loc 1 52 0
	ldr	r3, .L8
	ldr	r3, [r3]
	ldr	r2, [r3, #48]
	ldr	r3, .L8
	ldr	r3, [r3]
	movs	r1, #12
	adds	r1, r7, r1
	movs	r0, r3
	blx	r2
.LBE2:
	.loc 1 44 0
	b	.L7
.L5:
	.loc 1 54 0
	bl	GUI_DisableButtonTimer
.L7:
	.loc 1 55 0
	nop
	mov	sp, r7
	add	sp, sp, #16
	@ sp needed
	pop	{r7, pc}
.L9:
	.align	2
.L8:
	.word	ArepeatButton
	.word	ButtonDelayDone
	.cfi_endproc
.LFE2:
	.size	GUI_ButtonTimerHandler, .-GUI_ButtonTimerHandler
	.section	.text.GUI_DrawDefaultButton,"ax",%progbits
	.align	2
	.global	GUI_DrawDefaultButton
	.code	16
	.thumb_func
	.type	GUI_DrawDefaultButton, %function
GUI_DrawDefaultButton:
.LFB3:
	.loc 1 58 0
	.cfi_startproc
	@ args = 0, pretend = 0, frame = 32
	@ frame_needed = 1, uses_anonymous_args = 0
	push	{r4, r5, r7, lr}
	.cfi_def_cfa_offset 16
	.cfi_offset 4, -16
	.cfi_offset 5, -12
	.cfi_offset 7, -8
	.cfi_offset 14, -4
	sub	sp, sp, #40
	.cfi_def_cfa_offset 56
	add	r7, sp, #8
	.cfi_def_cfa 7, 48
	str	r0, [r7, #4]
	str	r1, [r7]
	.loc 1 59 0
	ldr	r3, [r7, #4]
	str	r3, [r7, #24]
	.loc 1 63 0
	ldr	r3, [r7, #4]
	cmp	r3, #0
	bne	.LCB142
	b	.L21	@long jump
.LCB142:
	.loc 1 63 0 discriminator 1
	ldr	r3, [r7, #4]
	ldrb	r3, [r3, #26]
	cmp	r3, #0
	bne	.LCB146
	b	.L21	@long jump
.LCB146:
	.loc 1 64 0 discriminator 2
	ldr	r3, [r7, #4]
	ldrb	r3, [r3, #24]
	.loc 1 63 0 discriminator 2
	cmp	r3, #2
	beq	.LCB150
	b	.L21	@long jump
.LCB150:
	.loc 1 64 0
	ldr	r3, [r7]
	cmp	r3, #0
	bne	.LCB153
	b	.L21	@long jump
.LCB153:
	.loc 1 66 0
	movs	r3, #8
	adds	r2, r7, r3
	ldr	r3, [r7, #4]
	adds	r3, r3, #12
	ldmia	r3!, {r0, r1}
	stmia	r2!, {r0, r1}
	.loc 1 67 0
	ldr	r3, [r7, #4]
	ldr	r2, [r3, #20]
	movs	r3, #23
	adds	r3, r7, r3
	movs	r1, #62
	ldrb	r2, [r2, r1]
	strb	r2, [r3]
	.loc 1 69 0
	ldr	r3, [r7, #24]
	movs	r2, #85
	ldrb	r3, [r3, r2]
	movs	r2, #1
	rsbs	r5, r2, #0
	ldr	r4, [r7]
	movs	r2, #8
	adds	r1, r7, r2
	movs	r2, #23
	adds	r2, r7, r2
	ldrb	r0, [r2]
	str	r3, [sp, #4]
	ldr	r3, .L22
	str	r3, [sp]
	movs	r3, r5
	movs	r2, r4
	bl	GDI_Draw3DFrame
	.loc 1 70 0
	movs	r3, #8
	adds	r2, r7, r3
	ldr	r3, [r7, #4]
	movs	r1, r2
	movs	r0, r3
	bl	GUI_CalcClientAreaButton
	.loc 1 72 0
	movs	r3, #8
	adds	r3, r7, r3
	movs	r0, r3
	bl	IsRectCollapsed
	subs	r3, r0, #0
	bne	.L10
	.loc 1 74 0
	ldr	r3, [r7, #24]
	ldr	r3, [r3, #80]
	cmp	r3, #0
	beq	.L15
.LBB3:
	.loc 1 76 0
	ldr	r3, [r7, #24]
	ldr	r3, [r3, #20]
	movs	r2, #62
	ldrb	r0, [r3, r2]
	.loc 1 77 0
	ldr	r3, [r7, #24]
	adds	r3, r3, #60
	movs	r1, r3
	.loc 1 80 0
	ldr	r3, [r7, #24]
	ldrb	r3, [r3, #25]
	.loc 1 76 0
	cmp	r3, #0
	beq	.L16
	.loc 1 80 0
	ldr	r3, [r7, #24]
	ldrb	r3, [r3, #27]
	cmp	r3, #0
	beq	.L16
	.loc 1 76 0
	ldr	r3, [r7, #24]
	ldr	r2, [r3, #68]
	b	.L17
.L16:
	.loc 1 76 0 is_stmt 0 discriminator 1
	ldr	r2, .L22
.L17:
	.loc 1 76 0 discriminator 3
	ldr	r3, [r7, #24]
	ldr	r3, [r3, #72]
	ldr	r5, [r7]
	movs	r4, #8
	adds	r4, r7, r4
	str	r3, [sp, #4]
	str	r2, [sp]
	movs	r3, r5
	movs	r2, r4
	bl	GDI_DrawText
	movs	r3, r0
	str	r3, [r7, #16]
	.loc 1 83 0 is_stmt 1 discriminator 3
	ldr	r3, [r7, #16]
	cmp	r3, #0
	beq	.L15
.LBB4:
	.loc 1 87 0
	movs	r3, #0
	str	r3, [r7, #28]
	b	.L18
.L19:
	.loc 1 88 0 discriminator 3
	ldr	r3, [r7, #24]
	ldr	r4, [r3, #88]
	ldr	r2, [r7, #16]
	ldr	r3, [r7, #28]
	lsls	r3, r3, #3
	movs	r1, #4
	adds	r3, r2, r3
	adds	r2, r3, r1
	movs	r3, #23
	adds	r3, r7, r3
	ldrb	r0, [r3]
	movs	r3, r4
	ldr	r1, [r2]
	ldr	r2, [r2, #4]
	bl	GDI_FillRectangle
	.loc 1 87 0 discriminator 3
	ldr	r3, [r7, #28]
	adds	r3, r3, #1
	str	r3, [r7, #28]
.L18:
	.loc 1 87 0 is_stmt 0 discriminator 1
	ldr	r3, [r7, #16]
	ldr	r2, [r3]
	ldr	r3, [r7, #28]
	cmp	r2, r3
	bhi	.L19
	.loc 1 90 0 is_stmt 1
	ldr	r3, [r7, #16]
	movs	r0, r3
	bl	GDI_DeleteRList
	.loc 1 91 0
	b	.L10
.L15:
.LBE4:
.LBE3:
	.loc 1 94 0
	ldr	r2, [r7]
	movs	r3, #8
	adds	r3, r7, r3
	movs	r1, r2
	movs	r0, r3
	bl	GDI_ANDRectangles
	subs	r3, r0, #0
	beq	.L10
	.loc 1 95 0
	ldr	r3, [r7, #24]
	ldr	r1, [r3, #88]
	movs	r3, #8
	adds	r2, r7, r3
	movs	r3, #23
	adds	r3, r7, r3
	ldrb	r0, [r3]
	movs	r3, r1
	ldr	r1, [r2]
	ldr	r2, [r2, #4]
	bl	GDI_FillRectangle
	b	.L10
.L21:
	.loc 1 64 0
	nop
.L10:
	.loc 1 97 0
	mov	sp, r7
	add	sp, sp, #32
	@ sp needed
	pop	{r4, r5, r7, pc}
.L23:
	.align	2
.L22:
	.word	-8355712
	.cfi_endproc
.LFE3:
	.size	GUI_DrawDefaultButton, .-GUI_DrawDefaultButton
	.section	.text.GUI_CreateButton,"ax",%progbits
	.align	2
	.global	GUI_CreateButton
	.code	16
	.thumb_func
	.type	GUI_CreateButton, %function
GUI_CreateButton:
.LFB4:
	.loc 1 101 0
	.cfi_startproc
	@ args = 36, pretend = 8, frame = 48
	@ frame_needed = 1, uses_anonymous_args = 0
	sub	sp, sp, #8
	.cfi_def_cfa_offset 8
	push	{r4, r7, lr}
	.cfi_def_cfa_offset 20
	.cfi_offset 4, -20
	.cfi_offset 7, -16
	.cfi_offset 14, -12
	sub	sp, sp, #52
	.cfi_def_cfa_offset 72
	add	r7, sp, #0
	.cfi_def_cfa_register 7
	str	r0, [r7, #20]
	movs	r0, #12
	adds	r0, r7, r0
	str	r1, [r0]
	str	r2, [r0, #4]
	movs	r2, #4
	movs	r1, #64
	mov	ip, r1
	add	ip, ip, r7
	add	r2, r2, ip
	str	r3, [r2]
	.loc 1 105 0
	ldr	r3, [r7, #20]
	cmp	r3, #0
	beq	.L25
	.loc 1 106 0 discriminator 1
	ldr	r3, [r7, #20]
	movs	r0, r3
	bl	GUI_IsWindowObject
	subs	r3, r0, #0
	.loc 1 105 0 discriminator 1
	beq	.L25
	.loc 1 106 0
	ldr	r3, [r7, #20]
	movs	r0, r3
	bl	GUI_IsLayerObject
	subs	r3, r0, #0
	beq	.L26
.L25:
	.loc 1 106 0 discriminator 1
	movs	r3, #0
	b	.L27
.L26:
	.loc 1 108 0
	movs	r0, #92
	bl	malloc
	movs	r3, r0
	str	r3, [r7, #44]
	.loc 1 109 0
	ldr	r3, [r7, #44]
	cmp	r3, #0
	bne	.LCB378
	b	.L28	@long jump
.LCB378:
.LBB5:
	.loc 1 111 0
	ldr	r3, [r7, #20]
	adds	r3, r3, #68
	str	r3, [r7, #36]
	.loc 1 113 0
	ldr	r3, [r7, #44]
	movs	r2, #92
	movs	r1, #0
	movs	r0, r3
	bl	memset
.LBB6:
	.loc 1 115 0
	movs	r3, #12
	adds	r3, r7, r3
	movs	r2, #0
	ldrsh	r2, [r3, r2]
	movs	r3, #12
	adds	r3, r7, r3
	movs	r1, #4
	ldrsh	r3, [r3, r1]
	cmp	r2, r3
	ble	.L29
	.loc 1 115 0 is_stmt 0 discriminator 1
	movs	r3, #34
	adds	r3, r7, r3
	movs	r2, #12
	adds	r2, r7, r2
	ldrh	r2, [r2]
	strh	r2, [r3]
	movs	r3, #12
	adds	r3, r7, r3
	movs	r2, #4
	ldrsh	r2, [r3, r2]
	movs	r3, #12
	adds	r3, r7, r3
	strh	r2, [r3]
	movs	r3, #12
	adds	r3, r7, r3
	movs	r2, #34
	adds	r2, r7, r2
	ldrh	r2, [r2]
	strh	r2, [r3, #4]
.L29:
.LBE6:
.LBB7:
	.loc 1 116 0 is_stmt 1
	movs	r3, #12
	adds	r3, r7, r3
	movs	r2, #2
	ldrsh	r2, [r3, r2]
	movs	r3, #12
	adds	r3, r7, r3
	movs	r1, #6
	ldrsh	r3, [r3, r1]
	cmp	r2, r3
	ble	.L30
	.loc 1 116 0 is_stmt 0 discriminator 1
	movs	r3, #32
	adds	r3, r7, r3
	movs	r2, #12
	adds	r2, r7, r2
	ldrh	r2, [r2, #2]
	strh	r2, [r3]
	movs	r3, #12
	adds	r3, r7, r3
	movs	r2, #6
	ldrsh	r2, [r3, r2]
	movs	r3, #12
	adds	r3, r7, r3
	strh	r2, [r3, #2]
	movs	r3, #12
	adds	r3, r7, r3
	movs	r2, #32
	adds	r2, r7, r2
	ldrh	r2, [r2]
	strh	r2, [r3, #6]
.L30:
.LBE7:
	.loc 1 118 0 is_stmt 1
	ldr	r3, [r7, #20]
	adds	r3, r3, #12
	movs	r2, r3
	ldr	r4, [r7, #44]
	movs	r3, r7
	movs	r1, #12
	adds	r1, r7, r1
	movs	r0, r3
	bl	GDI_LocalToGlobalRct
	movs	r2, r7
	movs	r3, r4
	adds	r3, r3, #12
	movs	r1, r2
	movs	r2, #8
	movs	r0, r3
	bl	memcpy
	.loc 1 119 0
	ldr	r3, [r7, #44]
	ldr	r2, [r7, #20]
	str	r2, [r3, #20]
	.loc 1 120 0
	movs	r3, #32
	movs	r2, #64
	mov	ip, r2
	add	ip, ip, r7
	add	r3, r3, ip
	ldrb	r3, [r3]
	movs	r2, #1
	ands	r3, r2
	subs	r2, r3, #1
	sbcs	r3, r3, r2
	lsls	r3, r3, #24
	lsrs	r3, r3, #24
	movs	r2, r3
	ldr	r3, [r7, #44]
	strb	r2, [r3, #25]
	.loc 1 121 0
	movs	r3, #32
	movs	r2, #64
	mov	ip, r2
	add	ip, ip, r7
	add	r3, r3, ip
	ldrb	r3, [r3]
	movs	r2, #2
	ands	r3, r2
	subs	r2, r3, #1
	sbcs	r3, r3, r2
	lsls	r3, r3, #24
	lsrs	r3, r3, #24
	movs	r2, r3
	ldr	r3, [r7, #44]
	strb	r2, [r3, #26]
	.loc 1 122 0
	ldr	r3, [r7, #20]
	ldrb	r3, [r3, #25]
	cmp	r3, #0
	beq	.L31
	.loc 1 122 0 is_stmt 0 discriminator 1
	ldr	r3, [r7, #20]
	ldrb	r3, [r3, #27]
	cmp	r3, #0
	beq	.L31
	.loc 1 122 0 discriminator 3
	movs	r3, #1
	b	.L32
.L31:
	.loc 1 122 0 discriminator 4
	movs	r3, #0
.L32:
	.loc 1 122 0 discriminator 6
	lsls	r3, r3, #24
	lsrs	r2, r3, #24
	ldr	r3, [r7, #44]
	strb	r2, [r3, #27]
	.loc 1 123 0 is_stmt 1 discriminator 6
	ldr	r3, [r7, #20]
	ldrb	r3, [r3, #26]
	cmp	r3, #0
	beq	.L33
	.loc 1 123 0 is_stmt 0 discriminator 1
	ldr	r3, [r7, #20]
	ldrb	r3, [r3, #28]
	cmp	r3, #0
	beq	.L33
	.loc 1 123 0 discriminator 3
	movs	r3, #1
	b	.L34
.L33:
	.loc 1 123 0 discriminator 4
	movs	r3, #0
.L34:
	.loc 1 123 0 discriminator 6
	lsls	r3, r3, #24
	lsrs	r2, r3, #24
	ldr	r3, [r7, #44]
	strb	r2, [r3, #28]
	.loc 1 125 0 is_stmt 1 discriminator 6
	ldr	r3, [r7, #44]
	ldr	r2, [r7, #92]
	str	r2, [r3, #88]
	.loc 1 126 0 discriminator 6
	movs	r3, #32
	movs	r2, #64
	mov	ip, r2
	add	ip, ip, r7
	add	r3, r3, ip
	ldrb	r3, [r3]
	movs	r2, #16
	ands	r3, r2
	subs	r2, r3, #1
	sbcs	r3, r3, r2
	lsls	r3, r3, #24
	lsrs	r3, r3, #24
	movs	r1, r3
	ldr	r3, [r7, #44]
	movs	r2, #84
	strb	r1, [r3, r2]
	.loc 1 128 0 discriminator 6
	movs	r3, #68
	adds	r3, r7, r3
	movs	r0, r3
	bl	GDI_UpdateTextExtent
	.loc 1 129 0 discriminator 6
	ldr	r3, [r7, #44]
	movs	r2, #4
	movs	r1, #64
	mov	ip, r1
	add	ip, ip, r7
	add	r2, r2, ip
	adds	r3, r3, #60
	ldmia	r2!, {r0, r1, r4}
	stmia	r3!, {r0, r1, r4}
	ldmia	r2!, {r0, r1, r4}
	stmia	r3!, {r0, r1, r4}
	.loc 1 130 0 discriminator 6
	ldr	r3, [r7, #44]
	ldr	r2, [r3, #88]
	ldr	r3, [r7, #44]
	str	r2, [r3, #72]
	.loc 1 132 0 discriminator 6
	ldr	r3, [r7, #36]
	ldr	r3, [r3, #8]
	cmp	r3, #0
	bne	.L35
	.loc 1 132 0 is_stmt 0 discriminator 1
	ldr	r2, [r7, #44]
	movs	r3, #43
	adds	r4, r7, r3
	ldr	r3, [r7, #36]
	movs	r1, r2
	movs	r0, r3
	bl	DL_AddItemPtr
	movs	r3, r0
	strb	r3, [r4]
	b	.L36
.L35:
.LBB8:
	.loc 1 137 0 is_stmt 1
	movs	r3, #28
	adds	r2, r7, r3
	ldr	r3, [r7, #20]
	movs	r1, r2
	movs	r0, r3
	bl	GUI_GetTopNonWindowObject
	.loc 1 139 0
	ldr	r3, [r7, #28]
	cmp	r3, #0
	bne	.L37
	.loc 1 140 0 discriminator 1
	ldr	r2, [r7, #44]
	.loc 1 139 0 discriminator 1
	ldr	r3, [r7, #36]
	movs	r1, #0
	movs	r0, r3
	bl	DL_AddItemAtIndexPtr
	movs	r3, r0
	movs	r2, r3
	b	.L38
.L37:
	.loc 1 141 0 discriminator 2
	ldr	r1, [r7, #28]
	ldr	r2, [r7, #44]
	.loc 1 139 0 discriminator 2
	ldr	r3, [r7, #36]
	movs	r0, r3
	bl	DL_InsertItemAfterPtr
	movs	r3, r0
	movs	r2, r3
.L38:
	.loc 1 139 0 is_stmt 0 discriminator 4
	movs	r3, #43
	adds	r3, r7, r3
	strb	r2, [r3]
.L36:
.LBE8:
	.loc 1 144 0 is_stmt 1
	movs	r3, #43
	adds	r3, r7, r3
	ldrb	r3, [r3]
	cmp	r3, #0
	beq	.L39
	.loc 1 146 0
	ldr	r3, [r7, #44]
	movs	r2, #2
	strb	r2, [r3, #24]
	.loc 1 147 0
	ldr	r3, [r7, #44]
	ldrb	r3, [r3, #26]
	cmp	r3, #0
	beq	.L28
	.loc 1 147 0 is_stmt 0 discriminator 1
	ldr	r3, [r7, #44]
	ldrb	r3, [r3, #28]
	cmp	r3, #0
	beq	.L28
	.loc 1 148 0 is_stmt 1
	ldr	r3, [r7, #44]
	movs	r0, r3
	bl	GUI_Invalidate
	b	.L28
.L39:
	.loc 1 152 0
	ldr	r3, [r7, #44]
	movs	r0, r3
	bl	free
	.loc 1 153 0
	movs	r3, #0
	str	r3, [r7, #44]
.L28:
.LBE5:
	.loc 1 156 0
	ldr	r3, [r7, #44]
.L27:
	.loc 1 157 0
	movs	r0, r3
	mov	sp, r7
	add	sp, sp, #52
	@ sp needed
	pop	{r4, r7}
	pop	{r3}
	add	sp, sp, #8
	bx	r3
	.cfi_endproc
.LFE4:
	.size	GUI_CreateButton, .-GUI_CreateButton
	.section	.text.GUI_DestroyButton,"ax",%progbits
	.align	2
	.global	GUI_DestroyButton
	.code	16
	.thumb_func
	.type	GUI_DestroyButton, %function
GUI_DestroyButton:
.LFB5:
	.loc 1 160 0
	.cfi_startproc
	@ args = 0, pretend = 0, frame = 16
	@ frame_needed = 1, uses_anonymous_args = 0
	push	{r7, lr}
	.cfi_def_cfa_offset 8
	.cfi_offset 7, -8
	.cfi_offset 14, -4
	sub	sp, sp, #16
	.cfi_def_cfa_offset 24
	add	r7, sp, #0
	.cfi_def_cfa_register 7
	str	r0, [r7, #4]
	.loc 1 161 0
	ldr	r3, [r7, #4]
	cmp	r3, #0
	beq	.L45
	.loc 1 161 0 discriminator 1
	ldr	r3, [r7, #4]
	ldrb	r3, [r3, #24]
	cmp	r3, #2
	bne	.L45
.LBB9:
	.loc 1 163 0
	ldr	r3, [r7, #4]
	str	r3, [r7, #12]
	.loc 1 165 0
	ldr	r3, [r7, #12]
	ldr	r3, [r3, #76]
	cmp	r3, #0
	beq	.L43
	.loc 1 165 0 discriminator 1
	ldr	r3, [r7, #12]
	ldr	r3, [r3, #76]
	movs	r0, r3
	bl	IsDynamicMemory
	subs	r3, r0, #0
	beq	.L43
	.loc 1 166 0
	ldr	r3, [r7, #12]
	ldr	r3, [r3, #76]
	movs	r0, r3
	bl	free
.L43:
	.loc 1 167 0
	ldr	r3, [r7, #12]
	movs	r2, #0
	str	r2, [r3, #76]
	.loc 1 169 0
	ldr	r3, [r7, #12]
	ldr	r3, [r3, #80]
	cmp	r3, #0
	beq	.L44
	.loc 1 169 0 discriminator 1
	ldr	r3, [r7, #12]
	ldr	r3, [r3, #80]
	movs	r0, r3
	bl	IsDynamicMemory
	subs	r3, r0, #0
	beq	.L44
	.loc 1 170 0
	ldr	r3, [r7, #12]
	ldr	r3, [r3, #80]
	movs	r0, r3
	bl	free
.L44:
	.loc 1 171 0
	ldr	r3, [r7, #12]
	movs	r2, #0
	str	r2, [r3, #80]
.L45:
.LBE9:
	.loc 1 173 0
	nop
	mov	sp, r7
	add	sp, sp, #16
	@ sp needed
	pop	{r7, pc}
	.cfi_endproc
.LFE5:
	.size	GUI_DestroyButton, .-GUI_DestroyButton
	.section	.text.GUI_CalcClientAreaButton,"ax",%progbits
	.align	2
	.global	GUI_CalcClientAreaButton
	.code	16
	.thumb_func
	.type	GUI_CalcClientAreaButton, %function
GUI_CalcClientAreaButton:
.LFB6:
	.loc 1 176 0
	.cfi_startproc
	@ args = 0, pretend = 0, frame = 8
	@ frame_needed = 1, uses_anonymous_args = 0
	push	{r7, lr}
	.cfi_def_cfa_offset 8
	.cfi_offset 7, -8
	.cfi_offset 14, -4
	sub	sp, sp, #8
	.cfi_def_cfa_offset 16
	add	r7, sp, #0
	.cfi_def_cfa_register 7
	str	r0, [r7, #4]
	str	r1, [r7]
	.loc 1 177 0
	ldr	r3, [r7, #4]
	cmp	r3, #0
	beq	.L48
	.loc 1 177 0 discriminator 1
	ldr	r3, [r7]
	cmp	r3, #0
	beq	.L48
	.loc 1 179 0
	ldr	r3, [r7, #4]
	movs	r2, #12
	ldrsh	r3, [r3, r2]
	lsls	r3, r3, #16
	lsrs	r3, r3, #16
	adds	r3, r3, #1
	lsls	r3, r3, #16
	lsrs	r3, r3, #16
	lsls	r3, r3, #16
	asrs	r3, r3, #16
	ldr	r2, [r7]
	strh	r3, [r2]
	.loc 1 180 0
	ldr	r3, [r7, #4]
	movs	r2, #14
	ldrsh	r3, [r3, r2]
	lsls	r3, r3, #16
	lsrs	r3, r3, #16
	adds	r3, r3, #1
	lsls	r3, r3, #16
	lsrs	r3, r3, #16
	lsls	r3, r3, #16
	asrs	r3, r3, #16
	ldr	r2, [r7]
	strh	r3, [r2, #2]
	.loc 1 181 0
	ldr	r3, [r7, #4]
	movs	r2, #16
	ldrsh	r3, [r3, r2]
	lsls	r3, r3, #16
	lsrs	r3, r3, #16
	subs	r3, r3, #1
	lsls	r3, r3, #16
	lsrs	r3, r3, #16
	lsls	r3, r3, #16
	asrs	r3, r3, #16
	ldr	r2, [r7]
	strh	r3, [r2, #4]
	.loc 1 182 0
	ldr	r3, [r7, #4]
	movs	r2, #18
	ldrsh	r3, [r3, r2]
	lsls	r3, r3, #16
	lsrs	r3, r3, #16
	subs	r3, r3, #1
	lsls	r3, r3, #16
	lsrs	r3, r3, #16
	lsls	r3, r3, #16
	asrs	r3, r3, #16
	ldr	r2, [r7]
	strh	r3, [r2, #6]
.L48:
	.loc 1 184 0
	nop
	mov	sp, r7
	add	sp, sp, #8
	@ sp needed
	pop	{r7, pc}
	.cfi_endproc
.LFE6:
	.size	GUI_CalcClientAreaButton, .-GUI_CalcClientAreaButton
	.section	.text.GUI_GetTextButton,"ax",%progbits
	.align	2
	.global	GUI_GetTextButton
	.code	16
	.thumb_func
	.type	GUI_GetTextButton, %function
GUI_GetTextButton:
.LFB7:
	.loc 1 187 0
	.cfi_startproc
	@ args = 0, pretend = 0, frame = 8
	@ frame_needed = 1, uses_anonymous_args = 0
	push	{r7, lr}
	.cfi_def_cfa_offset 8
	.cfi_offset 7, -8
	.cfi_offset 14, -4
	sub	sp, sp, #8
	.cfi_def_cfa_offset 16
	add	r7, sp, #0
	.cfi_def_cfa_register 7
	str	r0, [r7, #4]
	.loc 1 188 0
	ldr	r3, [r7, #4]
	cmp	r3, #0
	beq	.L50
	.loc 1 188 0 discriminator 1
	ldr	r3, [r7, #4]
	ldrb	r3, [r3, #24]
	cmp	r3, #2
	bne	.L50
	.loc 1 190 0
	ldr	r3, [r7, #4]
	ldr	r2, [r3, #88]
	ldr	r3, [r7, #4]
	str	r2, [r3, #72]
	.loc 1 192 0
	ldr	r3, [r7, #4]
	adds	r3, r3, #60
	b	.L51
.L50:
	.loc 1 194 0
	movs	r3, #0
.L51:
	.loc 1 195 0
	movs	r0, r3
	mov	sp, r7
	add	sp, sp, #8
	@ sp needed
	pop	{r7, pc}
	.cfi_endproc
.LFE7:
	.size	GUI_GetTextButton, .-GUI_GetTextButton
	.section	.text.GUI_SetTextButton,"ax",%progbits
	.align	2
	.global	GUI_SetTextButton
	.code	16
	.thumb_func
	.type	GUI_SetTextButton, %function
GUI_SetTextButton:
.LFB8:
	.loc 1 198 0
	.cfi_startproc
	@ args = 0, pretend = 0, frame = 8
	@ frame_needed = 1, uses_anonymous_args = 0
	push	{r4, r7, lr}
	.cfi_def_cfa_offset 12
	.cfi_offset 4, -12
	.cfi_offset 7, -8
	.cfi_offset 14, -4
	sub	sp, sp, #12
	.cfi_def_cfa_offset 24
	add	r7, sp, #0
	.cfi_def_cfa_register 7
	str	r0, [r7, #4]
	str	r1, [r7]
	.loc 1 199 0
	ldr	r3, [r7, #4]
	cmp	r3, #0
	beq	.L53
	.loc 1 199 0 discriminator 1
	ldr	r3, [r7, #4]
	ldrb	r3, [r3, #24]
	cmp	r3, #2
	bne	.L53
	.loc 1 199 0 is_stmt 0 discriminator 2
	ldr	r3, [r7]
	cmp	r3, #0
	beq	.L53
	.loc 1 201 0 is_stmt 1
	ldr	r3, [r7, #4]
	ldr	r2, [r7]
	adds	r3, r3, #60
	ldmia	r2!, {r0, r1, r4}
	stmia	r3!, {r0, r1, r4}
	ldmia	r2!, {r0, r1, r4}
	stmia	r3!, {r0, r1, r4}
	.loc 1 202 0
	ldr	r3, [r7, #4]
	ldr	r2, [r3, #88]
	ldr	r3, [r7, #4]
	str	r2, [r3, #72]
	.loc 1 204 0
	movs	r3, #1
	b	.L54
.L53:
	.loc 1 206 0
	movs	r3, #0
.L54:
	.loc 1 207 0
	movs	r0, r3
	mov	sp, r7
	add	sp, sp, #12
	@ sp needed
	pop	{r4, r7, pc}
	.cfi_endproc
.LFE8:
	.size	GUI_SetTextButton, .-GUI_SetTextButton
	.section	.text.GUI_SetActiveButton,"ax",%progbits
	.align	2
	.global	GUI_SetActiveButton
	.code	16
	.thumb_func
	.type	GUI_SetActiveButton, %function
GUI_SetActiveButton:
.LFB9:
	.loc 1 210 0
	.cfi_startproc
	@ args = 0, pretend = 0, frame = 8
	@ frame_needed = 1, uses_anonymous_args = 0
	push	{r7, lr}
	.cfi_def_cfa_offset 8
	.cfi_offset 7, -8
	.cfi_offset 14, -4
	sub	sp, sp, #8
	.cfi_def_cfa_offset 16
	add	r7, sp, #0
	.cfi_def_cfa_register 7
	str	r0, [r7, #4]
	movs	r2, r1
	adds	r3, r7, #3
	strb	r2, [r3]
	.loc 1 211 0
	ldr	r3, [r7, #4]
	cmp	r3, #0
	beq	.L61
	.loc 1 211 0 discriminator 1
	ldr	r3, [r7, #4]
	ldrb	r3, [r3, #24]
	cmp	r3, #2
	bne	.L61
	.loc 1 213 0
	ldr	r3, [r7, #4]
	adds	r2, r7, #3
	movs	r1, #85
	ldrb	r2, [r2]
	strb	r2, [r3, r1]
	.loc 1 215 0
	adds	r3, r7, #3
	ldrb	r3, [r3]
	cmp	r3, #0
	beq	.L57
	.loc 1 215 0 is_stmt 0 discriminator 1
	ldr	r3, [r7, #4]
	movs	r2, #84
	ldrb	r3, [r3, r2]
	cmp	r3, #0
	beq	.L57
	.loc 1 217 0 is_stmt 1
	ldr	r3, .L62
	movs	r2, #0
	strb	r2, [r3]
	.loc 1 218 0
	ldr	r1, .L62+4
	movs	r3, #250
	lsls	r3, r3, #2
	movs	r2, #3
	movs	r0, r3
	bl	LRT_Create
	movs	r2, r0
	ldr	r3, .L62+8
	str	r2, [r3]
	.loc 1 219 0
	ldr	r3, .L62+8
	ldr	r3, [r3]
	.loc 1 219 0
	cmp	r3, #0
	beq	.L58
	.loc 1 219 0 is_stmt 0 discriminator 1
	ldr	r2, [r7, #4]
	b	.L59
.L58:
	.loc 1 219 0 discriminator 2
	movs	r2, #0
.L59:
	.loc 1 219 0 is_stmt 1 discriminator 4
	ldr	r3, .L62+12
	str	r2, [r3]
	b	.L56
.L57:
	.loc 1 221 0
	ldr	r3, .L62+8
	ldr	r3, [r3]
	cmp	r3, #0
	beq	.L61
	.loc 1 222 0
	bl	GUI_DisableButtonTimer
.L56:
	.loc 1 224 0
	nop
.L61:
	nop
	.loc 1 225 0
	mov	sp, r7
	add	sp, sp, #8
	@ sp needed
	pop	{r7, pc}
.L63:
	.align	2
.L62:
	.word	ButtonDelayDone
	.word	GUI_ButtonTimerHandler
	.word	ButtonTimer
	.word	ArepeatButton
	.cfi_endproc
.LFE9:
	.size	GUI_SetActiveButton, .-GUI_SetActiveButton
	.section	.text.GUI_GetActiveButton,"ax",%progbits
	.align	2
	.global	GUI_GetActiveButton
	.code	16
	.thumb_func
	.type	GUI_GetActiveButton, %function
GUI_GetActiveButton:
.LFB10:
	.loc 1 228 0
	.cfi_startproc
	@ args = 0, pretend = 0, frame = 8
	@ frame_needed = 1, uses_anonymous_args = 0
	push	{r7, lr}
	.cfi_def_cfa_offset 8
	.cfi_offset 7, -8
	.cfi_offset 14, -4
	sub	sp, sp, #8
	.cfi_def_cfa_offset 16
	add	r7, sp, #0
	.cfi_def_cfa_register 7
	str	r0, [r7, #4]
	.loc 1 229 0
	ldr	r3, [r7, #4]
	cmp	r3, #0
	beq	.L65
	.loc 1 229 0 discriminator 1
	ldr	r3, [r7, #4]
	ldrb	r3, [r3, #24]
	cmp	r3, #2
	bne	.L65
	.loc 1 229 0 discriminator 3
	ldr	r3, [r7, #4]
	movs	r2, #85
	ldrb	r3, [r3, r2]
	b	.L66
.L65:
	.loc 1 229 0 is_stmt 0 discriminator 4
	movs	r3, #0
.L66:
	.loc 1 231 0 is_stmt 1 discriminator 6
	movs	r0, r3
	mov	sp, r7
	add	sp, sp, #8
	@ sp needed
	pop	{r7, pc}
	.cfi_endproc
.LFE10:
	.size	GUI_GetActiveButton, .-GUI_GetActiveButton
	.text
.Letext0:
	.file 2 "d:\\1.11\\share\\em_armgcc\\arm-none-eabi\\include\\machine\\_default_types.h"
	.file 3 "d:\\1.11\\share\\em_armgcc\\arm-none-eabi\\include\\sys\\_stdint.h"
	.file 4 ".\\Source/systypes.h"
	.file 5 ".\\Source\\System/dlist.h"
	.file 6 ".\\Source\\GUI/gditypes.h"
	.file 7 ".\\Source\\Lib\\MT6261/drivers\\lcdif.h"
	.file 8 ".\\Source\\Lib\\MT6261/drivers\\usb.h"
	.file 9 ".\\Source\\System/evmngr.h"
	.file 10 ".\\Source\\System/lrtimer.h"
	.file 11 ".\\Source\\GUI/bfcfont.h"
	.file 12 ".\\Source\\GUI/gdifont.h"
	.file 13 ".\\Source\\GUI/guiobject.h"
	.file 14 ".\\Source\\GUI/guiwin.h"
	.file 15 ".\\Source\\GUI/guibutton.h"