	.syntax unified
	.cpu arm9e
	.fpu softvfp
	.eabi_attribute 20, 1
	.eabi_attribute 21, 1
	.eabi_attribute 23, 3
	.eabi_attribute 24, 1
	.eabi_attribute 25, 1
	.eabi_attribute 26, 1
	.eabi_attribute 30, 6
	.eabi_attribute 34, 0
	.eabi_attribute 18, 4
	.thumb
	.syntax unified
	.file	"guiobject.c"
	.text
.Ltext0:
	.cfi_sections	.debug_frame
	.section	.bss.ActiveObject,"aw",%nobits
	.align	2
	.type	ActiveObject, %object
	.size	ActiveObject, 4
ActiveObject:
	.space	4
	.section	.text.GUI_UpdateChildPositions,"ax",%progbits
	.align	2
	.code	16
	.thumb_func
	.type	GUI_UpdateChildPositions, %function
GUI_UpdateChildPositions:
.LFB1:
	.file 1 "Source\\GUI\\guiobject.c"
	.loc 1 27 0
	.cfi_startproc
	@ args = 0, pretend = 0, frame = 24
	@ frame_needed = 1, uses_anonymous_args = 0
	push	{r7, lr}
	.cfi_def_cfa_offset 8
	.cfi_offset 7, -8
	.cfi_offset 14, -4
	sub	sp, sp, #24
	.cfi_def_cfa_offset 32
	add	r7, sp, #0
	.cfi_def_cfa_register 7
	str	r0, [r7, #4]
	str	r1, [r7]
	.loc 1 28 0
	ldr	r3, [r7, #4]
	adds	r3, r3, #68
	str	r3, [r7, #16]
	.loc 1 30 0
	ldr	r3, [r7, #16]
	movs	r0, r3
	bl	DL_GetItemsCount
	subs	r3, r0, #0
	beq	.L6
.LBB2:
	.loc 1 32 0
	ldr	r3, [r7, #16]
	movs	r0, r3
	bl	DL_GetFirstItem
	movs	r3, r0
	str	r3, [r7, #20]
	.loc 1 34 0
	b	.L3
.L5:
.LBB3:
	.loc 1 36 0
	ldr	r3, [r7, #20]
	ldr	r3, [r3, #8]
	str	r3, [r7, #12]
	.loc 1 38 0
	ldr	r3, [r7, #12]
	cmp	r3, #0
	beq	.L4
	.loc 1 40 0
	ldr	r3, [r7, #12]
	movs	r2, #12
	ldrsh	r3, [r3, r2]
	lsls	r3, r3, #16
	lsrs	r2, r3, #16
	ldr	r3, [r7]
	movs	r1, #0
	ldrsh	r3, [r3, r1]
	lsls	r3, r3, #16
	lsrs	r3, r3, #16
	adds	r3, r2, r3
	lsls	r3, r3, #16
	lsrs	r3, r3, #16
	lsls	r3, r3, #16
	asrs	r3, r3, #16
	ldr	r2, [r7, #12]
	strh	r3, [r2, #12]
	.loc 1 41 0
	ldr	r3, [r7, #12]
	movs	r2, #16
	ldrsh	r3, [r3, r2]
	lsls	r3, r3, #16
	lsrs	r2, r3, #16
	ldr	r3, [r7]
	movs	r1, #0
	ldrsh	r3, [r3, r1]
	lsls	r3, r3, #16
	lsrs	r3, r3, #16
	adds	r3, r2, r3
	lsls	r3, r3, #16
	lsrs	r3, r3, #16
	lsls	r3, r3, #16
	asrs	r3, r3, #16
	ldr	r2, [r7, #12]
	strh	r3, [r2, #16]
	.loc 1 42 0
	ldr	r3, [r7, #12]
	movs	r2, #14
	ldrsh	r3, [r3, r2]
	lsls	r3, r3, #16
	lsrs	r2, r3, #16
	ldr	r3, [r7]
	movs	r1, #2
	ldrsh	r3, [r3, r1]
	lsls	r3, r3, #16
	lsrs	r3, r3, #16
	adds	r3, r2, r3
	lsls	r3, r3, #16
	lsrs	r3, r3, #16
	lsls	r3, r3, #16
	asrs	r3, r3, #16
	ldr	r2, [r7, #12]
	strh	r3, [r2, #14]
	.loc 1 43 0
	ldr	r3, [r7, #12]
	movs	r2, #18
	ldrsh	r3, [r3, r2]
	lsls	r3, r3, #16
	lsrs	r2, r3, #16
	ldr	r3, [r7]
	movs	r1, #2
	ldrsh	r3, [r3, r1]
	lsls	r3, r3, #16
	lsrs	r3, r3, #16
	adds	r3, r2, r3
	lsls	r3, r3, #16
	lsrs	r3, r3, #16
	lsls	r3, r3, #16
	asrs	r3, r3, #16
	ldr	r2, [r7, #12]
	strh	r3, [r2, #18]
	.loc 1 45 0
	ldr	r3, [r7, #12]
	movs	r0, r3
	bl	GUI_IsWindowObject
	subs	r3, r0, #0
	beq	.L4
	.loc 1 46 0
	ldr	r2, [r7]
	ldr	r3, [r7, #12]
	movs	r1, r2
	movs	r0, r3
	bl	GUI_UpdateChildPositions
.L4:
	.loc 1 48 0
	ldr	r3, [r7, #20]
	movs	r0, r3
	bl	DL_GetNextItem
	movs	r3, r0
	str	r3, [r7, #20]
.L3:
.LBE3:
	.loc 1 34 0
	ldr	r3, [r7, #20]
	cmp	r3, #0
	bne	.L5
.L6:
.LBE2:
	.loc 1 51 0
	nop
	mov	sp, r7
	add	sp, sp, #24
	@ sp needed
	pop	{r7, pc}
	.cfi_endproc
.LFE1:
	.size	GUI_UpdateChildPositions, .-GUI_UpdateChildPositions
	.section	.text.GUI_GetObjectRecursive,"ax",%progbits
	.align	2
	.code	16
	.thumb_func
	.type	GUI_GetObjectRecursive, %function
GUI_GetObjectRecursive:
.LFB2:
	.loc 1 54 0
	.cfi_startproc
	@ args = 0, pretend = 0, frame = 24
	@ frame_needed = 1, uses_anonymous_args = 0
	push	{r7, lr}
	.cfi_def_cfa_offset 8
	.cfi_offset 7, -8
	.cfi_offset 14, -4
	sub	sp, sp, #24
	.cfi_def_cfa_offset 32
	add	r7, sp, #0
	.cfi_def_cfa_register 7
	str	r0, [r7, #4]
	str	r1, [r7]
	.loc 1 55 0
	ldr	r3, [r7, #4]
	adds	r3, r3, #68
	str	r3, [r7, #12]
	.loc 1 56 0
	ldr	r3, [r7, #12]
	movs	r0, r3
	bl	DL_GetLastItem
	movs	r3, r0
	str	r3, [r7, #20]
	.loc 1 59 0
	b	.L8
.L12:
.LBB4:
	.loc 1 63 0
	ldr	r3, [r7, #20]
	ldr	r3, [r3, #8]
	str	r3, [r7, #16]
	.loc 1 64 0
	ldr	r3, [r7, #16]
	cmp	r3, #0
	beq	.L9
	.loc 1 64 0 discriminator 1
	ldr	r3, [r7, #16]
	ldrb	r3, [r3, #26]
	cmp	r3, #0
	beq	.L9
	.loc 1 65 0 discriminator 2
	ldr	r3, [r7, #16]
	adds	r3, r3, #12
	movs	r2, r3
	ldr	r3, [r7]
	movs	r1, r2
	movs	r0, r3
	bl	IsPointInRect
	subs	r3, r0, #0
	.loc 1 64 0 discriminator 2
	beq	.L9
	.loc 1 67 0
	ldr	r3, [r7, #16]
	movs	r0, r3
	bl	GUI_IsWindowObject
	subs	r3, r0, #0
	beq	.L10
	.loc 1 69 0
	ldr	r2, [r7]
	ldr	r3, [r7, #16]
	movs	r1, r2
	movs	r0, r3
	bl	GUI_GetObjectRecursive
	movs	r3, r0
	str	r3, [r7, #8]
	.loc 1 70 0
	ldr	r3, [r7, #8]
	cmp	r3, #0
	beq	.L10
	.loc 1 70 0 discriminator 1
	ldr	r3, [r7, #8]
	str	r3, [r7, #16]
.L10:
	.loc 1 72 0
	ldr	r3, [r7, #16]
	b	.L11
.L9:
	.loc 1 74 0
	ldr	r3, [r7, #20]
	movs	r0, r3
	bl	DL_GetPrevItem
	movs	r3, r0
	str	r3, [r7, #20]
.L8:
.LBE4:
	.loc 1 59 0
	ldr	r3, [r7, #20]
	cmp	r3, #0
	bne	.L12
	.loc 1 76 0
	movs	r3, #0
.L11:
	.loc 1 77 0
	movs	r0, r3
	mov	sp, r7
	add	sp, sp, #24
	@ sp needed
	pop	{r7, pc}
	.cfi_endproc
.LFE2:
	.size	GUI_GetObjectRecursive, .-GUI_GetObjectRecursive
	.section	.text.GUI_UpdateChildTreeInheritance,"ax",%progbits
	.align	2
	.code	16
	.thumb_func
	.type	GUI_UpdateChildTreeInheritance, %function
GUI_UpdateChildTreeInheritance:
.LFB3:
	.loc 1 80 0
	.cfi_startproc
	@ args = 0, pretend = 0, frame = 24
	@ frame_needed = 1, uses_anonymous_args = 0
	push	{r7, lr}
	.cfi_def_cfa_offset 8
	.cfi_offset 7, -8
	.cfi_offset 14, -4
	sub	sp, sp, #24
	.cfi_def_cfa_offset 32
	add	r7, sp, #0
	.cfi_def_cfa_register 7
	str	r0, [r7, #4]
	.loc 1 81 0
	ldr	r3, [r7, #4]
	adds	r3, r3, #68
	str	r3, [r7, #16]
	.loc 1 83 0
	ldr	r3, [r7, #16]
	movs	r0, r3
	bl	DL_GetItemsCount
	subs	r3, r0, #0
	beq	.L24
.LBB5:
	.loc 1 85 0
	ldr	r3, [r7, #16]
	movs	r0, r3
	bl	DL_GetFirstItem
	movs	r3, r0
	str	r3, [r7, #20]
	.loc 1 87 0
	b	.L15
.L23:
.LBB6:
	.loc 1 89 0
	ldr	r3, [r7, #20]
	ldr	r3, [r3, #8]
	str	r3, [r7, #12]
	.loc 1 91 0
	ldr	r3, [r7, #12]
	cmp	r3, #0
	beq	.L16
	.loc 1 93 0
	ldr	r3, [r7, #4]
	ldrb	r3, [r3, #25]
	cmp	r3, #0
	beq	.L17
	.loc 1 93 0 is_stmt 0 discriminator 1
	ldr	r3, [r7, #4]
	ldrb	r3, [r3, #27]
	cmp	r3, #0
	beq	.L17
	.loc 1 93 0 discriminator 3
	movs	r3, #1
	b	.L18
.L17:
	.loc 1 93 0 discriminator 4
	movs	r3, #0
.L18:
	.loc 1 93 0 discriminator 6
	lsls	r3, r3, #24
	lsrs	r2, r3, #24
	ldr	r3, [r7, #12]
	strb	r2, [r3, #27]
	.loc 1 94 0 is_stmt 1 discriminator 6
	ldr	r3, [r7, #4]
	ldrb	r3, [r3, #26]
	cmp	r3, #0
	beq	.L19
	.loc 1 94 0 is_stmt 0 discriminator 1
	ldr	r3, [r7, #4]
	ldrb	r3, [r3, #28]
	cmp	r3, #0
	beq	.L19
	.loc 1 94 0 discriminator 3
	movs	r3, #1
	b	.L20
.L19:
	.loc 1 94 0 discriminator 4
	movs	r3, #0
.L20:
	.loc 1 94 0 discriminator 6
	lsls	r3, r3, #24
	lsrs	r2, r3, #24
	ldr	r3, [r7, #12]
	strb	r2, [r3, #28]
	.loc 1 96 0 is_stmt 1 discriminator 6
	bl	GUI_GetObjectActive
	movs	r3, r0
	movs	r2, r3
	ldr	r3, [r7, #12]
	cmp	r2, r3
	bne	.L21
	.loc 1 97 0 discriminator 1
	ldr	r3, [r7, #12]
	ldrb	r3, [r3, #27]
	.loc 1 96 0 discriminator 1
	cmp	r3, #0
	beq	.L22
	.loc 1 98 0
	ldr	r3, [r7, #12]
	ldrb	r3, [r3, #28]
	.loc 1 97 0
	cmp	r3, #0
	bne	.L21
.L22:
	.loc 1 99 0
	movs	r1, #0
	movs	r0, #0
	bl	GUI_SetObjectActive
.L21:
	.loc 1 101 0
	ldr	r3, [r7, #12]
	movs	r0, r3
	bl	GUI_IsWindowObject
	subs	r3, r0, #0
	beq	.L16
	.loc 1 102 0
	ldr	r3, [r7, #12]
	movs	r0, r3
	bl	GUI_UpdateChildTreeInheritance
.L16:
	.loc 1 104 0
	ldr	r3, [r7, #20]
	movs	r0, r3
	bl	DL_GetNextItem
	movs	r3, r0
	str	r3, [r7, #20]
.L15:
.LBE6:
	.loc 1 87 0
	ldr	r3, [r7, #20]
	cmp	r3, #0
	bne	.L23
.L24:
.LBE5:
	.loc 1 107 0
	nop
	mov	sp, r7
	add	sp, sp, #24
	@ sp needed
	pop	{r7, pc}
	.cfi_endproc
.LFE3:
	.size	GUI_UpdateChildTreeInheritance, .-GUI_UpdateChildTreeInheritance
	.section	.text.GUI_CalculateClientArea,"ax",%progbits
	.align	2
	.global	GUI_CalculateClientArea
	.code	16
	.thumb_func
	.type	GUI_CalculateClientArea, %function
GUI_CalculateClientArea:
.LFB4:
	.loc 1 110 0
	.cfi_startproc
	@ args = 0, pretend = 0, frame = 24
	@ frame_needed = 1, uses_anonymous_args = 0
	push	{r4, r5, r7, lr}
	.cfi_def_cfa_offset 16
	.cfi_offset 4, -16
	.cfi_offset 5, -12
	.cfi_offset 7, -8
	.cfi_offset 14, -4
	sub	sp, sp, #32
	.cfi_def_cfa_offset 48
	add	r7, sp, #8
	.cfi_def_cfa 7, 40
	str	r0, [r7, #12]
	str	r1, [r7, #8]
	.loc 1 113 0
	ldr	r3, [r7, #8]
	cmp	r3, #0
	beq	.L26
	.loc 1 114 0 discriminator 1
	ldr	r3, [r7, #8]
	ldrb	r3, [r3, #24]
	.loc 1 113 0 discriminator 1
	cmp	r3, #3
	bhi	.L26
	.loc 1 114 0
	ldr	r3, [r7, #8]
	ldrb	r3, [r3, #24]
	cmp	r3, #0
	beq	.L26
.LBB7:
	.loc 1 124 0
	ldr	r3, [r7, #8]
	ldrb	r3, [r3, #24]
	movs	r2, r3
	ldr	r3, .L31
	lsls	r2, r2, #2
	ldr	r3, [r2, r3]
	cmp	r3, #0
	beq	.L27
	.loc 1 125 0
	ldr	r3, [r7, #8]
	ldrb	r3, [r3, #24]
	movs	r2, r3
	ldr	r3, .L31
	lsls	r2, r2, #2
	ldr	r3, [r2, r3]
	movs	r2, #16
	adds	r1, r7, r2
	ldr	r2, [r7, #8]
	movs	r0, r2
	blx	r3
.LBE7:
	.loc 1 115 0
	b	.L29
.L27:
.LBB8:
	.loc 1 126 0
	movs	r3, #16
	adds	r2, r7, r3
	ldr	r3, [r7, #8]
	adds	r3, r3, #12
	ldmia	r3!, {r0, r1}
	stmia	r2!, {r0, r1}
.LBE8:
	.loc 1 115 0
	b	.L29
.L26:
	.loc 1 128 0
	movs	r3, #16
	adds	r4, r7, r3
	movs	r0, r7
	movs	r3, #1
	rsbs	r5, r3, #0
	movs	r3, #1
	rsbs	r2, r3, #0
	movs	r3, #1
	rsbs	r1, r3, #0
	movs	r3, #1
	rsbs	r3, r3, #0
	str	r3, [sp]
	movs	r3, r5
	bl	Rect
	movs	r3, r7
	movs	r0, r4
	movs	r1, r3
	movs	r3, #8
	movs	r2, r3
	bl	memcpy
.L29:
	.loc 1 130 0
	ldr	r2, [r7, #12]
	movs	r3, #16
	adds	r3, r7, r3
	movs	r0, r2
	movs	r1, r3
	movs	r3, #8
	movs	r2, r3
	bl	memcpy
	.loc 1 131 0
	ldr	r0, [r7, #12]
	mov	sp, r7
	add	sp, sp, #24
	@ sp needed
	pop	{r4, r5, r7, pc}
.L32:
	.align	2
.L31:
	.word	CalcClientArea.7518
	.cfi_endproc
.LFE4:
	.size	GUI_CalculateClientArea, .-GUI_CalculateClientArea
	.section	.text.GUI_GetObjectFromPoint,"ax",%progbits
	.align	2
	.global	GUI_GetObjectFromPoint
	.code	16
	.thumb_func
	.type	GUI_GetObjectFromPoint, %function
GUI_GetObjectFromPoint:
.LFB5:
	.loc 1 134 0
	.cfi_startproc
	@ args = 0, pretend = 0, frame = 40
	@ frame_needed = 1, uses_anonymous_args = 0
	push	{r7, lr}
	.cfi_def_cfa_offset 8
	.cfi_offset 7, -8
	.cfi_offset 14, -4
	sub	sp, sp, #40
	.cfi_def_cfa_offset 48
	add	r7, sp, #0
	.cfi_def_cfa_register 7
	str	r0, [r7, #4]
	str	r1, [r7]
	.loc 1 135 0
	movs	r3, #0
	str	r3, [r7, #36]
	.loc 1 135 0
	movs	r3, #0
	str	r3, [r7, #32]
	.loc 1 137 0
	ldr	r3, [r7, #4]
	cmp	r3, #0
	bne	.LCB498
	b	.L34	@long jump
.LCB498:
.LBB9:
	.loc 1 141 0
	movs	r3, #3
	str	r3, [r7, #28]
	b	.L35
.L46:
.LBB10:
	.loc 1 145 0
	ldr	r3, .L50
	ldr	r2, [r7, #28]
	lsls	r2, r2, #2
	ldr	r3, [r2, r3]
	cmp	r3, #0
	beq	.L49
	.loc 1 145 0 discriminator 2
	ldr	r3, .L50
	ldr	r2, [r7, #28]
	lsls	r2, r2, #2
	ldr	r3, [r2, r3]
	ldrb	r3, [r3, #26]
	cmp	r3, #0
	beq	.L49
	.loc 1 147 0
	ldr	r3, [r7, #28]
	lsls	r3, r3, #24
	lsrs	r3, r3, #24
	ldr	r2, [r7, #4]
	movs	r1, r2
	movs	r0, r3
	bl	GDI_ScreenToLayerPt
	movs	r3, r0
	movs	r2, r3
	movs	r3, #12
	adds	r3, r7, r3
	str	r2, [r3]
	.loc 1 149 0
	ldr	r3, .L50
	ldr	r2, [r7, #28]
	lsls	r2, r2, #2
	ldr	r3, [r2, r3]
	adds	r3, r3, #12
	movs	r2, r3
	movs	r3, #12
	adds	r3, r7, r3
	movs	r1, r2
	movs	r0, r3
	bl	IsPointInRect
	subs	r3, r0, #0
	beq	.L38
.LBB11:
	.loc 1 154 0
	ldr	r3, .L50
	ldr	r2, [r7, #28]
	lsls	r2, r2, #2
	ldr	r3, [r2, r3]
	str	r3, [r7, #32]
	ldr	r3, [r7, #32]
	str	r3, [r7, #36]
	.loc 1 156 0
	ldr	r3, .L50
	ldr	r2, [r7, #28]
	lsls	r2, r2, #2
	ldr	r3, [r2, r3]
	adds	r3, r3, #68
	str	r3, [r7, #20]
	.loc 1 157 0
	ldr	r3, [r7, #20]
	movs	r0, r3
	bl	DL_GetLastItem
	movs	r3, r0
	str	r3, [r7, #24]
	.loc 1 158 0
	b	.L40
.L44:
.LBB12:
	.loc 1 160 0
	ldr	r3, [r7, #24]
	ldr	r3, [r3, #8]
	str	r3, [r7, #16]
	.loc 1 162 0
	ldr	r3, [r7, #16]
	cmp	r3, #0
	beq	.L41
	.loc 1 162 0 discriminator 1
	ldr	r3, [r7, #16]
	ldrb	r3, [r3, #26]
	cmp	r3, #0
	beq	.L41
	.loc 1 163 0 discriminator 2
	ldr	r3, [r7, #16]
	adds	r3, r3, #12
	movs	r2, r3
	movs	r3, #12
	adds	r3, r7, r3
	movs	r1, r2
	movs	r0, r3
	bl	IsPointInRect
	subs	r3, r0, #0
	.loc 1 162 0 discriminator 2
	beq	.L41
	.loc 1 165 0
	movs	r3, #12
	adds	r2, r7, r3
	ldr	r3, [r7, #16]
	movs	r1, r2
	movs	r0, r3
	bl	GUI_GetObjectRecursive
	movs	r3, r0
	str	r3, [r7, #36]
	ldr	r3, [r7, #36]
	cmp	r3, #0
	bne	.L42
	.loc 1 166 0
	ldr	r3, [r7, #16]
	str	r3, [r7, #36]
.L42:
	.loc 1 167 0
	ldr	r3, [r7, #16]
	str	r3, [r7, #32]
	.loc 1 168 0
	b	.L43
.L41:
	.loc 1 170 0
	ldr	r3, [r7, #24]
	movs	r0, r3
	bl	DL_GetPrevItem
	movs	r3, r0
	str	r3, [r7, #24]
.L40:
.LBE12:
	.loc 1 158 0
	ldr	r3, [r7, #24]
	cmp	r3, #0
	bne	.L44
.L43:
	.loc 1 172 0
	nop
	b	.L34
.L49:
.LBE11:
	.loc 1 145 0
	nop
.L38:
.LBE10:
	.loc 1 141 0 discriminator 2
	ldr	r3, [r7, #28]
	subs	r3, r3, #1
	str	r3, [r7, #28]
.L35:
	.loc 1 141 0 is_stmt 0 discriminator 1
	ldr	r3, [r7, #28]
	cmp	r3, #0
	bge	.L46
.L34:
.LBE9:
	.loc 1 176 0 is_stmt 1
	ldr	r3, [r7]
	cmp	r3, #0
	beq	.L47
	.loc 1 176 0 discriminator 1
	ldr	r3, [r7]
	ldr	r2, [r7, #32]
	str	r2, [r3]
.L47:
	.loc 1 178 0
	ldr	r3, [r7, #36]
	.loc 1 179 0
	movs	r0, r3
	mov	sp, r7
	add	sp, sp, #40
	@ sp needed
	pop	{r7, pc}
.L51:
	.align	2
.L50:
	.word	GUILayer
	.cfi_endproc
.LFE5:
	.size	GUI_GetObjectFromPoint, .-GUI_GetObjectFromPoint
	.section	.text.GUI_GetTopNonWindowObject,"ax",%progbits
	.align	2
	.global	GUI_GetTopNonWindowObject
	.code	16
	.thumb_func
	.type	GUI_GetTopNonWindowObject, %function
GUI_GetTopNonWindowObject:
.LFB6:
	.loc 1 182 0
	.cfi_startproc
	@ args = 0, pretend = 0, frame = 24
	@ frame_needed = 1, uses_anonymous_args = 0
	push	{r7, lr}
	.cfi_def_cfa_offset 8
	.cfi_offset 7, -8
	.cfi_offset 14, -4
	sub	sp, sp, #24
	.cfi_def_cfa_offset 32
	add	r7, sp, #0
	.cfi_def_cfa_register 7
	str	r0, [r7, #4]
	str	r1, [r7]
	.loc 1 183 0
	movs	r3, #0
	str	r3, [r7, #20]
	.loc 1 184 0
	movs	r3, #0
	str	r3, [r7, #16]
	.loc 1 186 0
	ldr	r3, [r7, #4]
	cmp	r3, #0
	beq	.L53
	.loc 1 186 0 discriminator 1
	ldr	r3, [r7, #4]
	movs	r0, r3
	bl	GUI_IsWindowObject
	subs	r3, r0, #0
	beq	.L53
.LBB13:
	.loc 1 191 0
	ldr	r3, [r7, #4]
	adds	r3, r3, #68
	movs	r0, r3
	bl	DL_GetLastItem
	movs	r3, r0
	str	r3, [r7, #12]
	.loc 1 192 0
	b	.L54
.L56:
	.loc 1 194 0
	ldr	r3, [r7, #12]
	ldr	r3, [r3, #8]
	str	r3, [r7, #8]
	.loc 1 195 0
	ldr	r3, [r7, #8]
	cmp	r3, #0
	beq	.L55
	.loc 1 195 0 discriminator 1
	ldr	r3, [r7, #8]
	ldrb	r3, [r3, #24]
	cmp	r3, #0
	beq	.L55
	.loc 1 196 0 discriminator 2
	ldr	r3, [r7, #8]
	movs	r0, r3
	bl	GUI_IsWindowObject
	subs	r3, r0, #0
	.loc 1 195 0 discriminator 2
	bne	.L55
	.loc 1 198 0
	ldr	r3, [r7, #8]
	str	r3, [r7, #20]
	.loc 1 199 0
	ldr	r3, [r7, #12]
	str	r3, [r7, #16]
	.loc 1 200 0
	b	.L53
.L55:
	.loc 1 202 0
	ldr	r3, [r7, #12]
	movs	r0, r3
	bl	DL_GetPrevItem
	movs	r3, r0
	str	r3, [r7, #12]
.L54:
	.loc 1 192 0
	ldr	r3, [r7, #12]
	cmp	r3, #0
	bne	.L56
.L53:
.LBE13:
	.loc 1 205 0
	ldr	r3, [r7]
	cmp	r3, #0
	beq	.L57
	.loc 1 205 0 discriminator 1
	ldr	r3, [r7]
	ldr	r2, [r7, #16]
	str	r2, [r3]
.L57:
	.loc 1 207 0
	ldr	r3, [r7, #20]
	.loc 1 208 0
	movs	r0, r3
	mov	sp, r7
	add	sp, sp, #24
	@ sp needed
	pop	{r7, pc}
	.cfi_endproc
.LFE6:
	.size	GUI_GetTopNonWindowObject, .-GUI_GetTopNonWindowObject
	.section	.text.GUI_SetObjectHandlerOnPress,"ax",%progbits
	.align	2
	.global	GUI_SetObjectHandlerOnPress
	.code	16
	.thumb_func
	.type	GUI_SetObjectHandlerOnPress, %function
GUI_SetObjectHandlerOnPress:
.LFB7:
	.loc 1 211 0
	.cfi_startproc
	@ args = 0, pretend = 0, frame = 8
	@ frame_needed = 1, uses_anonymous_args = 0
	push	{r7, lr}
	.cfi_def_cfa_offset 8
	.cfi_offset 7, -8
	.cfi_offset 14, -4
	sub	sp, sp, #8
	.cfi_def_cfa_offset 16
	add	r7, sp, #0
	.cfi_def_cfa_register 7
	str	r0, [r7, #4]
	str	r1, [r7]
	.loc 1 212 0
	ldr	r3, [r7, #4]
	cmp	r3, #0
	beq	.L60
	.loc 1 214 0
	ldr	r3, [r7, #4]
	ldr	r2, [r7]
	str	r2, [r3, #36]
	.loc 1 215 0
	movs	r3, #1
	b	.L61
.L60:
	.loc 1 217 0
	movs	r3, #0
.L61:
	.loc 1 218 0
	movs	r0, r3
	mov	sp, r7
	add	sp, sp, #8
	@ sp needed
	pop	{r7, pc}
	.cfi_endproc
.LFE7:
	.size	GUI_SetObjectHandlerOnPress, .-GUI_SetObjectHandlerOnPress
	.section	.text.GUI_SetObjectHandlerOnRelease,"ax",%progbits
	.align	2
	.global	GUI_SetObjectHandlerOnRelease
	.code	16
	.thumb_func
	.type	GUI_SetObjectHandlerOnRelease, %function
GUI_SetObjectHandlerOnRelease:
.LFB8:
	.loc 1 221 0
	.cfi_startproc
	@ args = 0, pretend = 0, frame = 8
	@ frame_needed = 1, uses_anonymous_args = 0
	push	{r7, lr}
	.cfi_def_cfa_offset 8
	.cfi_offset 7, -8
	.cfi_offset 14, -4
	sub	sp, sp, #8
	.cfi_def_cfa_offset 16
	add	r7, sp, #0
	.cfi_def_cfa_register 7
	str	r0, [r7, #4]
	str	r1, [r7]
	.loc 1 222 0
	ldr	r3, [r7, #4]
	cmp	r3, #0
	beq	.L63
	.loc 1 224 0
	ldr	r3, [r7, #4]
	ldr	r2, [r7]
	str	r2, [r3, #40]
	.loc 1 225 0
	movs	r3, #1
	b	.L64
.L63:
	.loc 1 227 0
	movs	r3, #0
.L64:
	.loc 1 228 0
	movs	r0, r3
	mov	sp, r7
	add	sp, sp, #8
	@ sp needed
	pop	{r7, pc}
	.cfi_endproc
.LFE8:
	.size	GUI_SetObjectHandlerOnRelease, .-GUI_SetObjectHandlerOnRelease
	.section	.text.GUI_SetObjectHandlerOnMove,"ax",%progbits
	.align	2
	.global	GUI_SetObjectHandlerOnMove
	.code	16
	.thumb_func
	.type	GUI_SetObjectHandlerOnMove, %function
GUI_SetObjectHandlerOnMove:
.LFB9:
	.loc 1 231 0
	.cfi_startproc
	@ args = 0, pretend = 0, frame = 8
	@ frame_needed = 1, uses_anonymous_args = 0
	push	{r7, lr}
	.cfi_def_cfa_offset 8
	.cfi_offset 7, -8
	.cfi_offset 14, -4
	sub	sp, sp, #8
	.cfi_def_cfa_offset 16
	add	r7, sp, #0
	.cfi_def_cfa_register 7
	str	r0, [r7, #4]
	str	r1, [r7]
	.loc 1 232 0
	ldr	r3, [r7, #4]
	cmp	r3, #0
	beq	.L66
	.loc 1 234 0
	ldr	r3, [r7, #4]
	ldr	r2, [r7]
	str	r2, [r3, #44]
	.loc 1 235 0
	movs	r3, #1
	b	.L67
.L66:
	.loc 1 237 0
	movs	r3, #0
.L67:
	.loc 1 238 0
	movs	r0, r3
	mov	sp, r7
	add	sp, sp, #8
	@ sp needed
	pop	{r7, pc}
	.cfi_endproc
.LFE9:
	.size	GUI_SetObjectHandlerOnMove, .-GUI_SetObjectHandlerOnMove
	.section	.text.GUI_SetObjectHandlerOnClick,"ax",%progbits
	.align	2
	.global	GUI_SetObjectHandlerOnClick
	.code	16
	.thumb_func
	.type	GUI_SetObjectHandlerOnClick, %function
GUI_SetObjectHandlerOnClick:
.LFB10:
	.loc 1 241 0
	.cfi_startproc
	@ args = 0, pretend = 0, frame = 8
	@ frame_needed = 1, uses_anonymous_args = 0
	push	{r7, lr}
	.cfi_def_cfa_offset 8
	.cfi_offset 7, -8
	.cfi_offset 14, -4
	sub	sp, sp, #8
	.cfi_def_cfa_offset 16
	add	r7, sp, #0
	.cfi_def_cfa_register 7
	str	r0, [r7, #4]
	str	r1, [r7]
	.loc 1 242 0
	ldr	r3, [r7, #4]
	cmp	r3, #0
	beq	.L69
	.loc 1 244 0
	ldr	r3, [r7, #4]
	ldr	r2, [r7]
	str	r2, [r3, #48]
	.loc 1 245 0
	movs	r3, #1
	b	.L70
.L69:
	.loc 1 247 0
	movs	r3, #0
.L70:
	.loc 1 248 0
	movs	r0, r3
	mov	sp, r7
	add	sp, sp, #8
	@ sp needed
	pop	{r7, pc}
	.cfi_endproc
.LFE10:
	.size	GUI_SetObjectHandlerOnClick, .-GUI_SetObjectHandlerOnClick
	.section	.text.GUI_SetObjectHandlerOnPaint,"ax",%progbits
	.align	2
	.global	GUI_SetObjectHandlerOnPaint
	.code	16
	.thumb_func
	.type	GUI_SetObjectHandlerOnPaint, %function
GUI_SetObjectHandlerOnPaint:
.LFB11:
	.loc 1 251 0
	.cfi_startproc
	@ args = 0, pretend = 0, frame = 8
	@ frame_needed = 1, uses_anonymous_args = 0
	push	{r7, lr}
	.cfi_def_cfa_offset 8
	.cfi_offset 7, -8
	.cfi_offset 14, -4
	sub	sp, sp, #8
	.cfi_def_cfa_offset 16
	add	r7, sp, #0
	.cfi_def_cfa_register 7
	str	r0, [r7, #4]
	str	r1, [r7]
	.loc 1 252 0
	ldr	r3, [r7, #4]
	cmp	r3, #0
	beq	.L72
	.loc 1 254 0
	ldr	r3, [r7, #4]
	ldr	r2, [r7]
	str	r2, [r3, #52]
	.loc 1 255 0
	movs	r3, #1
	b	.L73
.L72:
	.loc 1 257 0
	movs	r3, #0
.L73:
	.loc 1 258 0
	movs	r0, r3
	mov	sp, r7
	add	sp, sp, #8
	@ sp needed
	pop	{r7, pc}
	.cfi_endproc
.LFE11:
	.size	GUI_SetObjectHandlerOnPaint, .-GUI_SetObjectHandlerOnPaint
	.section	.text.GUI_SetObjectHandlerOnDestroy,"ax",%progbits
	.align	2
	.global	GUI_SetObjectHandlerOnDestroy
	.code	16
	.thumb_func
	.type	GUI_SetObjectHandlerOnDestroy, %function
GUI_SetObjectHandlerOnDestroy:
.LFB12:
	.loc 1 261 0
	.cfi_startproc
	@ args = 0, pretend = 0, frame = 8
	@ frame_needed = 1, uses_anonymous_args = 0
	push	{r7, lr}
	.cfi_def_cfa_offset 8
	.cfi_offset 7, -8
	.cfi_offset 14, -4
	sub	sp, sp, #8
	.cfi_def_cfa_offset 16
	add	r7, sp, #0
	.cfi_def_cfa_register 7
	str	r0, [r7, #4]
	str	r1, [r7]
	.loc 1 262 0
	ldr	r3, [r7, #4]
	cmp	r3, #0
	beq	.L75
	.loc 1 264 0
	ldr	r3, [r7, #4]
	ldr	r2, [r7]
	str	r2, [r3, #56]
	.loc 1 265 0
	movs	r3, #1
	b	.L76
.L75:
	.loc 1 267 0
	movs	r3, #0
.L76:
	.loc 1 268 0
	movs	r0, r3
	mov	sp, r7
	add	sp, sp, #8
	@ sp needed
	pop	{r7, pc}
	.cfi_endproc
.LFE12:
	.size	GUI_SetObjectHandlerOnDestroy, .-GUI_SetObjectHandlerOnDestroy
	.section	.text.GUI_GetObjectPosition,"ax",%progbits
	.align	2
	.global	GUI_GetObjectPosition
	.code	16
	.thumb_func
	.type	GUI_GetObjectPosition, %function
GUI_GetObjectPosition:
.LFB13:
	.loc 1 271 0
	.cfi_startproc
	@ args = 0, pretend = 0, frame = 16
	@ frame_needed = 1, uses_anonymous_args = 0
	push	{r4, r7, lr}
	.cfi_def_cfa_offset 12
	.cfi_offset 4, -12
	.cfi_offset 7, -8
	.cfi_offset 14, -4
	sub	sp, sp, #20
	.cfi_def_cfa_offset 32
	add	r7, sp, #0
	.cfi_def_cfa_register 7
	str	r0, [r7, #12]
	str	r1, [r7, #8]
	.loc 1 272 0
	ldr	r3, [r7, #12]
	cmp	r3, #0
	bne	.L78
	.loc 1 272 0 discriminator 1
	movs	r3, #0
	b	.L79
.L78:
	.loc 1 274 0
	ldr	r3, [r7, #8]
	cmp	r3, #0
	beq	.L80
	.loc 1 276 0
	ldr	r3, [r7, #12]
	ldr	r3, [r3, #20]
	cmp	r3, #0
	beq	.L81
	.loc 1 277 0
	ldr	r3, [r7, #12]
	adds	r3, r3, #12
	movs	r1, r3
	ldr	r3, [r7, #12]
	ldr	r3, [r3, #20]
	adds	r3, r3, #12
	movs	r2, r3
	ldr	r4, [r7, #8]
	movs	r3, r7
	movs	r0, r3
	bl	GDI_GlobalToLocalRct
	movs	r3, r7
	movs	r0, r4
	movs	r1, r3
	movs	r3, #8
	movs	r2, r3
	bl	memcpy
	b	.L80
.L81:
	.loc 1 278 0
	ldr	r3, [r7, #12]
	movs	r2, #62
	ldrb	r3, [r3, r2]
	ldr	r2, [r7, #8]
	movs	r1, r2
	movs	r0, r3
	bl	LCDIF_GetLayerPosition
	subs	r3, r0, #0
	bne	.L80
	.loc 1 279 0
	movs	r3, #0
	b	.L79
.L80:
	.loc 1 281 0
	movs	r3, #1
.L79:
	.loc 1 282 0
	movs	r0, r3
	mov	sp, r7
	add	sp, sp, #20
	@ sp needed
	pop	{r4, r7, pc}
	.cfi_endproc
.LFE13:
	.size	GUI_GetObjectPosition, .-GUI_GetObjectPosition
	.section	.text.GUI_SetObjectPosition,"ax",%progbits
	.align	2
	.global	GUI_SetObjectPosition
	.code	16
	.thumb_func
	.type	GUI_SetObjectPosition, %function
GUI_SetObjectPosition:
.LFB14:
	.loc 1 285 0
	.cfi_startproc
	@ args = 0, pretend = 0, frame = 80
	@ frame_needed = 1, uses_anonymous_args = 0
	push	{r4, r7, lr}
	.cfi_def_cfa_offset 12
	.cfi_offset 4, -12
	.cfi_offset 7, -8
	.cfi_offset 14, -4
	sub	sp, sp, #84
	.cfi_def_cfa_offset 96
	add	r7, sp, #0
	.cfi_def_cfa_register 7
	str	r0, [r7, #12]
	str	r1, [r7, #8]
	.loc 1 286 0
	ldr	r3, [r7, #12]
	cmp	r3, #0
	beq	.L83
	.loc 1 286 0 discriminator 2
	ldr	r3, [r7, #8]
	cmp	r3, #0
	bne	.L84
.L83:
	.loc 1 286 0 discriminator 3
	movs	r3, #0
	b	.L85
.L84:
	.loc 1 288 0
	ldr	r3, [r7, #12]
	ldr	r3, [r3, #20]
	cmp	r3, #0
	beq	.LCB1115
	b	.L86	@long jump
.LCB1115:
.LBB14:
	.loc 1 290 0
	movs	r3, #44
	adds	r2, r7, r3
	ldr	r3, [r7, #8]
	movs	r0, r2
	movs	r1, r3
	movs	r3, #8
	movs	r2, r3
	bl	memcpy
.LBB15:
	.loc 1 295 0
	movs	r3, #44
	adds	r3, r7, r3
	movs	r2, #0
	ldrsh	r2, [r3, r2]
	movs	r3, #44
	adds	r3, r7, r3
	movs	r1, #4
	ldrsh	r3, [r3, r1]
	cmp	r2, r3
	ble	.L87
	.loc 1 295 0 is_stmt 0 discriminator 1
	movs	r3, #70
	adds	r3, r7, r3
	movs	r2, #44
	adds	r2, r7, r2
	ldrh	r2, [r2]
	strh	r2, [r3]
	movs	r3, #44
	adds	r3, r7, r3
	movs	r2, #4
	ldrsh	r2, [r3, r2]
	movs	r3, #44
	adds	r3, r7, r3
	strh	r2, [r3]
	movs	r3, #44
	adds	r3, r7, r3
	movs	r2, #70
	adds	r2, r7, r2
	ldrh	r2, [r2]
	strh	r2, [r3, #4]
.L87:
.LBE15:
.LBB16:
	.loc 1 296 0 is_stmt 1
	movs	r3, #44
	adds	r3, r7, r3
	movs	r2, #2
	ldrsh	r2, [r3, r2]
	movs	r3, #44
	adds	r3, r7, r3
	movs	r1, #6
	ldrsh	r3, [r3, r1]
	cmp	r2, r3
	ble	.L88
	.loc 1 296 0 is_stmt 0 discriminator 1
	movs	r3, #68
	adds	r3, r7, r3
	movs	r2, #44
	adds	r2, r7, r2
	ldrh	r2, [r2, #2]
	strh	r2, [r3]
	movs	r3, #44
	adds	r3, r7, r3
	movs	r2, #6
	ldrsh	r2, [r3, r2]
	movs	r3, #44
	adds	r3, r7, r3
	strh	r2, [r3, #2]
	movs	r3, #44
	adds	r3, r7, r3
	movs	r2, #68
	adds	r2, r7, r2
	ldrh	r2, [r2]
	strh	r2, [r3, #6]
.L88:
.LBE16:
	.loc 1 298 0 is_stmt 1
	ldr	r3, [r7, #12]
	movs	r2, #16
	ldrsh	r3, [r3, r2]
	movs	r2, r3
	ldr	r3, [r7, #12]
	movs	r1, #12
	ldrsh	r3, [r3, r1]
	subs	r2, r2, r3
	movs	r3, #44
	adds	r3, r7, r3
	movs	r1, #4
	ldrsh	r3, [r3, r1]
	movs	r1, r3
	movs	r3, #44
	adds	r3, r7, r3
	movs	r0, #0
	ldrsh	r3, [r3, r0]
	subs	r3, r1, r3
	subs	r3, r2, r3
	subs	r2, r3, #1
	sbcs	r3, r3, r2
	lsls	r3, r3, #24
	lsrs	r2, r3, #24
	movs	r3, #67
	adds	r3, r7, r3
	strb	r2, [r3]
	.loc 1 299 0
	ldr	r3, [r7, #12]
	movs	r2, #18
	ldrsh	r3, [r3, r2]
	movs	r2, r3
	ldr	r3, [r7, #12]
	movs	r1, #14
	ldrsh	r3, [r3, r1]
	subs	r2, r2, r3
	movs	r3, #44
	adds	r3, r7, r3
	movs	r1, #6
	ldrsh	r3, [r3, r1]
	movs	r1, r3
	movs	r3, #44
	adds	r3, r7, r3
	movs	r0, #2
	ldrsh	r3, [r3, r0]
	subs	r3, r1, r3
	subs	r3, r2, r3
	subs	r2, r3, #1
	sbcs	r3, r3, r2
	lsls	r3, r3, #24
	lsrs	r2, r3, #24
	movs	r3, #66
	adds	r3, r7, r3
	strb	r2, [r3]
	.loc 1 301 0
	movs	r3, #36
	adds	r2, r7, r3
	ldr	r3, [r7, #12]
	movs	r1, r2
	movs	r0, r3
	bl	GUI_GetObjectPosition
	.loc 1 302 0
	movs	r3, #36
	adds	r4, r7, r3
	movs	r3, r7
	movs	r2, #36
	adds	r2, r7, r2
	movs	r1, #36
	adds	r1, r7, r1
	movs	r0, r3
	bl	GDI_GlobalToLocalRct
	movs	r3, r7
	movs	r0, r4
	movs	r1, r3
	movs	r3, #8
	movs	r2, r3
	bl	memcpy
	.loc 1 304 0
	ldr	r3, [r7, #12]
	movs	r2, #62
	ldrb	r0, [r3, r2]
	movs	r3, #65
	adds	r4, r7, r3
	movs	r3, #44
	adds	r2, r7, r3
	movs	r3, #1
	ldr	r1, [r2]
	ldr	r2, [r2, #4]
	bl	LCDIF_SetLayerPosition
	movs	r3, r0
	strb	r3, [r4]
	.loc 1 305 0
	movs	r3, #65
	adds	r3, r7, r3
	ldrb	r3, [r3]
	cmp	r3, #0
	beq	.L89
	.loc 1 307 0
	ldr	r4, [r7, #12]
	movs	r3, r7
	movs	r2, #44
	adds	r2, r7, r2
	movs	r1, #44
	adds	r1, r7, r1
	movs	r0, r3
	bl	GDI_GlobalToLocalRct
	movs	r2, r7
	movs	r3, r4
	adds	r3, r3, #12
	movs	r1, r2
	movs	r2, #8
	movs	r0, r3
	bl	memcpy
	.loc 1 309 0
	ldr	r3, [r7, #12]
	ldrb	r3, [r3, #26]
	cmp	r3, #0
	beq	.L89
	.loc 1 311 0
	movs	r3, #67
	adds	r3, r7, r3
	ldrb	r3, [r3]
	cmp	r3, #0
	beq	.L90
	.loc 1 311 0 is_stmt 0 discriminator 1
	ldr	r3, [r7, #12]
	movs	r0, r3
	bl	GUI_Invalidate
	b	.L89
.L90:
	.loc 1 312 0 is_stmt 1
	movs	r3, #66
	adds	r3, r7, r3
	ldrb	r3, [r3]
	cmp	r3, #0
	beq	.L89
.LBB17:
	.loc 1 314 0
	movs	r3, #28
	adds	r3, r7, r3
	movs	r2, #44
	adds	r2, r7, r2
	movs	r1, #36
	adds	r1, r7, r1
	movs	r0, r3
	bl	GDI_LocalToGlobalRct
	.loc 1 315 0
	ldr	r3, [r7, #12]
	adds	r3, r3, #12
	movs	r2, #36
	adds	r2, r7, r2
	movs	r1, r2
	movs	r0, r3
	bl	GDI_SUBRectangles
	movs	r3, r0
	str	r3, [r7, #60]
	.loc 1 317 0
	movs	r3, #28
	adds	r4, r7, r3
	movs	r3, r7
	ldr	r2, .L101
	movs	r1, #28
	adds	r1, r7, r1
	movs	r0, r3
	bl	GDI_GlobalToLocalRct
	movs	r3, r7
	movs	r0, r4
	movs	r1, r3
	movs	r3, #8
	movs	r2, r3
	bl	memcpy
	.loc 1 318 0
	movs	r3, #28
	adds	r3, r7, r3
	ldr	r0, [r3]
	ldr	r1, [r3, #4]
	bl	LCDIF_UpdateRectangle
	.loc 1 320 0
	ldr	r3, [r7, #60]
	cmp	r3, #0
	beq	.L89
.LBB18:
	.loc 1 324 0
	movs	r3, #0
	str	r3, [r7, #76]
	b	.L92
.L93:
	.loc 1 325 0 discriminator 3
	ldr	r3, [r7, #76]
	lsls	r3, r3, #3
	ldr	r2, [r7, #60]
	adds	r3, r2, r3
	adds	r2, r3, #4
	ldr	r3, [r7, #12]
	movs	r1, r2
	movs	r0, r3
	bl	GUI_InvalidateArea
	.loc 1 324 0 discriminator 3
	ldr	r3, [r7, #76]
	adds	r3, r3, #1
	str	r3, [r7, #76]
.L92:
	.loc 1 324 0 is_stmt 0 discriminator 1
	ldr	r3, [r7, #60]
	ldr	r2, [r3]
	ldr	r3, [r7, #76]
	cmp	r2, r3
	bhi	.L93
	.loc 1 327 0 is_stmt 1
	ldr	r3, [r7, #60]
	movs	r0, r3
	bl	GDI_DeleteRList
.L89:
.LBE18:
.LBE17:
	.loc 1 332 0
	movs	r3, #65
	adds	r3, r7, r3
	ldrb	r3, [r3]
	b	.L85
.L86:
.LBE14:
.LBB19:
	.loc 1 336 0
	ldr	r3, [r7, #12]
	ldr	r3, [r3, #20]
	adds	r3, r3, #12
	movs	r2, r3
	movs	r3, #20
	adds	r3, r7, r3
	ldr	r1, [r7, #8]
	movs	r0, r3
	bl	GDI_LocalToGlobalRct
.LBB20:
	.loc 1 338 0
	movs	r3, #20
	adds	r3, r7, r3
	movs	r2, #0
	ldrsh	r2, [r3, r2]
	movs	r3, #20
	adds	r3, r7, r3
	movs	r1, #4
	ldrsh	r3, [r3, r1]
	cmp	r2, r3
	ble	.L94
	.loc 1 338 0 is_stmt 0 discriminator 1
	movs	r3, #58
	adds	r3, r7, r3
	movs	r2, #20
	adds	r2, r7, r2
	ldrh	r2, [r2]
	strh	r2, [r3]
	movs	r3, #20
	adds	r3, r7, r3
	movs	r2, #4
	ldrsh	r2, [r3, r2]
	movs	r3, #20
	adds	r3, r7, r3
	strh	r2, [r3]
	movs	r3, #20
	adds	r3, r7, r3
	movs	r2, #58
	adds	r2, r7, r2
	ldrh	r2, [r2]
	strh	r2, [r3, #4]
.L94:
.LBE20:
.LBB21:
	.loc 1 339 0 is_stmt 1
	movs	r3, #20
	adds	r3, r7, r3
	movs	r2, #2
	ldrsh	r2, [r3, r2]
	movs	r3, #20
	adds	r3, r7, r3
	movs	r1, #6
	ldrsh	r3, [r3, r1]
	cmp	r2, r3
	ble	.L95
	.loc 1 339 0 is_stmt 0 discriminator 1
	movs	r3, #56
	adds	r3, r7, r3
	movs	r2, #20
	adds	r2, r7, r2
	ldrh	r2, [r2, #2]
	strh	r2, [r3]
	movs	r3, #20
	adds	r3, r7, r3
	movs	r2, #6
	ldrsh	r2, [r3, r2]
	movs	r3, #20
	adds	r3, r7, r3
	strh	r2, [r3, #2]
	movs	r3, #20
	adds	r3, r7, r3
	movs	r2, #56
	adds	r2, r7, r2
	ldrh	r2, [r2]
	strh	r2, [r3, #6]
.L95:
.LBE21:
	.loc 1 341 0 is_stmt 1
	ldr	r3, [r7, #12]
	adds	r3, r3, #12
	movs	r2, #20
	adds	r1, r7, r2
	movs	r2, #8
	movs	r0, r3
	bl	memcmp
	subs	r3, r0, #0
	beq	.L96
.LBB22:
	.loc 1 343 0
	ldr	r3, [r7, #12]
	adds	r3, r3, #12
	movs	r2, r3
	movs	r3, #20
	adds	r3, r7, r3
	movs	r1, r2
	movs	r0, r3
	bl	GDI_GlobalToLocalPt
	movs	r3, r0
	movs	r2, r3
	movs	r3, #16
	adds	r3, r7, r3
	str	r2, [r3]
	.loc 1 344 0
	ldr	r3, [r7, #12]
	adds	r3, r3, #12
	movs	r2, #20
	adds	r2, r7, r2
	movs	r1, r2
	movs	r0, r3
	bl	GDI_SUBRectangles
	movs	r3, r0
	str	r3, [r7, #52]
	.loc 1 346 0
	ldr	r3, [r7, #12]
	movs	r2, #20
	adds	r2, r7, r2
	adds	r3, r3, #12
	ldmia	r2!, {r0, r1}
	stmia	r3!, {r0, r1}
	.loc 1 348 0
	ldr	r3, [r7, #12]
	movs	r0, r3
	bl	GUI_IsWindowObject
	subs	r3, r0, #0
	beq	.L97
	.loc 1 349 0
	movs	r3, #16
	adds	r2, r7, r3
	ldr	r3, [r7, #12]
	movs	r1, r2
	movs	r0, r3
	bl	GUI_UpdateChildPositions
.L97:
	.loc 1 350 0
	ldr	r3, [r7, #12]
	movs	r0, r3
	bl	GUI_Invalidate
	.loc 1 352 0
	ldr	r3, [r7, #52]
	cmp	r3, #0
	beq	.L96
.LBB23:
	.loc 1 356 0
	movs	r3, #0
	str	r3, [r7, #72]
	b	.L99
.L100:
	.loc 1 357 0 discriminator 3
	ldr	r3, [r7, #12]
	ldr	r0, [r3, #20]
	ldr	r3, [r7, #72]
	lsls	r3, r3, #3
	ldr	r2, [r7, #52]
	adds	r3, r2, r3
	adds	r3, r3, #4
	movs	r1, r3
	bl	GUI_InvalidateArea
	.loc 1 356 0 discriminator 3
	ldr	r3, [r7, #72]
	adds	r3, r3, #1
	str	r3, [r7, #72]
.L99:
	.loc 1 356 0 is_stmt 0 discriminator 1
	ldr	r3, [r7, #52]
	ldr	r2, [r3]
	ldr	r3, [r7, #72]
	cmp	r2, r3
	bhi	.L100
	.loc 1 359 0 is_stmt 1
	ldr	r3, [r7, #52]
	movs	r0, r3
	bl	GDI_DeleteRList
.L96:
.LBE23:
.LBE22:
.LBE19:
	.loc 1 363 0 discriminator 2
	movs	r3, #1
.L85:
	.loc 1 364 0 discriminator 1
	movs	r0, r3
	mov	sp, r7
	add	sp, sp, #84
	@ sp needed
	pop	{r4, r7, pc}
.L102:
	.align	2
.L101:
	.word	LCDScreen+8
	.cfi_endproc
.LFE14:
	.size	GUI_SetObjectPosition, .-GUI_SetObjectPosition
	.section	.text.GUI_GetObjectEnabled,"ax",%progbits
	.align	2
	.global	GUI_GetObjectEnabled
	.code	16
	.thumb_func
	.type	GUI_GetObjectEnabled, %function
GUI_GetObjectEnabled:
.LFB15:
	.loc 1 367 0
	.cfi_startproc
	@ args = 0, pretend = 0, frame = 8
	@ frame_needed = 1, uses_anonymous_args = 0
	push	{r7, lr}
	.cfi_def_cfa_offset 8
	.cfi_offset 7, -8
	.cfi_offset 14, -4
	sub	sp, sp, #8
	.cfi_def_cfa_offset 16
	add	r7, sp, #0
	.cfi_def_cfa_register 7
	str	r0, [r7, #4]
	.loc 1 368 0
	ldr	r3, [r7, #4]
	cmp	r3, #0
	beq	.L104
	.loc 1 368 0 is_stmt 0 discriminator 1
	ldr	r3, [r7, #4]
	ldrb	r3, [r3, #25]
	cmp	r3, #0
	beq	.L104
	.loc 1 368 0 discriminator 3
	movs	r3, #1
	b	.L105
.L104:
	.loc 1 368 0 discriminator 4
	movs	r3, #0
.L105:
	.loc 1 368 0 is_stmt 1 discriminator 6
	lsls	r3, r3, #24
	lsrs	r3, r3, #24
	.loc 1 369 0 discriminator 6
	movs	r0, r3
	mov	sp, r7
	add	sp, sp, #8
	@ sp needed
	pop	{r7, pc}
	.cfi_endproc
.LFE15:
	.size	GUI_GetObjectEnabled, .-GUI_GetObjectEnabled
	.section	.text.GUI_SetObjectEnabled,"ax",%progbits
	.align	2
	.global	GUI_SetObjectEnabled
	.code	16
	.thumb_func
	.type	GUI_SetObjectEnabled, %function
GUI_SetObjectEnabled:
.LFB16:
	.loc 1 372 0
	.cfi_startproc
	@ args = 0, pretend = 0, frame = 8
	@ frame_needed = 1, uses_anonymous_args = 0
	push	{r7, lr}
	.cfi_def_cfa_offset 8
	.cfi_offset 7, -8
	.cfi_offset 14, -4
	sub	sp, sp, #8
	.cfi_def_cfa_offset 16
	add	r7, sp, #0
	.cfi_def_cfa_register 7
	str	r0, [r7, #4]
	movs	r2, r1
	adds	r3, r7, #3
	strb	r2, [r3]
	.loc 1 373 0
	ldr	r3, [r7, #4]
	cmp	r3, #0
	bne	.L108
	.loc 1 373 0 discriminator 1
	movs	r3, #0
	b	.L109
.L108:
	.loc 1 374 0
	ldr	r3, [r7, #4]
	ldrb	r3, [r3, #25]
	adds	r2, r7, #3
	ldrb	r2, [r2]
	cmp	r2, r3
	beq	.L110
	.loc 1 376 0
	ldr	r3, [r7, #4]
	adds	r2, r7, #3
	ldrb	r2, [r2]
	strb	r2, [r3, #25]
	.loc 1 377 0
	ldr	r3, [r7, #4]
	ldr	r3, [r3, #20]
	cmp	r3, #0
	beq	.L110
	.loc 1 379 0
	adds	r3, r7, #3
	ldrb	r3, [r3]
	cmp	r3, #0
	bne	.L111
	.loc 1 379 0 is_stmt 0 discriminator 1
	bl	GUI_GetObjectActive
	movs	r3, r0
	movs	r2, r3
	ldr	r3, [r7, #4]
	cmp	r2, r3
	bne	.L111
	.loc 1 380 0 is_stmt 1
	movs	r1, #0
	movs	r0, #0
	bl	GUI_SetObjectActive
.L111:
	.loc 1 382 0
	ldr	r3, [r7, #4]
	movs	r0, r3
	bl	GUI_IsWindowObject
	subs	r3, r0, #0
	beq	.L112
	.loc 1 383 0
	ldr	r3, [r7, #4]
	movs	r0, r3
	bl	GUI_UpdateChildTreeInheritance
.L112:
	.loc 1 385 0
	ldr	r3, [r7, #4]
	movs	r0, r3
	bl	GUI_Invalidate
.L110:
	.loc 1 388 0
	movs	r3, #1
.L109:
	.loc 1 389 0
	movs	r0, r3
	mov	sp, r7
	add	sp, sp, #8
	@ sp needed
	pop	{r7, pc}
	.cfi_endproc
.LFE16:
	.size	GUI_SetObjectEnabled, .-GUI_SetObjectEnabled
	.section	.text.GUI_GetObjectVisibility,"ax",%progbits
	.align	2
	.global	GUI_GetObjectVisibility
	.code	16
	.thumb_func
	.type	GUI_GetObjectVisibility, %function
GUI_GetObjectVisibility:
.LFB17:
	.loc 1 392 0
	.cfi_startproc
	@ args = 0, pretend = 0, frame = 8
	@ frame_needed = 1, uses_anonymous_args = 0
	push	{r7, lr}
	.cfi_def_cfa_offset 8
	.cfi_offset 7, -8
	.cfi_offset 14, -4
	sub	sp, sp, #8
	.cfi_def_cfa_offset 16
	add	r7, sp, #0
	.cfi_def_cfa_register 7
	str	r0, [r7, #4]
	.loc 1 393 0
	ldr	r3, [r7, #4]
	cmp	r3, #0
	beq	.L114
	.loc 1 393 0 is_stmt 0 discriminator 1
	ldr	r3, [r7, #4]
	ldrb	r3, [r3, #26]
	cmp	r3, #0
	beq	.L114
	.loc 1 393 0 discriminator 3
	movs	r3, #1
	b	.L115
.L114:
	.loc 1 393 0 discriminator 4
	movs	r3, #0
.L115:
	.loc 1 393 0 is_stmt 1 discriminator 6
	lsls	r3, r3, #24
	lsrs	r3, r3, #24
	.loc 1 394 0 discriminator 6
	movs	r0, r3
	mov	sp, r7
	add	sp, sp, #8
	@ sp needed
	pop	{r7, pc}
	.cfi_endproc
.LFE17:
	.size	GUI_GetObjectVisibility, .-GUI_GetObjectVisibility
	.section	.text.GUI_SetObjectVisibility,"ax",%progbits
	.align	2
	.global	GUI_SetObjectVisibility
	.code	16
	.thumb_func
	.type	GUI_SetObjectVisibility, %function
GUI_SetObjectVisibility:
.LFB18:
	.loc 1 397 0
	.cfi_startproc
	@ args = 0, pretend = 0, frame = 8
	@ frame_needed = 1, uses_anonymous_args = 0
	push	{r7, lr}
	.cfi_def_cfa_offset 8
	.cfi_offset 7, -8
	.cfi_offset 14, -4
	sub	sp, sp, #8
	.cfi_def_cfa_offset 16
	add	r7, sp, #0
	.cfi_def_cfa_register 7
	str	r0, [r7, #4]
	movs	r2, r1
	adds	r3, r7, #3
	strb	r2, [r3]
	.loc 1 398 0
	ldr	r3, [r7, #4]
	cmp	r3, #0
	bne	.L118
	.loc 1 398 0 discriminator 1
	movs	r3, #0
	b	.L119
.L118:
	.loc 1 399 0
	ldr	r3, [r7, #4]
	ldrb	r3, [r3, #26]
	adds	r2, r7, #3
	ldrb	r2, [r2]
	cmp	r2, r3
	beq	.L120
	.loc 1 401 0
	ldr	r3, [r7, #4]
	adds	r2, r7, #3
	ldrb	r2, [r2]
	strb	r2, [r3, #26]
	.loc 1 403 0
	adds	r3, r7, #3
	ldrb	r3, [r3]
	cmp	r3, #0
	bne	.L121
	.loc 1 403 0 is_stmt 0 discriminator 1
	bl	GUI_GetObjectActive
	movs	r3, r0
	movs	r2, r3
	ldr	r3, [r7, #4]
	cmp	r2, r3
	bne	.L121
	.loc 1 404 0 is_stmt 1
	movs	r1, #0
	movs	r0, #0
	bl	GUI_SetObjectActive
.L121:
	.loc 1 406 0
	ldr	r3, [r7, #4]
	ldr	r3, [r3, #20]
	cmp	r3, #0
	bne	.L122
	.loc 1 408 0
	ldr	r3, [r7, #4]
	movs	r0, r3
	bl	GUI_IsWindowObject
	subs	r3, r0, #0
	beq	.L120
	.loc 1 410 0
	ldr	r3, [r7, #4]
	movs	r0, r3
	bl	GUI_UpdateChildTreeInheritance
	.loc 1 411 0
	adds	r3, r7, #3
	ldrb	r3, [r3]
	cmp	r3, #0
	beq	.L124
	.loc 1 413 0
	ldr	r3, [r7, #4]
	movs	r2, #62
	ldrb	r0, [r3, r2]
	adds	r3, r7, #3
	ldrb	r3, [r3]
	movs	r2, #0
	movs	r1, r3
	bl	LCDIF_SetLayerEnabled
	.loc 1 414 0
	ldr	r3, [r7, #4]
	movs	r0, r3
	bl	GUI_Invalidate
	b	.L120
.L124:
	.loc 1 416 0
	ldr	r3, [r7, #4]
	movs	r2, #62
	ldrb	r0, [r3, r2]
	adds	r3, r7, #3
	ldrb	r3, [r3]
	movs	r2, #1
	movs	r1, r3
	bl	LCDIF_SetLayerEnabled
	b	.L120
.L122:
	.loc 1 421 0
	ldr	r3, [r7, #4]
	movs	r0, r3
	bl	GUI_IsWindowObject
	subs	r3, r0, #0
	beq	.L125
	.loc 1 422 0
	ldr	r3, [r7, #4]
	movs	r0, r3
	bl	GUI_UpdateChildTreeInheritance
.L125:
	.loc 1 424 0
	ldr	r3, [r7, #4]
	movs	r0, r3
	bl	GUI_Invalidate
.L120:
	.loc 1 427 0
	movs	r3, #1
.L119:
	.loc 1 428 0
	movs	r0, r3
	mov	sp, r7
	add	sp, sp, #8
	@ sp needed
	pop	{r7, pc}
	.cfi_endproc
.LFE18:
	.size	GUI_SetObjectVisibility, .-GUI_SetObjectVisibility
	.section	.text.GUI_GetObjectText,"ax",%progbits
	.align	2
	.global	GUI_GetObjectText
	.code	16
	.thumb_func
	.type	GUI_GetObjectText, %function
GUI_GetObjectText:
.LFB19:
	.loc 1 431 0
	.cfi_startproc
	@ args = 0, pretend = 0, frame = 8
	@ frame_needed = 1, uses_anonymous_args = 0
	push	{r7, lr}
	.cfi_def_cfa_offset 8
	.cfi_offset 7, -8
	.cfi_offset 14, -4
	sub	sp, sp, #8
	.cfi_def_cfa_offset 16
	add	r7, sp, #0
	.cfi_def_cfa_register 7
	str	r0, [r7, #4]
	.loc 1 432 0
	ldr	r3, [r7, #4]
	cmp	r3, #0
	beq	.L127
	.loc 1 432 0 discriminator 1
	ldr	r3, [r7, #4]
	ldrb	r3, [r3, #24]
	cmp	r3, #3
	bhi	.L127
.LBB24:
	.loc 1 442 0
	ldr	r3, [r7, #4]
	ldrb	r3, [r3, #24]
	movs	r2, r3
	ldr	r3, .L129
	lsls	r2, r2, #2
	ldr	r3, [r2, r3]
	cmp	r3, #0
	beq	.L127
	.loc 1 443 0
	ldr	r3, [r7, #4]
	ldrb	r3, [r3, #24]
	movs	r2, r3
	ldr	r3, .L129
	lsls	r2, r2, #2
	ldr	r3, [r2, r3]
	ldr	r2, [r7, #4]
	movs	r0, r2
	blx	r3
	movs	r3, r0
	b	.L128
.L127:
.LBE24:
	.loc 1 445 0
	movs	r3, #0
.L128:
	.loc 1 446 0
	movs	r0, r3
	mov	sp, r7
	add	sp, sp, #8
	@ sp needed
	pop	{r7, pc}
.L130:
	.align	2
.L129:
	.word	GetTextObject.7631
	.cfi_endproc
.LFE19:
	.size	GUI_GetObjectText, .-GUI_GetObjectText
	.section	.text.GUI_SetObjectText,"ax",%progbits
	.align	2
	.global	GUI_SetObjectText
	.code	16
	.thumb_func
	.type	GUI_SetObjectText, %function
GUI_SetObjectText:
.LFB20:
	.loc 1 449 0
	.cfi_startproc
	@ args = 28, pretend = 16, frame = 16
	@ frame_needed = 1, uses_anonymous_args = 0
	sub	sp, sp, #16
	.cfi_def_cfa_offset 16
	push	{r4, r7, lr}
	.cfi_def_cfa_offset 28
	.cfi_offset 4, -28
	.cfi_offset 7, -24
	.cfi_offset 14, -20
	sub	sp, sp, #20
	.cfi_def_cfa_offset 48
	add	r7, sp, #0
	.cfi_def_cfa_register 7
	str	r0, [r7, #4]
	movs	r0, #4
	movs	r4, #32
	mov	ip, r4
	add	ip, ip, r7
	add	r0, r0, ip
	str	r1, [r0]
	str	r2, [r0, #4]
	str	r3, [r0, #8]
	.loc 1 450 0
	movs	r3, #15
	adds	r3, r7, r3
	movs	r2, #0
	strb	r2, [r3]
	.loc 1 452 0
	ldr	r3, [r7, #4]
	cmp	r3, #0
	beq	.L132
	.loc 1 452 0 discriminator 1
	ldr	r3, [r7, #4]
	ldrb	r3, [r3, #24]
	cmp	r3, #3
	bhi	.L132
.LBB25:
	.loc 1 462 0
	ldr	r3, [r7, #4]
	ldrb	r3, [r3, #24]
	movs	r2, r3
	ldr	r3, .L134
	lsls	r2, r2, #2
	ldr	r3, [r2, r3]
	cmp	r3, #0
	beq	.L132
	.loc 1 464 0
	movs	r3, #36
	adds	r3, r7, r3
	movs	r0, r3
	bl	GDI_UpdateTextExtent
	.loc 1 466 0
	ldr	r3, [r7, #4]
	ldrb	r3, [r3, #24]
	movs	r2, r3
	ldr	r3, .L134
	lsls	r2, r2, #2
	ldr	r3, [r2, r3]
	movs	r2, #15
	adds	r4, r7, r2
	movs	r2, #36
	adds	r1, r7, r2
	ldr	r2, [r7, #4]
	movs	r0, r2
	blx	r3
	movs	r3, r0
	strb	r3, [r4]
	movs	r3, #15
	adds	r3, r7, r3
	ldrb	r3, [r3]
	cmp	r3, #1
	bne	.L132
	.loc 1 467 0
	ldr	r3, [r7, #4]
	movs	r0, r3
	bl	GUI_Invalidate
.L132:
.LBE25:
	.loc 1 470 0
	movs	r3, #15
	adds	r3, r7, r3
	ldrb	r3, [r3]
	.loc 1 471 0
	movs	r0, r3
	mov	sp, r7
	add	sp, sp, #20
	@ sp needed
	pop	{r4, r7}
	pop	{r3}
	add	sp, sp, #16
	bx	r3
.L135:
	.align	2
.L134:
	.word	SetTextObject.7639
	.cfi_endproc
.LFE20:
	.size	GUI_SetObjectText, .-GUI_SetObjectText
	.section	.text.GUI_GetObjectFont,"ax",%progbits
	.align	2
	.global	GUI_GetObjectFont
	.code	16
	.thumb_func
	.type	GUI_GetObjectFont, %function
GUI_GetObjectFont:
.LFB21:
	.loc 1 474 0
	.cfi_startproc
	@ args = 0, pretend = 0, frame = 16
	@ frame_needed = 1, uses_anonymous_args = 0
	push	{r7, lr}
	.cfi_def_cfa_offset 8
	.cfi_offset 7, -8
	.cfi_offset 14, -4
	sub	sp, sp, #16
	.cfi_def_cfa_offset 24
	add	r7, sp, #0
	.cfi_def_cfa_register 7
	str	r0, [r7, #4]
	.loc 1 475 0
	ldr	r3, [r7, #4]
	cmp	r3, #0
	beq	.L137
	.loc 1 475 0 discriminator 1
	ldr	r3, [r7, #4]
	ldrb	r3, [r3, #24]
	cmp	r3, #3
	bhi	.L137
.LBB26:
	.loc 1 485 0
	ldr	r3, [r7, #4]
	ldrb	r3, [r3, #24]
	movs	r2, r3
	ldr	r3, .L141
	lsls	r2, r2, #2
	ldr	r3, [r2, r3]
	cmp	r3, #0
	beq	.L137
.LBB27:
	.loc 1 487 0
	ldr	r3, [r7, #4]
	ldrb	r3, [r3, #24]
	movs	r2, r3
	ldr	r3, .L141
	lsls	r2, r2, #2
	ldr	r3, [r2, r3]
	ldr	r2, [r7, #4]
	movs	r0, r2
	blx	r3
	movs	r3, r0
	str	r3, [r7, #12]
	.loc 1 489 0
	ldr	r3, [r7, #12]
	cmp	r3, #0
	beq	.L138
	.loc 1 489 0 is_stmt 0 discriminator 1
	ldr	r3, [r7, #12]
	ldr	r3, [r3, #16]
	.loc 1 489 0 is_stmt 1 discriminator 1
	b	.L140
.L138:
	.loc 1 489 0 discriminator 2
	movs	r3, #0
	.loc 1 489 0 discriminator 2
	b	.L140
.L137:
.LBE27:
.LBE26:
	.loc 1 492 0
	movs	r3, #0
.L140:
	.loc 1 493 0
	movs	r0, r3
	mov	sp, r7
	add	sp, sp, #16
	@ sp needed
	pop	{r7, pc}
.L142:
	.align	2
.L141:
	.word	GetTextObject.7644
	.cfi_endproc
.LFE21:
	.size	GUI_GetObjectFont, .-GUI_GetObjectFont
	.section	.text.GUI_SetObjectFont,"ax",%progbits
	.align	2
	.global	GUI_SetObjectFont
	.code	16
	.thumb_func
	.type	GUI_SetObjectFont, %function
GUI_SetObjectFont:
.LFB22:
	.loc 1 496 0
	.cfi_startproc
	@ args = 0, pretend = 0, frame = 16
	@ frame_needed = 1, uses_anonymous_args = 0
	push	{r7, lr}
	.cfi_def_cfa_offset 8
	.cfi_offset 7, -8
	.cfi_offset 14, -4
	sub	sp, sp, #16
	.cfi_def_cfa_offset 24
	add	r7, sp, #0
	.cfi_def_cfa_register 7
	str	r0, [r7, #4]
	str	r1, [r7]
	.loc 1 497 0
	movs	r3, #15
	adds	r3, r7, r3
	movs	r2, #0
	strb	r2, [r3]
	.loc 1 499 0
	ldr	r3, [r7, #4]
	cmp	r3, #0
	beq	.L144
	.loc 1 499 0 discriminator 1
	ldr	r3, [r7, #4]
	ldrb	r3, [r3, #24]
	cmp	r3, #3
	bhi	.L144
.LBB28:
	.loc 1 510 0
	ldr	r3, [r7, #4]
	ldrb	r3, [r3, #24]
	movs	r2, r3
	ldr	r3, .L146
	lsls	r2, r2, #2
	ldr	r3, [r2, r3]
	cmp	r3, #0
	beq	.L144
	.loc 1 511 0 discriminator 1
	ldr	r3, [r7, #4]
	ldrb	r3, [r3, #24]
	movs	r2, r3
	ldr	r3, .L146
	lsls	r2, r2, #2
	ldr	r3, [r2, r3]
	.loc 1 510 0 discriminator 1
	ldr	r2, [r7, #4]
	movs	r0, r2
	blx	r3
	movs	r3, r0
	str	r3, [r7, #8]
	ldr	r3, [r7, #8]
	cmp	r3, #0
	beq	.L144
	.loc 1 513 0
	ldr	r3, [r7, #8]
	ldr	r2, [r7]
	str	r2, [r3, #16]
	.loc 1 514 0
	ldr	r3, [r7, #8]
	movs	r0, r3
	bl	GDI_UpdateTextExtent
	.loc 1 516 0
	ldr	r3, [r7, #4]
	movs	r0, r3
	bl	GUI_Invalidate
	.loc 1 517 0
	movs	r3, #15
	adds	r3, r7, r3
	movs	r2, #1
	strb	r2, [r3]
.L144:
.LBE28:
	.loc 1 520 0
	movs	r3, #15
	adds	r3, r7, r3
	ldrb	r3, [r3]
	.loc 1 521 0
	movs	r0, r3
	mov	sp, r7
	add	sp, sp, #16
	@ sp needed
	pop	{r7, pc}
.L147:
	.align	2
.L146:
	.word	GetTextObject.7653
	.cfi_endproc
.LFE22:
	.size	GUI_SetObjectFont, .-GUI_SetObjectFont
	.section	.text.GUI_GetObjectTextColor,"ax",%progbits
	.align	2
	.global	GUI_GetObjectTextColor
	.code	16
	.thumb_func
	.type	GUI_GetObjectTextColor, %function
GUI_GetObjectTextColor:
.LFB23:
	.loc 1 524 0
	.cfi_startproc
	@ args = 0, pretend = 0, frame = 16
	@ frame_needed = 1, uses_anonymous_args = 0
	push	{r7, lr}
	.cfi_def_cfa_offset 8
	.cfi_offset 7, -8
	.cfi_offset 14, -4
	sub	sp, sp, #16
	.cfi_def_cfa_offset 24
	add	r7, sp, #0
	.cfi_def_cfa_register 7
	str	r0, [r7, #4]
	.loc 1 525 0
	ldr	r3, [r7, #4]
	cmp	r3, #0
	beq	.L149
	.loc 1 525 0 discriminator 1
	ldr	r3, [r7, #4]
	ldrb	r3, [r3, #24]
	cmp	r3, #3
	bhi	.L149
.LBB29:
	.loc 1 535 0
	ldr	r3, [r7, #4]
	ldrb	r3, [r3, #24]
	movs	r2, r3
	ldr	r3, .L153
	lsls	r2, r2, #2
	ldr	r3, [r2, r3]
	cmp	r3, #0
	beq	.L149
.LBB30:
	.loc 1 537 0
	ldr	r3, [r7, #4]
	ldrb	r3, [r3, #24]
	movs	r2, r3
	ldr	r3, .L153
	lsls	r2, r2, #2
	ldr	r3, [r2, r3]
	ldr	r2, [r7, #4]
	movs	r0, r2
	blx	r3
	movs	r3, r0
	str	r3, [r7, #12]
	.loc 1 539 0
	ldr	r3, [r7, #12]
	cmp	r3, #0
	beq	.L150
	.loc 1 539 0 is_stmt 0 discriminator 1
	ldr	r3, [r7, #12]
	adds	r3, r3, #8
	.loc 1 539 0 is_stmt 1 discriminator 1
	b	.L152
.L150:
	.loc 1 539 0 discriminator 2
	movs	r3, #0
	.loc 1 539 0 discriminator 2
	b	.L152
.L149:
.LBE30:
.LBE29:
	.loc 1 542 0
	movs	r3, #0
.L152:
	.loc 1 543 0
	movs	r0, r3
	mov	sp, r7
	add	sp, sp, #16
	@ sp needed
	pop	{r7, pc}
.L154:
	.align	2
.L153:
	.word	GetTextObject.7658
	.cfi_endproc
.LFE23:
	.size	GUI_GetObjectTextColor, .-GUI_GetObjectTextColor
	.section	.text.GUI_SetObjecTextColor,"ax",%progbits
	.align	2
	.global	GUI_SetObjecTextColor
	.code	16
	.thumb_func
	.type	GUI_SetObjecTextColor, %function
GUI_SetObjecTextColor:
.LFB24:
	.loc 1 546 0
	.cfi_startproc
	@ args = 0, pretend = 0, frame = 48
	@ frame_needed = 1, uses_anonymous_args = 0
	push	{r4, r7, lr}
	.cfi_def_cfa_offset 12
	.cfi_offset 4, -12
	.cfi_offset 7, -8
	.cfi_offset 14, -4
	sub	sp, sp, #52
	.cfi_def_cfa_offset 64
	add	r7, sp, #0
	.cfi_def_cfa_register 7
	str	r0, [r7, #12]
	adds	r3, r7, #4
	str	r1, [r3]
	str	r2, [r3, #4]
	.loc 1 547 0
	movs	r3, #47
	adds	r3, r7, r3
	movs	r2, #0
	strb	r2, [r3]
	.loc 1 549 0
	ldr	r3, [r7, #12]
	cmp	r3, #0
	beq	.L156
	.loc 1 549 0 discriminator 1
	ldr	r3, [r7, #12]
	ldrb	r3, [r3, #24]
	cmp	r3, #3
	bhi	.L156
.LBB31:
	.loc 1 560 0
	ldr	r3, [r7, #12]
	ldrb	r3, [r3, #24]
	movs	r2, r3
	ldr	r3, .L160
	lsls	r2, r2, #2
	ldr	r3, [r2, r3]
	cmp	r3, #0
	beq	.L156
	.loc 1 561 0 discriminator 1
	ldr	r3, [r7, #12]
	ldrb	r3, [r3, #24]
	movs	r2, r3
	ldr	r3, .L160
	lsls	r2, r2, #2
	ldr	r3, [r2, r3]
	.loc 1 560 0 discriminator 1
	ldr	r2, [r7, #12]
	movs	r0, r2
	blx	r3
	movs	r3, r0
	str	r3, [r7, #40]
	ldr	r3, [r7, #40]
	cmp	r3, #0
	beq	.L156
.LBB32:
	.loc 1 563 0
	movs	r3, #16
	adds	r3, r7, r3
	ldr	r2, [r7, #40]
	ldmia	r2!, {r0, r1, r4}
	stmia	r3!, {r0, r1, r4}
	ldmia	r2!, {r0, r1, r4}
	stmia	r3!, {r0, r1, r4}
	.loc 1 572 0
	movs	r3, #16
	adds	r3, r7, r3
	adds	r2, r7, #4
	adds	r3, r3, #8
	ldmia	r2!, {r0, r1}
	stmia	r3!, {r0, r1}
	.loc 1 573 0
	ldr	r3, [r7, #12]
	ldrb	r3, [r3, #24]
	movs	r2, r3
	ldr	r3, .L160+4
	lsls	r2, r2, #2
	ldr	r3, [r2, r3]
	cmp	r3, #0
	beq	.L157
	.loc 1 574 0
	ldr	r3, [r7, #12]
	ldrb	r3, [r3, #24]
	movs	r2, r3
	ldr	r3, .L160+4
	lsls	r2, r2, #2
	ldr	r3, [r2, r3]
	movs	r2, #47
	adds	r4, r7, r2
	movs	r2, #16
	adds	r1, r7, r2
	ldr	r2, [r7, #12]
	movs	r0, r2
	blx	r3
	movs	r3, r0
	strb	r3, [r4]
.L157:
	.loc 1 576 0
	movs	r3, #47
	adds	r3, r7, r3
	ldrb	r3, [r3]
	cmp	r3, #0
	beq	.L156
	.loc 1 576 0 is_stmt 0 discriminator 1
	ldr	r3, [r7, #12]
	movs	r0, r3
	bl	GUI_Invalidate
.L156:
.LBE32:
.LBE31:
	.loc 1 579 0 is_stmt 1
	movs	r3, #47
	adds	r3, r7, r3
	ldrb	r3, [r3]
	.loc 1 580 0
	movs	r0, r3
	mov	sp, r7
	add	sp, sp, #52
	@ sp needed
	pop	{r4, r7, pc}
.L161:
	.align	2
.L160:
	.word	GetTextObject.7667
	.word	SetTextObject.7671
	.cfi_endproc
.LFE24:
	.size	GUI_SetObjecTextColor, .-GUI_SetObjecTextColor
	.section	.text.GUI_GetObjectCaption,"ax",%progbits
	.align	2
	.global	GUI_GetObjectCaption
	.code	16
	.thumb_func
	.type	GUI_GetObjectCaption, %function
GUI_GetObjectCaption:
.LFB25:
	.loc 1 583 0
	.cfi_startproc
	@ args = 0, pretend = 0, frame = 16
	@ frame_needed = 1, uses_anonymous_args = 0
	push	{r7, lr}
	.cfi_def_cfa_offset 8
	.cfi_offset 7, -8
	.cfi_offset 14, -4
	sub	sp, sp, #16
	.cfi_def_cfa_offset 24
	add	r7, sp, #0
	.cfi_def_cfa_register 7
	str	r0, [r7, #4]
	.loc 1 584 0
	ldr	r3, [r7, #4]
	cmp	r3, #0
	beq	.L163
	.loc 1 584 0 discriminator 1
	ldr	r3, [r7, #4]
	ldrb	r3, [r3, #24]
	cmp	r3, #3
	bhi	.L163
.LBB33:
	.loc 1 594 0
	ldr	r3, [r7, #4]
	ldrb	r3, [r3, #24]
	movs	r2, r3
	ldr	r3, .L167
	lsls	r2, r2, #2
	ldr	r3, [r2, r3]
	cmp	r3, #0
	beq	.L163
.LBB34:
	.loc 1 596 0
	ldr	r3, [r7, #4]
	ldrb	r3, [r3, #24]
	movs	r2, r3
	ldr	r3, .L167
	lsls	r2, r2, #2
	ldr	r3, [r2, r3]
	ldr	r2, [r7, #4]
	movs	r0, r2
	blx	r3
	movs	r3, r0
	str	r3, [r7, #12]
	.loc 1 598 0
	ldr	r3, [r7, #12]
	cmp	r3, #0
	beq	.L164
	.loc 1 598 0 is_stmt 0 discriminator 1
	ldr	r3, [r7, #12]
	ldr	r3, [r3, #20]
	.loc 1 598 0 is_stmt 1 discriminator 1
	b	.L166
.L164:
	.loc 1 598 0 discriminator 2
	movs	r3, #0
	.loc 1 598 0 discriminator 2
	b	.L166
.L163:
.LBE34:
.LBE33:
	.loc 1 601 0
	movs	r3, #0
.L166:
	.loc 1 602 0
	movs	r0, r3
	mov	sp, r7
	add	sp, sp, #16
	@ sp needed
	pop	{r7, pc}
.L168:
	.align	2
.L167:
	.word	GetTextObject.7676
	.cfi_endproc
.LFE25:
	.size	GUI_GetObjectCaption, .-GUI_GetObjectCaption
	.section	.text.GUI_SetObjectCaption,"ax",%progbits
	.align	2
	.global	GUI_SetObjectCaption
	.code	16
	.thumb_func
	.type	GUI_SetObjectCaption, %function
GUI_SetObjectCaption:
.LFB26:
	.loc 1 605 0
	.cfi_startproc
	@ args = 0, pretend = 0, frame = 24
	@ frame_needed = 1, uses_anonymous_args = 0
	push	{r7, lr}
	.cfi_def_cfa_offset 8
	.cfi_offset 7, -8
	.cfi_offset 14, -4
	sub	sp, sp, #24
	.cfi_def_cfa_offset 32
	add	r7, sp, #0
	.cfi_def_cfa_register 7
	str	r0, [r7, #4]
	str	r1, [r7]
	.loc 1 606 0
	movs	r3, #23
	adds	r3, r7, r3
	movs	r2, #0
	strb	r2, [r3]
	.loc 1 608 0
	ldr	r3, [r7, #4]
	cmp	r3, #0
	beq	.L170
	.loc 1 608 0 discriminator 1
	ldr	r3, [r7, #4]
	ldrb	r3, [r3, #24]
	cmp	r3, #3
	bhi	.L170
.LBB35:
	.loc 1 619 0
	ldr	r3, [r7, #4]
	ldrb	r3, [r3, #24]
	movs	r2, r3
	ldr	r3, .L175
	lsls	r2, r2, #2
	ldr	r3, [r2, r3]
	cmp	r3, #0
	beq	.L170
	.loc 1 620 0 discriminator 1
	ldr	r3, [r7, #4]
	ldrb	r3, [r3, #24]
	movs	r2, r3
	ldr	r3, .L175
	lsls	r2, r2, #2
	ldr	r3, [r2, r3]
	.loc 1 619 0 discriminator 1
	ldr	r2, [r7, #4]
	movs	r0, r2
	blx	r3
	movs	r3, r0
	str	r3, [r7, #16]
	ldr	r3, [r7, #16]
	cmp	r3, #0
	beq	.L170
	.loc 1 622 0
	ldr	r3, [r7, #16]
	ldr	r3, [r3, #20]
	cmp	r3, #0
	beq	.L171
	.loc 1 622 0 discriminator 1
	ldr	r3, [r7, #16]
	ldr	r3, [r3, #20]
	movs	r0, r3
	bl	IsDynamicMemory
	subs	r3, r0, #0
	beq	.L171
	.loc 1 623 0
	ldr	r3, [r7, #16]
	ldr	r3, [r3, #20]
	movs	r0, r3
	bl	free
.L171:
	.loc 1 625 0
	ldr	r3, [r7, #16]
	movs	r2, #0
	str	r2, [r3, #20]
	.loc 1 627 0
	ldr	r3, [r7]
	cmp	r3, #0
	beq	.L172
	.loc 1 627 0 discriminator 1
	ldr	r3, [r7]
	movs	r0, r3
	bl	IsStackMemory
	subs	r3, r0, #0
	beq	.L172
.LBB36:
	.loc 1 629 0
	ldr	r3, [r7]
	movs	r0, r3
	bl	strlen
	movs	r3, r0
	str	r3, [r7, #12]
	.loc 1 630 0
	ldr	r3, [r7, #12]
	adds	r3, r3, #1
	movs	r0, r3
	bl	malloc
	movs	r3, r0
	str	r3, [r7, #8]
	.loc 1 632 0
	ldr	r3, [r7, #8]
	cmp	r3, #0
	beq	.L173
	.loc 1 634 0
	ldr	r2, [r7, #12]
	ldr	r1, [r7]
	ldr	r3, [r7, #8]
	movs	r0, r3
	bl	memcpy
	.loc 1 635 0
	ldr	r2, [r7, #8]
	ldr	r3, [r7, #12]
	adds	r3, r2, r3
	movs	r2, #0
	strb	r2, [r3]
.L173:
	.loc 1 637 0
	ldr	r3, [r7, #8]
	str	r3, [r7]
.L172:
.LBE36:
	.loc 1 639 0
	ldr	r3, [r7, #16]
	ldr	r2, [r7]
	str	r2, [r3, #20]
	.loc 1 640 0
	ldr	r3, [r7, #16]
	movs	r0, r3
	bl	GDI_UpdateTextExtent
	.loc 1 642 0
	ldr	r3, [r7, #4]
	movs	r0, r3
	bl	GUI_Invalidate
	.loc 1 643 0
	movs	r3, #23
	adds	r3, r7, r3
	movs	r2, #1
	strb	r2, [r3]
.L170:
.LBE35:
	.loc 1 646 0
	movs	r3, #23
	adds	r3, r7, r3
	ldrb	r3, [r3]
	.loc 1 647 0
	movs	r0, r3
	mov	sp, r7
	add	sp, sp, #24
	@ sp needed
	pop	{r7, pc}
.L176:
	.align	2
.L175:
	.word	GetTextObject.7685
	.cfi_endproc
.LFE26:
	.size	GUI_SetObjectCaption, .-GUI_SetObjectCaption
	.section	.text.GUI_GetObjectActive,"ax",%progbits
	.align	2
	.global	GUI_GetObjectActive
	.code	16
	.thumb_func
	.type	GUI_GetObjectActive, %function
GUI_GetObjectActive:
.LFB27:
	.loc 1 650 0
	.cfi_startproc
	@ args = 0, pretend = 0, frame = 0
	@ frame_needed = 1, uses_anonymous_args = 0
	push	{r7, lr}
	.cfi_def_cfa_offset 8
	.cfi_offset 7, -8
	.cfi_offset 14, -4
	add	r7, sp, #0
	.cfi_def_cfa_register 7
	.loc 1 651 0
	ldr	r3, .L179
	ldr	r3, [r3]
	.loc 1 652 0
	movs	r0, r3
	mov	sp, r7
	@ sp needed
	pop	{r7, pc}
.L180:
	.align	2
.L179:
	.word	ActiveObject
	.cfi_endproc
.LFE27:
	.size	GUI_GetObjectActive, .-GUI_GetObjectActive
	.section	.text.GUI_SetObjectActive,"ax",%progbits
	.align	2
	.global	GUI_SetObjectActive
	.code	16
	.thumb_func
	.type	GUI_SetObjectActive, %function
GUI_SetObjectActive:
.LFB28:
	.loc 1 655 0
	.cfi_startproc
	@ args = 0, pretend = 0, frame = 8
	@ frame_needed = 1, uses_anonymous_args = 0
	push	{r7, lr}
	.cfi_def_cfa_offset 8
	.cfi_offset 7, -8
	.cfi_offset 14, -4
	sub	sp, sp, #8
	.cfi_def_cfa_offset 16
	add	r7, sp, #0
	.cfi_def_cfa_register 7
	str	r0, [r7, #4]
	movs	r2, r1
	adds	r3, r7, #3
	strb	r2, [r3]
	.loc 1 656 0
	ldr	r2, [r7, #4]
	ldr	r3, .L188
	ldr	r3, [r3]
	cmp	r2, r3
	beq	.L186
.LBB37:
	.loc 1 666 0
	ldr	r3, .L188
	ldr	r3, [r3]
	cmp	r3, #0
	beq	.L183
	.loc 1 668 0
	ldr	r3, .L188
	ldr	r3, [r3]
	ldrb	r3, [r3, #24]
	movs	r2, r3
	ldr	r3, .L188+4
	lsls	r2, r2, #2
	ldr	r3, [r2, r3]
	cmp	r3, #0
	beq	.L183
	.loc 1 670 0
	ldr	r3, .L188
	ldr	r3, [r3]
	ldrb	r3, [r3, #24]
	movs	r2, r3
	ldr	r3, .L188+4
	lsls	r2, r2, #2
	ldr	r2, [r2, r3]
	ldr	r3, .L188
	ldr	r3, [r3]
	movs	r1, #0
	movs	r0, r3
	blx	r2
	.loc 1 671 0
	adds	r3, r7, #3
	ldrb	r3, [r3]
	cmp	r3, #0
	beq	.L183
	.loc 1 671 0 is_stmt 0 discriminator 1
	ldr	r3, .L188
	ldr	r3, [r3]
	movs	r0, r3
	bl	GUI_Invalidate
.L183:
	.loc 1 674 0 is_stmt 1
	ldr	r3, [r7, #4]
	ldrb	r3, [r3, #24]
	cmp	r3, #3
	bhi	.L184
	.loc 1 674 0 is_stmt 0 discriminator 1
	ldr	r3, .L188
	ldr	r2, [r7, #4]
	str	r2, [r3]
	ldr	r3, .L188
	ldr	r3, [r3]
	cmp	r3, #0
	beq	.L184
	.loc 1 676 0 is_stmt 1
	ldr	r3, .L188
	ldr	r3, [r3]
	ldrb	r3, [r3, #24]
	movs	r2, r3
	ldr	r3, .L188+4
	lsls	r2, r2, #2
	ldr	r3, [r2, r3]
	cmp	r3, #0
	beq	.L187
	.loc 1 678 0
	ldr	r3, .L188
	ldr	r3, [r3]
	ldrb	r3, [r3, #24]
	movs	r2, r3
	ldr	r3, .L188+4
	lsls	r2, r2, #2
	ldr	r2, [r2, r3]
	ldr	r3, .L188
	ldr	r3, [r3]
	movs	r1, #1
	movs	r0, r3
	blx	r2
	.loc 1 679 0
	adds	r3, r7, #3
	ldrb	r3, [r3]
	cmp	r3, #0
	beq	.L187
	.loc 1 679 0 is_stmt 0 discriminator 1
	ldr	r3, .L188
	ldr	r3, [r3]
	movs	r0, r3
	bl	GUI_Invalidate
	.loc 1 676 0 is_stmt 1 discriminator 1
	b	.L187
.L184:
	.loc 1 682 0
	ldr	r3, .L188
	movs	r2, #0
	str	r2, [r3]
.LBE37:
	.loc 1 684 0
	b	.L186
.L187:
.LBB38:
	.loc 1 676 0
	nop
.L186:
.LBE38:
	.loc 1 684 0
	nop
	mov	sp, r7
	add	sp, sp, #8
	@ sp needed
	pop	{r7, pc}
.L189:
	.align	2
.L188:
	.word	ActiveObject
	.word	SetActive.7697
	.cfi_endproc
.LFE28:
	.size	GUI_SetObjectActive, .-GUI_SetObjectActive
	.section	.text.GUI_UpdateActiveState,"ax",%progbits
	.align	2
	.global	GUI_UpdateActiveState
	.code	16
	.thumb_func
	.type	GUI_UpdateActiveState, %function
GUI_UpdateActiveState:
.LFB29:
	.loc 1 687 0
	.cfi_startproc
	@ args = 0, pretend = 0, frame = 8
	@ frame_needed = 1, uses_anonymous_args = 0
	push	{r7, lr}
	.cfi_def_cfa_offset 8
	.cfi_offset 7, -8
	.cfi_offset 14, -4
	sub	sp, sp, #8
	.cfi_def_cfa_offset 16
	add	r7, sp, #0
	.cfi_def_cfa_register 7
	str	r0, [r7, #4]
	movs	r2, r1
	adds	r3, r7, #3
	strb	r2, [r3]
	.loc 1 688 0
	ldr	r3, .L193
	ldr	r3, [r3]
	cmp	r3, #0
	beq	.L192
	.loc 1 688 0 discriminator 1
	ldr	r2, [r7, #4]
	ldr	r3, .L193
	ldr	r3, [r3]
	cmp	r2, r3
	bne	.L192
.LBB39:
	.loc 1 705 0
	ldr	r3, .L193
	ldr	r3, [r3]
	ldrb	r3, [r3, #24]
	movs	r2, r3
	ldr	r3, .L193+4
	lsls	r2, r2, #2
	ldr	r3, [r2, r3]
	cmp	r3, #0
	beq	.L192
	.loc 1 705 0 discriminator 1
	ldr	r3, .L193
	ldr	r3, [r3]
	ldrb	r3, [r3, #24]
	movs	r2, r3
	ldr	r3, .L193+8
	lsls	r2, r2, #2
	ldr	r3, [r2, r3]
	cmp	r3, #0
	beq	.L192
	.loc 1 706 0 discriminator 2
	ldr	r3, .L193
	ldr	r3, [r3]
	ldrb	r3, [r3, #24]
	movs	r2, r3
	ldr	r3, .L193+8
	lsls	r2, r2, #2
	ldr	r2, [r2, r3]
	ldr	r3, .L193
	ldr	r3, [r3]
	movs	r0, r3
	blx	r2
	movs	r3, r0
	movs	r2, r3
	.loc 1 705 0 discriminator 2
	adds	r3, r7, #3
	ldrb	r3, [r3]
	cmp	r3, r2
	beq	.L192
	.loc 1 708 0
	ldr	r3, .L193
	ldr	r3, [r3]
	ldrb	r3, [r3, #24]
	movs	r2, r3
	ldr	r3, .L193+4
	lsls	r2, r2, #2
	ldr	r2, [r2, r3]
	ldr	r3, .L193
	ldr	r0, [r3]
	adds	r3, r7, #3
	ldrb	r3, [r3]
	movs	r1, r3
	blx	r2
	.loc 1 709 0
	ldr	r3, .L193
	ldr	r3, [r3]
	movs	r0, r3
	bl	GUI_Invalidate
.L192:
.LBE39:
	.loc 1 712 0
	nop
	mov	sp, r7
	add	sp, sp, #8
	@ sp needed
	pop	{r7, pc}
.L194:
	.align	2
.L193:
	.word	ActiveObject
	.word	SetActive.7704
	.word	GetActive.7706
	.cfi_endproc
.LFE29:
	.size	GUI_UpdateActiveState, .-GUI_UpdateActiveState
	.section	.text.GUI_DrawObjectDefault,"ax",%progbits
	.align	2
	.global	GUI_DrawObjectDefault
	.code	16
	.thumb_func
	.type	GUI_DrawObjectDefault, %function
GUI_DrawObjectDefault:
.LFB30:
	.loc 1 715 0
	.cfi_startproc
	@ args = 0, pretend = 0, frame = 8
	@ frame_needed = 1, uses_anonymous_args = 0
	push	{r7, lr}
	.cfi_def_cfa_offset 8
	.cfi_offset 7, -8
	.cfi_offset 14, -4
	sub	sp, sp, #8
	.cfi_def_cfa_offset 16
	add	r7, sp, #0
	.cfi_def_cfa_register 7
	str	r0, [r7, #4]
	str	r1, [r7]
	.loc 1 716 0
	ldr	r3, [r7, #4]
	cmp	r3, #0
	beq	.L197
	.loc 1 716 0 discriminator 1
	ldr	r3, [r7, #4]
	ldrb	r3, [r3, #24]
	cmp	r3, #3
	bhi	.L197
	.loc 1 716 0 is_stmt 0 discriminator 2
	ldr	r3, [r7]
	cmp	r3, #0
	beq	.L197
.LBB40:
	.loc 1 726 0 is_stmt 1
	ldr	r3, [r7, #4]
	ldrb	r3, [r3, #24]
	movs	r2, r3
	ldr	r3, .L198
	lsls	r2, r2, #2
	ldr	r3, [r2, r3]
	cmp	r3, #0
	beq	.L197
	.loc 1 727 0
	ldr	r3, [r7, #4]
	ldrb	r3, [r3, #24]
	movs	r2, r3
	ldr	r3, .L198
	lsls	r2, r2, #2
	ldr	r3, [r2, r3]
	ldr	r1, [r7]
	ldr	r2, [r7, #4]
	movs	r0, r2
	blx	r3
.L197:
.LBE40:
	.loc 1 729 0
	nop
	mov	sp, r7
	add	sp, sp, #8
	@ sp needed
	pop	{r7, pc}
.L199:
	.align	2
.L198:
	.word	DrawDefault.7713
	.cfi_endproc
.LFE30:
	.size	GUI_DrawObjectDefault, .-GUI_DrawObjectDefault
	.section	.text.GUI_DestroyObject,"ax",%progbits
	.align	2
	.global	GUI_DestroyObject
	.code	16
	.thumb_func
	.type	GUI_DestroyObject, %function
GUI_DestroyObject:
.LFB31:
	.loc 1 732 0
	.cfi_startproc
	@ args = 0, pretend = 0, frame = 16
	@ frame_needed = 1, uses_anonymous_args = 0
	push	{r7, lr}
	.cfi_def_cfa_offset 8
	.cfi_offset 7, -8
	.cfi_offset 14, -4
	sub	sp, sp, #16
	.cfi_def_cfa_offset 24
	add	r7, sp, #0
	.cfi_def_cfa_register 7
	str	r0, [r7, #4]
	.loc 1 733 0
	ldr	r3, [r7, #4]
	cmp	r3, #0
	beq	.L201
	.loc 1 733 0 discriminator 1
	ldr	r3, [r7, #4]
	ldrb	r3, [r3, #24]
	cmp	r3, #0
	beq	.L201
	.loc 1 733 0 is_stmt 0 discriminator 2
	ldr	r3, [r7, #4]
	ldrb	r3, [r3, #24]
	cmp	r3, #3
	bhi	.L201
.LBB41:
	.loc 1 735 0 is_stmt 1
	movs	r3, #0
	str	r3, [r7, #12]
	.loc 1 737 0
	ldr	r3, [r7, #4]
	movs	r1, #0
	movs	r0, r3
	bl	GUI_SetObjectVisibility
	.loc 1 739 0
	ldr	r3, [r7, #4]
	str	r3, [r7, #12]
	.loc 1 740 0
	movs	r3, #12
	adds	r2, r7, r3
	movs	r3, #4
	movs	r1, #0
	movs	r0, #5
	bl	EM_PostEvent
.L201:
.LBE41:
	.loc 1 742 0
	movs	r3, #0
	.loc 1 743 0
	movs	r0, r3
	mov	sp, r7
	add	sp, sp, #16
	@ sp needed
	pop	{r7, pc}
	.cfi_endproc
.LFE31:
	.size	GUI_DestroyObject, .-GUI_DestroyObject
	.section	.rodata.CalcClientArea.7518,"a",%progbits
	.align	2
	.type	CalcClientArea.7518, %object
	.size	CalcClientArea.7518, 16
CalcClientArea.7518:
	.word	0
	.word	GUI_CalcClientAreaWindow
	.word	GUI_CalcClientAreaButton
	.word	0
	.section	.rodata.GetTextObject.7631,"a",%progbits
	.align	2
	.type	GetTextObject.7631, %object
	.size	GetTextObject.7631, 16
GetTextObject.7631:
	.word	0
	.word	0
	.word	GUI_GetTextButton
	.word	GUI_GetTextLabel
	.section	.rodata.SetTextObject.7639,"a",%progbits
	.align	2
	.type	SetTextObject.7639, %object
	.size	SetTextObject.7639, 16
SetTextObject.7639:
	.word	0
	.word	0
	.word	GUI_SetTextButton
	.word	GUI_SetTextLabel
	.section	.rodata.GetTextObject.7644,"a",%progbits
	.align	2
	.type	GetTextObject.7644, %object
	.size	GetTextObject.7644, 16
GetTextObject.7644:
	.word	0
	.word	0
	.word	GUI_GetTextButton
	.word	GUI_GetTextLabel
	.section	.rodata.GetTextObject.7653,"a",%progbits
	.align	2
	.type	GetTextObject.7653, %object
	.size	GetTextObject.7653, 16
GetTextObject.7653:
	.word	0
	.word	0
	.word	GUI_GetTextButton
	.word	GUI_GetTextLabel
	.section	.rodata.GetTextObject.7658,"a",%progbits
	.align	2
	.type	GetTextObject.7658, %object
	.size	GetTextObject.7658, 16
GetTextObject.7658:
	.word	0
	.word	0
	.word	GUI_GetTextButton
	.word	GUI_GetTextLabel
	.section	.rodata.GetTextObject.7667,"a",%progbits
	.align	2
	.type	GetTextObject.7667, %object
	.size	GetTextObject.7667, 16
GetTextObject.7667:
	.word	0
	.word	0
	.word	GUI_GetTextButton
	.word	GUI_GetTextLabel
	.section	.rodata.SetTextObject.7671,"a",%progbits
	.align	2
	.type	SetTextObject.7671, %object
	.size	SetTextObject.7671, 16
SetTextObject.7671:
	.word	0
	.word	0
	.word	GUI_SetTextButton
	.word	GUI_SetTextLabel
	.section	.rodata.GetTextObject.7676,"a",%progbits
	.align	2
	.type	GetTextObject.7676, %object
	.size	GetTextObject.7676, 16
GetTextObject.7676:
	.word	0
	.word	0
	.word	GUI_GetTextButton
	.word	GUI_GetTextLabel
	.section	.rodata.GetTextObject.7685,"a",%progbits
	.align	2
	.type	GetTextObject.7685, %object
	.size	GetTextObject.7685, 16
GetTextObject.7685:
	.word	0
	.word	0
	.word	GUI_GetTextButton
	.word	GUI_GetTextLabel
	.section	.rodata.SetActive.7697,"a",%progbits
	.align	2
	.type	SetActive.7697, %object
	.size	SetActive.7697, 16
SetActive.7697:
	.word	0
	.word	0
	.word	GUI_SetActiveButton
	.word	0
	.section	.rodata.SetActive.7704,"a",%progbits
	.align	2
	.type	SetActive.7704, %object
	.size	SetActive.7704, 16
SetActive.7704:
	.word	0
	.word	0
	.word	GUI_SetActiveButton
	.word	0
	.section	.rodata.GetActive.7706,"a",%progbits
	.align	2
	.type	GetActive.7706, %object
	.size	GetActive.7706, 16
GetActive.7706:
	.word	0
	.word	0
	.word	GUI_GetActiveButton
	.word	0
	.section	.rodata.DrawDefault.7713,"a",%progbits
	.align	2
	.type	DrawDefault.7713, %object
	.size	DrawDefault.7713, 16
DrawDefault.7713:
	.word	0
	.word	GUI_DrawDefaultWindow
	.word	GUI_DrawDefaultButton
	.word	GUI_DrawDefaultLabel
	.text
.Letext0:
	.file 2 "d:\\1.11\\share\\em_armgcc\\arm-none-eabi\\include\\machine\\_default_types.h"
	.file 3 "d:\\1.11\\share\\em_armgcc\\arm-none-eabi\\include\\sys\\_stdint.h"
	.file 4 ".\\Source/systypes.h"
	.file 5 ".\\Source\\System/dlist.h"
	.file 6 ".\\Source\\GUI/gditypes.h"
	.file 7 ".\\Source\\Lib\\MT6261/drivers\\lcdif.h"
	.file 8 ".\\Source\\Lib\\MT6261/drivers\\usb.h"
	.file 9 ".\\Source\\System/evmngr.h"
	.file 10 ".\\Source\\GUI/bfcfont.h"
	.file 11 ".\\Source\\GUI/gdifont.h"
	.file 12 ".\\Source\\GUI/guiobject.h"
	.file 13 ".\\Source\\GUI/guiwin.h"
	.file 14 ".\\Source\\GUI/gui.h"