	.syntax unified
	.cpu arm9e
	.fpu softvfp
	.eabi_attribute 20, 1
	.eabi_attribute 21, 1
	.eabi_attribute 23, 3
	.eabi_attribute 24, 1
	.eabi_attribute 25, 1
	.eabi_attribute 26, 1
	.eabi_attribute 30, 6
	.eabi_attribute 34, 0
	.eabi_attribute 18, 4
	.thumb
	.syntax unified
	.file	"crc.c"
	.text
.Ltext0:
	.cfi_sections	.debug_frame
	.section	.text.AddByteToCRC16,"ax",%progbits
	.align	2
	.code	16
	.thumb_func
	.type	AddByteToCRC16, %function
AddByteToCRC16:
.LFB1:
	.file 1 "Source\\System\\crc.c"
	.loc 1 25 0
	.cfi_startproc
	@ args = 0, pretend = 0, frame = 8
	@ frame_needed = 1, uses_anonymous_args = 0
	push	{r7, lr}
	.cfi_def_cfa_offset 8
	.cfi_offset 7, -8
	.cfi_offset 14, -4
	sub	sp, sp, #8
	.cfi_def_cfa_offset 16
	add	r7, sp, #0
	.cfi_def_cfa_register 7
	str	r0, [r7, #4]
	movs	r2, r1
	adds	r3, r7, #3
	strb	r2, [r3]
	.loc 1 32 0
	ldr	r3, [r7, #4]
	ldrh	r2, [r3]
	adds	r3, r7, #3
	ldrb	r3, [r3]
	lsls	r3, r3, #16
	lsrs	r3, r3, #16
	eors	r3, r2
	lsls	r3, r3, #16
	lsrs	r2, r3, #16
	ldr	r3, [r7, #4]
	strh	r2, [r3]
	.loc 1 33 0
	ldr	r3, [r7, #4]
	ldrh	r3, [r3]
	lsrs	r3, r3, #4
	lsls	r3, r3, #16
	lsrs	r2, r3, #16
	ldr	r3, [r7, #4]
	ldrh	r3, [r3]
	movs	r1, r3
	movs	r3, #15
	ands	r1, r3
	ldr	r3, .L2
	lsls	r1, r1, #1
	ldrh	r3, [r1, r3]
	eors	r3, r2
	lsls	r3, r3, #16
	lsrs	r2, r3, #16
	ldr	r3, [r7, #4]
	strh	r2, [r3]
	.loc 1 34 0
	ldr	r3, [r7, #4]
	ldrh	r3, [r3]
	lsrs	r3, r3, #4
	lsls	r3, r3, #16
	lsrs	r2, r3, #16
	ldr	r3, [r7, #4]
	ldrh	r3, [r3]
	movs	r1, r3
	movs	r3, #15
	ands	r1, r3
	ldr	r3, .L2
	lsls	r1, r1, #1
	ldrh	r3, [r1, r3]
	eors	r3, r2
	lsls	r3, r3, #16
	lsrs	r2, r3, #16
	ldr	r3, [r7, #4]
	strh	r2, [r3]
	.loc 1 35 0
	nop
	mov	sp, r7
	add	sp, sp, #8
	@ sp needed
	pop	{r7, pc}
.L3:
	.align	2
.L2:
	.word	CRCTable.7485
	.cfi_endproc
.LFE1:
	.size	AddByteToCRC16, .-AddByteToCRC16
	.section	.text.CalculateCRC16,"ax",%progbits
	.align	2
	.global	CalculateCRC16
	.code	16
	.thumb_func
	.type	CalculateCRC16, %function
CalculateCRC16:
.LFB2:
	.loc 1 38 0
	.cfi_startproc
	@ args = 0, pretend = 0, frame = 16
	@ frame_needed = 1, uses_anonymous_args = 0
	push	{r7, lr}
	.cfi_def_cfa_offset 8
	.cfi_offset 7, -8
	.cfi_offset 14, -4
	sub	sp, sp, #16
	.cfi_def_cfa_offset 24
	add	r7, sp, #0
	.cfi_def_cfa_register 7
	str	r0, [r7, #4]
	str	r1, [r7]
	.loc 1 39 0
	movs	r3, #10
	adds	r3, r7, r3
	movs	r2, #1
	rsbs	r2, r2, #0
	strh	r2, [r3]
	.loc 1 41 0
	ldr	r3, [r7, #4]
	cmp	r3, #0
	beq	.L5
.LBB2:
	.loc 1 43 0
	ldr	r3, [r7, #4]
	str	r3, [r7, #12]
	.loc 1 45 0
	b	.L6
.L7:
	.loc 1 46 0
	ldr	r3, [r7, #12]
	adds	r2, r3, #1
	str	r2, [r7, #12]
	ldrb	r2, [r3]
	movs	r3, #10
	adds	r3, r7, r3
	movs	r1, r2
	movs	r0, r3
	bl	AddByteToCRC16
.L6:
	.loc 1 45 0
	ldr	r3, [r7]
	subs	r2, r3, #1
	str	r2, [r7]
	cmp	r3, #0
	bne	.L7
.L5:
.LBE2:
	.loc 1 48 0
	movs	r3, #10
	adds	r3, r7, r3
	ldrh	r3, [r3]
	.loc 1 49 0
	movs	r0, r3
	mov	sp, r7
	add	sp, sp, #16
	@ sp needed
	pop	{r7, pc}
	.cfi_endproc
.LFE2:
	.size	CalculateCRC16, .-CalculateCRC16
	.section	.rodata.CRCTable.7485,"a",%progbits
	.align	2
	.type	CRCTable.7485, %object
	.size	CRCTable.7485, 32
CRCTable.7485:
	.short	0
	.short	-13311
	.short	-10239
	.short	5120
	.short	-4095
	.short	15360
	.short	10240
	.short	-7167
	.short	-24575
	.short	27648
	.short	30720
	.short	-19455
	.short	20480
	.short	-25599
	.short	-30719
	.short	17408
	.text
.Letext0:
	.file 2 "d:\\1.11\\share\\em_armgcc\\arm-none-eabi\\include\\machine\\_default_types.h"
	.file 3 "d:\\1.11\\share\\em_armgcc\\arm-none-eabi\\include\\sys\\_stdint.h"
	.file 4 "d:\\1.11\\share\\em_armgcc\\lib\\gcc\\arm-none-eabi\\5.4.1\\include\\stddef.h"