	.syntax unified
	.cpu arm9e
	.fpu softvfp
	.eabi_attribute 20, 1
	.eabi_attribute 21, 1
	.eabi_attribute 23, 3
	.eabi_attribute 24, 1
	.eabi_attribute 25, 1
	.eabi_attribute 26, 1
	.eabi_attribute 30, 6
	.eabi_attribute 34, 0
	.eabi_attribute 18, 4
	.thumb
	.syntax unified
	.file	"evmngr.c"
	.text
.Ltext0:
	.cfi_sections	.debug_frame
	.section	.bss.EventsList,"aw",%nobits
	.align	2
	.type	EventsList, %object
	.size	EventsList, 4
EventsList:
	.space	4
	.section	.text.EM_GetTopEvent,"ax",%progbits
	.align	2
	.code	16
	.thumb_func
	.type	EM_GetTopEvent, %function
EM_GetTopEvent:
.LFB1:
	.file 1 "Source\\System\\evmngr.c"
	.loc 1 27 0
	.cfi_startproc
	@ args = 0, pretend = 0, frame = 8
	@ frame_needed = 1, uses_anonymous_args = 0
	push	{r7, lr}
	.cfi_def_cfa_offset 8
	.cfi_offset 7, -8
	.cfi_offset 14, -4
	sub	sp, sp, #8
	.cfi_def_cfa_offset 16
	add	r7, sp, #0
	.cfi_def_cfa_register 7
	.loc 1 28 0
	ldr	r3, .L5
	ldr	r3, [r3]
	movs	r0, r3
	bl	DL_GetFirstItem
	movs	r3, r0
	str	r3, [r7, #4]
	.loc 1 30 0
	ldr	r3, [r7, #4]
	cmp	r3, #0
	beq	.L2
	.loc 1 30 0 is_stmt 0 discriminator 1
	ldr	r3, [r7, #4]
	ldr	r3, [r3, #8]
	.loc 1 30 0 is_stmt 1 discriminator 1
	b	.L4
.L2:
	.loc 1 30 0 discriminator 2
	movs	r3, #0
.L4:
	.loc 1 31 0 discriminator 5
	movs	r0, r3
	mov	sp, r7
	add	sp, sp, #8
	@ sp needed
	pop	{r7, pc}
.L6:
	.align	2
.L5:
	.word	EventsList
	.cfi_endproc
.LFE1:
	.size	EM_GetTopEvent, .-EM_GetTopEvent
	.section	.text.EM_Initialize,"ax",%progbits
	.align	2
	.global	EM_Initialize
	.code	16
	.thumb_func
	.type	EM_Initialize, %function
EM_Initialize:
.LFB2:
	.loc 1 34 0
	.cfi_startproc
	@ args = 0, pretend = 0, frame = 0
	@ frame_needed = 1, uses_anonymous_args = 0
	push	{r7, lr}
	.cfi_def_cfa_offset 8
	.cfi_offset 7, -8
	.cfi_offset 14, -4
	add	r7, sp, #0
	.cfi_def_cfa_register 7
	.loc 1 35 0
	ldr	r3, .L11
	ldr	r3, [r3]
	cmp	r3, #0
	bne	.L8
	.loc 1 35 0 discriminator 1
	bl	DL_Create
	movs	r2, r0
	ldr	r3, .L11
	str	r2, [r3]
.L8:
	.loc 1 36 0
	ldr	r3, .L11
	ldr	r3, [r3]
	cmp	r3, #0
	bne	.L9
	.loc 1 36 0 discriminator 1
	movs	r3, #0
	b	.L10
.L9:
	.loc 1 38 0
	movs	r3, #1
.L10:
	.loc 1 39 0
	movs	r0, r3
	mov	sp, r7
	@ sp needed
	pop	{r7, pc}
.L12:
	.align	2
.L11:
	.word	EventsList
	.cfi_endproc
.LFE2:
	.size	EM_Initialize, .-EM_Initialize
	.section	.text.EM_PostEvent,"ax",%progbits
	.align	2
	.global	EM_PostEvent
	.code	16
	.thumb_func
	.type	EM_PostEvent, %function
EM_PostEvent:
.LFB3:
	.loc 1 42 0
	.cfi_startproc
	@ args = 0, pretend = 0, frame = 24
	@ frame_needed = 1, uses_anonymous_args = 0
	push	{r7, lr}
	.cfi_def_cfa_offset 8
	.cfi_offset 7, -8
	.cfi_offset 14, -4
	sub	sp, sp, #24
	.cfi_def_cfa_offset 32
	add	r7, sp, #0
	.cfi_def_cfa_register 7
	str	r1, [r7, #8]
	str	r2, [r7, #4]
	str	r3, [r7]
	movs	r3, #15
	adds	r3, r7, r3
	adds	r2, r0, #0
	strb	r2, [r3]
	.loc 1 45 0
	ldr	r3, [r7, #4]
	cmp	r3, #0
	bne	.L14
	.loc 1 45 0 discriminator 1
	movs	r3, #0
	str	r3, [r7]
.L14:
	.loc 1 47 0
	ldr	r3, [r7]
	adds	r3, r3, #24
	movs	r0, r3
	bl	malloc
	movs	r3, r0
	str	r3, [r7, #20]
	.loc 1 48 0
	ldr	r3, [r7, #20]
	cmp	r3, #0
	beq	.L15
	.loc 1 50 0
	ldr	r3, [r7, #20]
	movs	r2, #15
	adds	r2, r7, r2
	ldrb	r2, [r2]
	strb	r2, [r3, #12]
	.loc 1 51 0
	ldr	r3, [r7, #20]
	ldr	r2, [r7, #8]
	str	r2, [r3, #16]
	.loc 1 52 0
	ldr	r3, [r7, #20]
	ldr	r2, [r7]
	str	r2, [r3, #20]
	.loc 1 53 0
	ldr	r3, [r7, #4]
	cmp	r3, #0
	beq	.L16
	.loc 1 53 0 discriminator 1
	ldr	r3, [r7, #20]
	adds	r3, r3, #24
	ldr	r2, [r7]
	ldr	r1, [r7, #4]
	movs	r0, r3
	bl	memcpy
.L16:
	.loc 1 54 0
	ldr	r3, .L19
	ldr	r3, [r3]
	ldr	r2, [r7, #20]
	movs	r1, r2
	movs	r0, r3
	bl	DL_AddItemPtr
	subs	r3, r0, #0
	beq	.L17
	.loc 1 54 0 is_stmt 0 discriminator 1
	movs	r3, #1
	b	.L18
.L17:
	.loc 1 55 0 is_stmt 1
	ldr	r3, [r7, #20]
	movs	r0, r3
	bl	free
.L15:
	.loc 1 57 0
	movs	r3, #0
.L18:
	.loc 1 58 0
	movs	r0, r3
	mov	sp, r7
	add	sp, sp, #24
	@ sp needed
	pop	{r7, pc}
.L20:
	.align	2
.L19:
	.word	EventsList
	.cfi_endproc
.LFE3:
	.size	EM_PostEvent, .-EM_PostEvent
	.section	.text.EM_ProcessEvents,"ax",%progbits
	.align	2
	.global	EM_ProcessEvents
	.code	16
	.thumb_func
	.type	EM_ProcessEvents, %function
EM_ProcessEvents:
.LFB4:
	.loc 1 61 0
	.cfi_startproc
	@ args = 0, pretend = 0, frame = 8
	@ frame_needed = 1, uses_anonymous_args = 0
	push	{r7, lr}
	.cfi_def_cfa_offset 8
	.cfi_offset 7, -8
	.cfi_offset 14, -4
	sub	sp, sp, #8
	.cfi_def_cfa_offset 16
	add	r7, sp, #0
	.cfi_def_cfa_register 7
	.loc 1 64 0
	b	.L22
.L39:
	.loc 1 66 0
	ldr	r3, .L47
	ldr	r3, [r3]
	ldr	r2, [r7, #4]
	movs	r1, r2
	movs	r0, r3
	bl	DL_ExcludeItem
	.loc 1 68 0
	ldr	r3, [r7, #4]
	ldrb	r3, [r3, #12]
	cmp	r3, #7
	bhi	.L40
	lsls	r2, r3, #2
	ldr	r3, .L47+4
	adds	r3, r2, r3
	ldr	r3, [r3]
	mov	pc, r3
	.section	.rodata.EM_ProcessEvents,"a",%progbits
	.align	2
.L25:
	.word	.L40
	.word	.L24
	.word	.L26
	.word	.L27
	.word	.L28
	.word	.L29
	.word	.L40
	.word	.L31
	.section	.text.EM_ProcessEvents
.L24:
	.loc 1 71 0
	ldr	r3, [r7, #4]
	ldr	r3, [r3, #20]
	cmp	r3, #8
	bne	.L41
	.loc 1 72 0
	ldr	r3, [r7, #4]
	movs	r0, r3
	bl	GUI_OnPenPressHandler
	.loc 1 73 0
	b	.L41
.L26:
	.loc 1 75 0
	ldr	r3, [r7, #4]
	ldr	r3, [r3, #20]
	cmp	r3, #8
	bne	.L42
	.loc 1 76 0
	ldr	r3, [r7, #4]
	movs	r0, r3
	bl	GUI_OnPenReleaseHandler
	.loc 1 77 0
	b	.L42
.L27:
	.loc 1 79 0
	ldr	r3, [r7, #4]
	ldr	r3, [r3, #20]
	cmp	r3, #8
	bne	.L43
	.loc 1 80 0
	ldr	r3, [r7, #4]
	movs	r0, r3
	bl	GUI_OnPenMoveHandler
	.loc 1 81 0
	b	.L43
.L28:
	.loc 1 83 0
	ldr	r3, [r7, #4]
	ldr	r3, [r3, #20]
	cmp	r3, #16
	bne	.L44
	.loc 1 84 0
	ldr	r3, [r7, #4]
	adds	r3, r3, #24
	movs	r0, r3
	bl	GUI_OnPaintHandler
	.loc 1 85 0
	b	.L44
.L29:
	.loc 1 87 0
	ldr	r3, [r7, #4]
	ldr	r3, [r3, #20]
	cmp	r3, #4
	bne	.L45
	.loc 1 88 0
	ldr	r3, [r7, #4]
	adds	r3, r3, #24
	movs	r0, r3
	bl	GUI_OnDestroyHandler
	.loc 1 89 0
	b	.L45
.L31:
	.loc 1 93 0
	ldr	r3, [r7, #4]
	ldr	r3, [r3, #20]
	cmp	r3, #4
	bne	.L46
.LBB2:
	.loc 1 95 0
	ldr	r3, [r7, #4]
	adds	r3, r3, #24
	ldr	r3, [r3]
	str	r3, [r7]
	.loc 1 97 0
	ldr	r3, [r7]
	ldr	r3, [r3, #24]
	cmp	r3, #0
	beq	.L46
	.loc 1 97 0 discriminator 1
	ldr	r3, [r7]
	ldr	r3, [r3, #24]
	ldr	r2, [r7]
	movs	r0, r2
	blx	r3
.LBE2:
	.loc 1 99 0 discriminator 1
	b	.L46
.L40:
	.loc 1 101 0
	nop
	b	.L33
.L41:
	.loc 1 73 0
	nop
	b	.L33
.L42:
	.loc 1 77 0
	nop
	b	.L33
.L43:
	.loc 1 81 0
	nop
	b	.L33
.L44:
	.loc 1 85 0
	nop
	b	.L33
.L45:
	.loc 1 89 0
	nop
	b	.L33
.L46:
	.loc 1 99 0
	nop
.L33:
	.loc 1 103 0
	ldr	r3, [r7, #4]
	movs	r0, r3
	bl	free
.L22:
	.loc 1 64 0
	bl	EM_GetTopEvent
	movs	r3, r0
	str	r3, [r7, #4]
	ldr	r3, [r7, #4]
	cmp	r3, #0
	bne	.L39
	.loc 1 105 0
	nop
	mov	sp, r7
	add	sp, sp, #8
	@ sp needed
	pop	{r7, pc}
.L48:
	.align	2
.L47:
	.word	EventsList
	.word	.L25
	.cfi_endproc
.LFE4:
	.size	EM_ProcessEvents, .-EM_ProcessEvents
	.text
.Letext0:
	.file 2 "d:\\1.11\\share\\em_armgcc\\arm-none-eabi\\include\\machine\\_default_types.h"
	.file 3 "d:\\1.11\\share\\em_armgcc\\arm-none-eabi\\include\\sys\\_stdint.h"
	.file 4 ".\\Source/systypes.h"
	.file 5 ".\\Source\\System/dlist.h"
	.file 6 ".\\Source\\GUI/gditypes.h"
	.file 7 ".\\Source\\Lib\\MT6261/drivers\\lcdif.h"
	.file 8 ".\\Source\\Lib\\MT6261/drivers\\usb.h"
	.file 9 ".\\Source\\System/evmngr.h"
	.file 10 ".\\Source\\System/lrtimer.h"
	.file 11 ".\\Source\\GUI/guiobject.h"
	.file 12 ".\\Source\\GUI/gui.h"