	.syntax unified
	.cpu arm9e
	.fpu softvfp
	.eabi_attribute 20, 1
	.eabi_attribute 21, 1
	.eabi_attribute 23, 3
	.eabi_attribute 24, 1
	.eabi_attribute 25, 1
	.eabi_attribute 26, 1
	.eabi_attribute 30, 6
	.eabi_attribute 34, 0
	.eabi_attribute 18, 4
	.thumb
	.syntax unified
	.file	"lrtimer.c"
	.text
.Ltext0:
	.cfi_sections	.debug_frame
	.comm	TimersList,4,4
	.section	.text.LRT_GPTHandler,"ax",%progbits
	.align	2
	.global	LRT_GPTHandler
	.code	16
	.thumb_func
	.type	LRT_GPTHandler, %function
LRT_GPTHandler:
.LFB1:
	.file 1 "Source\\System\\lrtimer.c"
	.loc 1 29 0
	.cfi_startproc
	@ args = 0, pretend = 0, frame = 32
	@ frame_needed = 1, uses_anonymous_args = 0
	push	{r7, lr}
	.cfi_def_cfa_offset 8
	.cfi_offset 7, -8
	.cfi_offset 14, -4
	sub	sp, sp, #32
	.cfi_def_cfa_offset 40
	add	r7, sp, #0
	.cfi_def_cfa_register 7
	.loc 1 30 0
	ldr	r3, .L15
	ldr	r3, [r3]
	cmp	r3, #0
	bne	.LCB15
	b	.L13	@long jump
.LCB15:
.LBB2:
	.loc 1 32 0
	ldr	r3, .L15
	ldr	r3, [r3]
	movs	r0, r3
	bl	DL_GetFirstItem
	movs	r3, r0
	str	r3, [r7, #28]
	.loc 1 34 0
	b	.L3
.L12:
.LBB3:
	.loc 1 36 0
	ldr	r3, [r7, #28]
	ldr	r3, [r3, #8]
	str	r3, [r7, #4]
	.loc 1 38 0
	ldr	r3, [r7, #4]
	cmp	r3, #0
	beq	.L4
	.loc 1 40 0
	ldr	r3, [r7, #4]
	ldrb	r3, [r3, #12]
	movs	r2, r3
	movs	r3, #1
	ands	r3, r2
	bne	.LCB40
	b	.L14	@long jump
.LCB40:
.LBB4:
	.loc 1 42 0
	bl	USC_GetCurrentTicks
	movs	r3, r0
	str	r3, [r7, #20]
	.loc 1 43 0
	ldr	r3, [r7, #4]
	ldr	r3, [r3, #20]
	ldr	r2, [r7, #20]
	subs	r3, r2, r3
	str	r3, [r7, #16]
	.loc 1 45 0
	ldr	r3, [r7, #4]
	ldr	r2, [r3, #16]
	ldr	r3, [r7, #16]
	cmp	r2, r3
	bhi	.L11
	.loc 1 47 0
	ldr	r3, [r7, #4]
	ldr	r3, [r3, #24]
	cmp	r3, #0
	beq	.L7
	.loc 1 49 0
	ldr	r3, [r7, #4]
	ldrb	r3, [r3, #12]
	movs	r2, r3
	movs	r3, #4
	ands	r3, r2
	beq	.L8
	.loc 1 51 0
	ldr	r3, [r7, #4]
	ldr	r3, [r3, #24]
	ldr	r2, [r7, #4]
	movs	r0, r2
	blx	r3
	.loc 1 53 0
	ldr	r3, [r7, #28]
	ldr	r3, [r3, #8]
	cmp	r3, #0
	bne	.L7
.LBB5:
	.loc 1 55 0
	ldr	r3, [r7, #28]
	str	r3, [r7, #12]
	.loc 1 57 0
	ldr	r3, [r7, #12]
	movs	r0, r3
	bl	DL_GetNextItem
	movs	r3, r0
	str	r3, [r7, #28]
	.loc 1 58 0
	ldr	r3, .L15
	ldr	r3, [r3]
	ldr	r2, [r7, #12]
	movs	r1, r2
	movs	r0, r3
	bl	DL_DeleteItem
	.loc 1 59 0
	b	.L3
.L8:
.LBE5:
	.loc 1 62 0
	adds	r2, r7, #4
	movs	r3, #4
	movs	r1, #0
	movs	r0, #7
	bl	EM_PostEvent
.L7:
	.loc 1 64 0
	ldr	r3, [r7, #4]
	ldrb	r3, [r3, #12]
	movs	r2, r3
	movs	r3, #2
	ands	r3, r2
	beq	.L10
	.loc 1 64 0 is_stmt 0 discriminator 1
	ldr	r3, [r7, #4]
	ldr	r2, [r7, #20]
	str	r2, [r3, #20]
	b	.L11
.L10:
.LBB6:
	.loc 1 67 0 is_stmt 1
	ldr	r3, [r7, #28]
	movs	r0, r3
	bl	DL_GetNextItem
	movs	r3, r0
	str	r3, [r7, #8]
	.loc 1 69 0
	ldr	r3, [r7, #4]
	ldr	r2, [r7, #4]
	ldrb	r2, [r2, #12]
	movs	r1, #1
	bics	r2, r1
	lsls	r2, r2, #24
	lsrs	r2, r2, #24
	strb	r2, [r3, #12]
	.loc 1 70 0
	ldr	r3, .L15
	ldr	r0, [r3]
	ldr	r3, .L15
	ldr	r3, [r3]
	ldr	r3, [r3, #8]
	ldr	r2, [r7, #28]
	movs	r1, r3
	bl	DL_MoveItemToIndex
	.loc 1 71 0
	ldr	r3, [r7, #8]
	str	r3, [r7, #28]
	.loc 1 72 0
	b	.L3
.L4:
.LBE6:
.LBE4:
.LBB7:
	.loc 1 80 0
	ldr	r3, [r7, #28]
	str	r3, [r7, #24]
	.loc 1 82 0
	ldr	r3, [r7, #24]
	movs	r0, r3
	bl	DL_GetNextItem
	movs	r3, r0
	str	r3, [r7, #28]
	.loc 1 83 0
	ldr	r3, .L15
	ldr	r3, [r3]
	ldr	r2, [r7, #24]
	movs	r1, r2
	movs	r0, r3
	bl	DL_DeleteItem
	.loc 1 84 0
	b	.L3
.L11:
.LBE7:
	.loc 1 86 0 discriminator 2
	ldr	r3, [r7, #28]
	movs	r0, r3
	bl	DL_GetNextItem
	movs	r3, r0
	str	r3, [r7, #28]
.L3:
.LBE3:
	.loc 1 34 0
	ldr	r3, [r7, #28]
	cmp	r3, #0
	beq	.LCB174
	b	.L12	@long jump
.LCB174:
.LBE2:
	.loc 1 89 0
	b	.L13
.L14:
.LBB9:
.LBB8:
	.loc 1 76 0
	nop
.L13:
.LBE8:
.LBE9:
	.loc 1 89 0
	nop
	mov	sp, r7
	add	sp, sp, #32
	@ sp needed
	pop	{r7, pc}
.L16:
	.align	2
.L15:
	.word	TimersList
	.cfi_endproc
.LFE1:
	.size	LRT_GPTHandler, .-LRT_GPTHandler
	.section	.text.LRT_Initialize,"ax",%progbits
	.align	2
	.global	LRT_Initialize
	.code	16
	.thumb_func
	.type	LRT_Initialize, %function
LRT_Initialize:
.LFB2:
	.loc 1 92 0
	.cfi_startproc
	@ args = 0, pretend = 0, frame = 0
	@ frame_needed = 1, uses_anonymous_args = 0
	push	{r7, lr}
	.cfi_def_cfa_offset 8
	.cfi_offset 7, -8
	.cfi_offset 14, -4
	sub	sp, sp, #8
	.cfi_def_cfa_offset 16
	add	r7, sp, #8
	.cfi_def_cfa 7, 8
	.loc 1 93 0
	bl	GPT_InitializeTimers
	.loc 1 95 0
	ldr	r3, .L22
	ldr	r3, [r3]
	cmp	r3, #0
	bne	.L18
	.loc 1 95 0 discriminator 1
	bl	DL_Create
	movs	r2, r0
	ldr	r3, .L22
	str	r2, [r3]
.L18:
	.loc 1 96 0
	ldr	r3, .L22
	ldr	r3, [r3]
	cmp	r3, #0
	beq	.L19
	.loc 1 98 0
	ldr	r2, .L22+4
	movs	r3, #1
	str	r3, [sp]
	movs	r3, r2
	movs	r2, #1
	movs	r1, #100
	movs	r0, #0
	bl	GPT_SetupTimer
	subs	r3, r0, #0
	beq	.L20
	.loc 1 99 0 discriminator 1
	movs	r0, #0
	bl	GPT_StartTimer
	subs	r3, r0, #0
	.loc 1 98 0 discriminator 1
	beq	.L20
	.loc 1 100 0
	movs	r3, #1
	b	.L21
.L20:
	.loc 1 101 0
	movs	r3, #0
	str	r3, [sp]
	movs	r3, #0
	movs	r2, #0
	movs	r1, #0
	movs	r0, #0
	bl	GPT_SetupTimer
.L19:
	.loc 1 103 0
	ldr	r3, .L22
	ldr	r3, [r3]
	movs	r1, #0
	movs	r0, r3
	bl	DL_Delete
	movs	r2, r0
	ldr	r3, .L22
	str	r2, [r3]
	.loc 1 105 0
	movs	r3, #0
.L21:
	.loc 1 106 0
	movs	r0, r3
	mov	sp, r7
	@ sp needed
	pop	{r7, pc}
.L23:
	.align	2
.L22:
	.word	TimersList
	.word	LRT_GPTHandler
	.cfi_endproc
.LFE2:
	.size	LRT_Initialize, .-LRT_Initialize
	.section	.text.LRT_Create,"ax",%progbits
	.align	2
	.global	LRT_Create
	.code	16
	.thumb_func
	.type	LRT_Create, %function
LRT_Create:
.LFB3:
	.loc 1 109 0
	.cfi_startproc
	@ args = 0, pretend = 0, frame = 24
	@ frame_needed = 1, uses_anonymous_args = 0
	push	{r7, lr}
	.cfi_def_cfa_offset 8
	.cfi_offset 7, -8
	.cfi_offset 14, -4
	sub	sp, sp, #24
	.cfi_def_cfa_offset 32
	add	r7, sp, #0
	.cfi_def_cfa_register 7
	str	r0, [r7, #12]
	str	r1, [r7, #8]
	adds	r3, r7, #7
	strb	r2, [r3]
	.loc 1 110 0
	movs	r3, #0
	str	r3, [r7, #20]
	.loc 1 112 0
	ldr	r3, [r7, #12]
	cmp	r3, #0
	beq	.L25
	.loc 1 112 0 is_stmt 0 discriminator 1
	ldr	r3, .L30
	ldr	r3, [r3]
	cmp	r3, #0
	beq	.L25
	.loc 1 114 0 is_stmt 1
	ldr	r3, [r7, #12]
	movs	r2, #250
	lsls	r2, r2, #2
	muls	r3, r2
	str	r3, [r7, #12]
	.loc 1 116 0
	ldr	r3, [r7, #12]
	ldr	r2, .L30+4
	cmp	r3, r2
	bhi	.L26
	.loc 1 116 0 is_stmt 0 discriminator 1
	ldr	r3, .L30+8
	str	r3, [r7, #12]
.L26:
	.loc 1 117 0 is_stmt 1
	movs	r0, #28
	bl	malloc
	movs	r3, r0
	str	r3, [r7, #20]
	.loc 1 118 0
	ldr	r3, [r7, #20]
	cmp	r3, #0
	beq	.L25
	.loc 1 120 0
	ldr	r3, [r7, #20]
	adds	r2, r7, #7
	ldrb	r2, [r2]
	strb	r2, [r3, #12]
	.loc 1 121 0
	ldr	r3, [r7, #20]
	ldr	r2, [r7, #12]
	str	r2, [r3, #16]
	.loc 1 122 0
	bl	USC_GetCurrentTicks
	movs	r2, r0
	ldr	r3, [r7, #20]
	str	r2, [r3, #20]
	.loc 1 123 0
	ldr	r3, [r7, #20]
	ldr	r2, [r7, #8]
	str	r2, [r3, #24]
	.loc 1 124 0
	ldr	r3, .L30
	ldr	r0, [r3]
	adds	r3, r7, #7
	ldrb	r3, [r3]
	movs	r2, #1
	ands	r3, r2
	bne	.L27
	.loc 1 124 0 is_stmt 0 discriminator 1
	ldr	r3, .L30
	ldr	r3, [r3]
	ldr	r3, [r3, #8]
	b	.L28
.L27:
	.loc 1 124 0 discriminator 2
	movs	r3, #0
.L28:
	.loc 1 125 0 is_stmt 1 discriminator 4
	ldr	r2, [r7, #20]
	.loc 1 124 0 discriminator 4
	movs	r1, r3
	bl	DL_AddItemAtIndexPtr
	subs	r3, r0, #0
	bne	.L25
	.loc 1 127 0
	ldr	r3, [r7, #20]
	movs	r0, r3
	bl	free
	.loc 1 128 0
	movs	r3, #0
	str	r3, [r7, #20]
.L25:
	.loc 1 132 0
	ldr	r3, [r7, #20]
	.loc 1 133 0
	movs	r0, r3
	mov	sp, r7
	add	sp, sp, #24
	@ sp needed
	pop	{r7, pc}
.L31:
	.align	2
.L30:
	.word	TimersList
	.word	9999
	.word	10000
	.cfi_endproc
.LFE3:
	.size	LRT_Create, .-LRT_Create
	.section	.text.LRT_Destroy,"ax",%progbits
	.align	2
	.global	LRT_Destroy
	.code	16
	.thumb_func
	.type	LRT_Destroy, %function
LRT_Destroy:
.LFB4:
	.loc 1 136 0
	.cfi_startproc
	@ args = 0, pretend = 0, frame = 16
	@ frame_needed = 1, uses_anonymous_args = 0
	push	{r7, lr}
	.cfi_def_cfa_offset 8
	.cfi_offset 7, -8
	.cfi_offset 14, -4
	sub	sp, sp, #16
	.cfi_def_cfa_offset 24
	add	r7, sp, #0
	.cfi_def_cfa_register 7
	str	r0, [r7, #4]
	.loc 1 137 0
	ldr	r3, [r7, #4]
	cmp	r3, #0
	beq	.L33
	.loc 1 137 0 discriminator 1
	ldr	r3, .L37
	ldr	r3, [r3]
	ldr	r2, [r7, #4]
	movs	r1, r2
	movs	r0, r3
	bl	DL_GetItemIndex
	movs	r3, r0
	adds	r3, r3, #1
	beq	.L33
.LBB10:
	.loc 1 139 0
	bl	__disable_interrupts
	movs	r3, r0
	str	r3, [r7, #12]
	.loc 1 141 0
	ldr	r3, [r7, #4]
	adds	r3, r3, #12
	movs	r2, #16
	movs	r1, #0
	movs	r0, r3
	bl	__secure_memset
	.loc 1 143 0
	bl	__is_in_isr_mode
	subs	r3, r0, #0
	beq	.L34
	.loc 1 145 0
	ldr	r3, [r7, #4]
	movs	r2, #0
	str	r2, [r3, #8]
	.loc 1 146 0
	ldr	r3, .L37
	ldr	r3, [r3]
	ldr	r2, [r7, #4]
	movs	r1, #0
	movs	r0, r3
	bl	DL_MoveItemToIndex
	b	.L35
.L34:
	.loc 1 148 0
	ldr	r3, .L37
	ldr	r3, [r3]
	ldr	r2, [r7, #4]
	movs	r1, r2
	movs	r0, r3
	bl	DL_DeleteItem
.L35:
	.loc 1 150 0
	ldr	r3, [r7, #12]
	movs	r0, r3
	bl	__restore_interrupts
	.loc 1 151 0
	movs	r3, #1
	b	.L36
.L33:
.LBE10:
	.loc 1 153 0
	movs	r3, #0
.L36:
	.loc 1 154 0
	movs	r0, r3
	mov	sp, r7
	add	sp, sp, #16
	@ sp needed
	pop	{r7, pc}
.L38:
	.align	2
.L37:
	.word	TimersList
	.cfi_endproc
.LFE4:
	.size	LRT_Destroy, .-LRT_Destroy
	.section	.text.LRT_Start,"ax",%progbits
	.align	2
	.global	LRT_Start
	.code	16
	.thumb_func
	.type	LRT_Start, %function
LRT_Start:
.LFB5:
	.loc 1 157 0
	.cfi_startproc
	@ args = 0, pretend = 0, frame = 16
	@ frame_needed = 1, uses_anonymous_args = 0
	push	{r7, lr}
	.cfi_def_cfa_offset 8
	.cfi_offset 7, -8
	.cfi_offset 14, -4
	sub	sp, sp, #16
	.cfi_def_cfa_offset 24
	add	r7, sp, #0
	.cfi_def_cfa_register 7
	str	r0, [r7, #4]
	.loc 1 158 0
	ldr	r3, [r7, #4]
	cmp	r3, #0
	beq	.L40
.LBB11:
	.loc 1 160 0
	bl	__disable_interrupts
	movs	r3, r0
	str	r3, [r7, #12]
	.loc 1 162 0
	ldr	r3, [r7, #4]
	ldrb	r3, [r3, #12]
	movs	r2, r3
	movs	r3, #1
	ands	r3, r2
	beq	.L41
	.loc 1 163 0
	ldr	r3, [r7, #4]
	ldrb	r3, [r3, #12]
	movs	r2, #1
	bics	r3, r2
	lsls	r3, r3, #24
	lsrs	r2, r3, #24
	ldr	r3, [r7, #4]
	strb	r2, [r3, #12]
.L41:
	.loc 1 165 0
	bl	USC_GetCurrentTicks
	movs	r2, r0
	ldr	r3, [r7, #4]
	str	r2, [r3, #20]
	.loc 1 166 0
	ldr	r3, [r7, #4]
	ldrb	r3, [r3, #12]
	movs	r2, #1
	orrs	r3, r2
	lsls	r3, r3, #24
	lsrs	r2, r3, #24
	ldr	r3, [r7, #4]
	strb	r2, [r3, #12]
	.loc 1 167 0
	ldr	r3, .L43
	ldr	r3, [r3]
	ldr	r2, [r7, #4]
	movs	r1, #0
	movs	r0, r3
	bl	DL_MoveItemToIndex
	.loc 1 168 0
	ldr	r3, [r7, #12]
	movs	r0, r3
	bl	__restore_interrupts
	.loc 1 169 0
	movs	r3, #1
	b	.L42
.L40:
.LBE11:
	.loc 1 171 0
	movs	r3, #0
.L42:
	.loc 1 172 0
	movs	r0, r3
	mov	sp, r7
	add	sp, sp, #16
	@ sp needed
	pop	{r7, pc}
.L44:
	.align	2
.L43:
	.word	TimersList
	.cfi_endproc
.LFE5:
	.size	LRT_Start, .-LRT_Start
	.section	.text.LRT_Stop,"ax",%progbits
	.align	2
	.global	LRT_Stop
	.code	16
	.thumb_func
	.type	LRT_Stop, %function
LRT_Stop:
.LFB6:
	.loc 1 175 0
	.cfi_startproc
	@ args = 0, pretend = 0, frame = 16
	@ frame_needed = 1, uses_anonymous_args = 0
	push	{r7, lr}
	.cfi_def_cfa_offset 8
	.cfi_offset 7, -8
	.cfi_offset 14, -4
	sub	sp, sp, #16
	.cfi_def_cfa_offset 24
	add	r7, sp, #0
	.cfi_def_cfa_register 7
	str	r0, [r7, #4]
	.loc 1 176 0
	ldr	r3, [r7, #4]
	cmp	r3, #0
	beq	.L46
	.loc 1 178 0
	ldr	r3, [r7, #4]
	ldrb	r3, [r3, #12]
	movs	r2, r3
	movs	r3, #1
	ands	r3, r2
	beq	.L47
.LBB12:
	.loc 1 180 0
	bl	__disable_interrupts
	movs	r3, r0
	str	r3, [r7, #12]
	.loc 1 182 0
	ldr	r3, [r7, #4]
	ldrb	r3, [r3, #12]
	movs	r2, #1
	bics	r3, r2
	lsls	r3, r3, #24
	lsrs	r2, r3, #24
	ldr	r3, [r7, #4]
	strb	r2, [r3, #12]
	.loc 1 183 0
	ldr	r3, .L49
	ldr	r0, [r3]
	ldr	r3, .L49
	ldr	r3, [r3]
	ldr	r3, [r3, #8]
	ldr	r2, [r7, #4]
	movs	r1, r3
	bl	DL_MoveItemToIndex
	.loc 1 184 0
	ldr	r3, [r7, #12]
	movs	r0, r3
	bl	__restore_interrupts
.L47:
.LBE12:
	.loc 1 186 0
	movs	r3, #1
	b	.L48
.L46:
	.loc 1 188 0
	movs	r3, #0
.L48:
	.loc 1 189 0
	movs	r0, r3
	mov	sp, r7
	add	sp, sp, #16
	@ sp needed
	pop	{r7, pc}
.L50:
	.align	2
.L49:
	.word	TimersList
	.cfi_endproc
.LFE6:
	.size	LRT_Stop, .-LRT_Stop
	.section	.text.LRT_SetMode,"ax",%progbits
	.align	2
	.global	LRT_SetMode
	.code	16
	.thumb_func
	.type	LRT_SetMode, %function
LRT_SetMode:
.LFB7:
	.loc 1 192 0
	.cfi_startproc
	@ args = 0, pretend = 0, frame = 16
	@ frame_needed = 1, uses_anonymous_args = 0
	push	{r7, lr}
	.cfi_def_cfa_offset 8
	.cfi_offset 7, -8
	.cfi_offset 14, -4
	sub	sp, sp, #16
	.cfi_def_cfa_offset 24
	add	r7, sp, #0
	.cfi_def_cfa_register 7
	str	r0, [r7, #4]
	movs	r2, r1
	adds	r3, r7, #3
	strb	r2, [r3]
	.loc 1 193 0
	ldr	r3, [r7, #4]
	cmp	r3, #0
	beq	.L52
.LBB13:
	.loc 1 195 0
	bl	__disable_interrupts
	movs	r3, r0
	str	r3, [r7, #12]
	.loc 1 197 0
	ldr	r3, [r7, #4]
	ldrb	r2, [r3, #12]
	adds	r3, r7, #3
	ldrb	r3, [r3]
	eors	r3, r2
	lsls	r3, r3, #24
	lsrs	r3, r3, #24
	movs	r2, r3
	movs	r3, #1
	ands	r3, r2
	beq	.L53
	.loc 1 198 0
	ldr	r3, .L58
	ldr	r0, [r3]
	adds	r3, r7, #3
	ldrb	r3, [r3]
	movs	r2, #1
	ands	r3, r2
	bne	.L54
	.loc 1 198 0 is_stmt 0 discriminator 1
	ldr	r3, .L58
	ldr	r3, [r3]
	ldr	r3, [r3, #8]
	b	.L55
.L54:
	.loc 1 198 0 discriminator 2
	movs	r3, #0
.L55:
	.loc 1 199 0 is_stmt 1 discriminator 4
	ldr	r2, [r7, #4]
	.loc 1 198 0 discriminator 4
	movs	r1, r3
	bl	DL_MoveItemToIndex
.L53:
	.loc 1 200 0
	ldr	r3, [r7, #4]
	adds	r2, r7, #3
	ldrb	r2, [r2]
	strb	r2, [r3, #12]
	.loc 1 201 0
	adds	r3, r7, #3
	ldrb	r3, [r3]
	movs	r2, #1
	ands	r3, r2
	beq	.L56
	.loc 1 201 0 is_stmt 0 discriminator 1
	bl	USC_GetCurrentTicks
	movs	r2, r0
	ldr	r3, [r7, #4]
	str	r2, [r3, #20]
.L56:
	.loc 1 202 0 is_stmt 1
	ldr	r3, [r7, #12]
	movs	r0, r3
	bl	__restore_interrupts
	.loc 1 204 0
	movs	r3, #1
	b	.L57
.L52:
.LBE13:
	.loc 1 206 0
	movs	r3, #0
.L57:
	.loc 1 207 0
	movs	r0, r3
	mov	sp, r7
	add	sp, sp, #16
	@ sp needed
	pop	{r7, pc}
.L59:
	.align	2
.L58:
	.word	TimersList
	.cfi_endproc
.LFE7:
	.size	LRT_SetMode, .-LRT_SetMode
	.section	.text.LRT_SetInterval,"ax",%progbits
	.align	2
	.global	LRT_SetInterval
	.code	16
	.thumb_func
	.type	LRT_SetInterval, %function
LRT_SetInterval:
.LFB8:
	.loc 1 210 0
	.cfi_startproc
	@ args = 0, pretend = 0, frame = 16
	@ frame_needed = 1, uses_anonymous_args = 0
	push	{r7, lr}
	.cfi_def_cfa_offset 8
	.cfi_offset 7, -8
	.cfi_offset 14, -4
	sub	sp, sp, #16
	.cfi_def_cfa_offset 24
	add	r7, sp, #0
	.cfi_def_cfa_register 7
	str	r0, [r7, #4]
	str	r1, [r7]
	.loc 1 211 0
	ldr	r3, [r7, #4]
	cmp	r3, #0
	beq	.L61
.LBB14:
	.loc 1 213 0
	bl	__disable_interrupts
	movs	r3, r0
	str	r3, [r7, #12]
	.loc 1 215 0
	ldr	r3, [r7]
	movs	r2, #250
	lsls	r2, r2, #2
	muls	r2, r3
	ldr	r3, [r7, #4]
	str	r2, [r3, #16]
	.loc 1 216 0
	ldr	r3, [r7, #4]
	ldrb	r3, [r3, #12]
	movs	r2, r3
	movs	r3, #1
	ands	r3, r2
	beq	.L62
	.loc 1 216 0 is_stmt 0 discriminator 1
	bl	USC_GetCurrentTicks
	movs	r2, r0
	ldr	r3, [r7, #4]
	str	r2, [r3, #20]
.L62:
	.loc 1 217 0 is_stmt 1
	ldr	r3, [r7, #12]
	movs	r0, r3
	bl	__restore_interrupts
	.loc 1 219 0
	movs	r3, #1
	b	.L63
.L61:
.LBE14:
	.loc 1 221 0
	movs	r3, #0
.L63:
	.loc 1 222 0
	movs	r0, r3
	mov	sp, r7
	add	sp, sp, #16
	@ sp needed
	pop	{r7, pc}
	.cfi_endproc
.LFE8:
	.size	LRT_SetInterval, .-LRT_SetInterval
	.text
.Letext0:
	.file 2 "d:\\1.11\\share\\em_armgcc\\arm-none-eabi\\include\\machine\\_default_types.h"
	.file 3 "d:\\1.11\\share\\em_armgcc\\arm-none-eabi\\include\\sys\\_stdint.h"
	.file 4 ".\\Source/systypes.h"
	.file 5 ".\\Source\\System/dlist.h"
	.file 6 ".\\Source\\Lib\\MT6261/drivers\\gpt.h"
	.file 7 ".\\Source\\Lib\\MT6261/drivers\\lcdif.h"
	.file 8 ".\\Source\\Lib\\MT6261/drivers\\usb.h"
	.file 9 ".\\Source\\System/evmngr.h"
	.file 10 ".\\Source\\System/lrtimer.h"