	.syntax unified
	.cpu arm9e
	.fpu softvfp
	.eabi_attribute 20, 1
	.eabi_attribute 21, 1
	.eabi_attribute 23, 3
	.eabi_attribute 24, 1
	.eabi_attribute 25, 1
	.eabi_attribute 26, 1
	.eabi_attribute 30, 6
	.eabi_attribute 34, 0
	.eabi_attribute 18, 4
	.thumb
	.syntax unified
	.file	"memory.c"
	.text
.Ltext0:
	.cfi_sections	.debug_frame
	.section	.noinit,"aw",%progbits
	.align	3
	.type	MemoryPool, %object
	.size	MemoryPool, 3145728
MemoryPool:
	.space	3145728
	.section	.text.InitializeMemoryPool,"ax",%progbits
	.align	2
	.global	InitializeMemoryPool
	.code	16
	.thumb_func
	.type	InitializeMemoryPool, %function
InitializeMemoryPool:
.LFB1:
	.file 1 "Source\\System\\memory.c"
	.loc 1 31 0
	.cfi_startproc
	@ args = 0, pretend = 0, frame = 8
	@ frame_needed = 1, uses_anonymous_args = 0
	push	{r7, lr}
	.cfi_def_cfa_offset 8
	.cfi_offset 7, -8
	.cfi_offset 14, -4
	sub	sp, sp, #8
	.cfi_def_cfa_offset 16
	add	r7, sp, #0
	.cfi_def_cfa_register 7
	.loc 1 32 0
	bl	__disable_interrupts
	movs	r3, r0
	str	r3, [r7, #4]
	.loc 1 35 0
	ldr	r3, .L3
	movs	r0, r3
	bl	destroy_memory_pool
	.loc 1 37 0
	ldr	r2, .L3
	movs	r3, #192
	lsls	r3, r3, #14
	movs	r1, r2
	movs	r0, r3
	bl	init_memory_pool
	movs	r3, r0
	str	r3, [r7]
	.loc 1 38 0
	ldr	r3, [r7, #4]
	movs	r0, r3
	bl	__restore_interrupts
	.loc 1 40 0
	ldr	r3, [r7]
	.loc 1 41 0
	movs	r0, r3
	mov	sp, r7
	add	sp, sp, #8
	@ sp needed
	pop	{r7, pc}
.L4:
	.align	2
.L3:
	.word	MemoryPool
	.cfi_endproc
.LFE1:
	.size	InitializeMemoryPool, .-InitializeMemoryPool
	.section	.text.malloc,"ax",%progbits
	.align	2
	.global	malloc
	.code	16
	.thumb_func
	.type	malloc, %function
malloc:
.LFB2:
	.loc 1 44 0
	.cfi_startproc
	@ args = 0, pretend = 0, frame = 16
	@ frame_needed = 1, uses_anonymous_args = 0
	push	{r7, lr}
	.cfi_def_cfa_offset 8
	.cfi_offset 7, -8
	.cfi_offset 14, -4
	sub	sp, sp, #16
	.cfi_def_cfa_offset 24
	add	r7, sp, #0
	.cfi_def_cfa_register 7
	str	r0, [r7, #4]
	.loc 1 45 0
	bl	__disable_interrupts
	movs	r3, r0
	str	r3, [r7, #12]
	.loc 1 46 0
	ldr	r3, [r7, #4]
	movs	r0, r3
	bl	tlsf_malloc
	movs	r3, r0
	str	r3, [r7, #8]
	.loc 1 48 0
	ldr	r3, [r7, #12]
	movs	r0, r3
	bl	__restore_interrupts
	.loc 1 50 0
	ldr	r3, [r7, #8]
	.loc 1 51 0
	movs	r0, r3
	mov	sp, r7
	add	sp, sp, #16
	@ sp needed
	pop	{r7, pc}
	.cfi_endproc
.LFE2:
	.size	malloc, .-malloc
	.section	.text.free,"ax",%progbits
	.align	2
	.global	free
	.code	16
	.thumb_func
	.type	free, %function
free:
.LFB3:
	.loc 1 54 0
	.cfi_startproc
	@ args = 0, pretend = 0, frame = 16
	@ frame_needed = 1, uses_anonymous_args = 0
	push	{r7, lr}
	.cfi_def_cfa_offset 8
	.cfi_offset 7, -8
	.cfi_offset 14, -4
	sub	sp, sp, #16
	.cfi_def_cfa_offset 24
	add	r7, sp, #0
	.cfi_def_cfa_register 7
	str	r0, [r7, #4]
	.loc 1 55 0
	bl	__disable_interrupts
	movs	r3, r0
	str	r3, [r7, #12]
	.loc 1 57 0
	ldr	r3, [r7, #4]
	movs	r0, r3
	bl	tlsf_free
	.loc 1 59 0
	ldr	r3, [r7, #12]
	movs	r0, r3
	bl	__restore_interrupts
	.loc 1 60 0
	nop
	mov	sp, r7
	add	sp, sp, #16
	@ sp needed
	pop	{r7, pc}
	.cfi_endproc
.LFE3:
	.size	free, .-free
	.section	.text.realloc,"ax",%progbits
	.align	2
	.global	realloc
	.code	16
	.thumb_func
	.type	realloc, %function
realloc:
.LFB4:
	.loc 1 63 0
	.cfi_startproc
	@ args = 0, pretend = 0, frame = 16
	@ frame_needed = 1, uses_anonymous_args = 0
	push	{r7, lr}
	.cfi_def_cfa_offset 8
	.cfi_offset 7, -8
	.cfi_offset 14, -4
	sub	sp, sp, #16
	.cfi_def_cfa_offset 24
	add	r7, sp, #0
	.cfi_def_cfa_register 7
	str	r0, [r7, #4]
	str	r1, [r7]
	.loc 1 64 0
	bl	__disable_interrupts
	movs	r3, r0
	str	r3, [r7, #12]
	.loc 1 65 0
	ldr	r2, [r7]
	ldr	r3, [r7, #4]
	movs	r1, r2
	movs	r0, r3
	bl	tlsf_realloc
	movs	r3, r0
	str	r3, [r7, #8]
	.loc 1 67 0
	ldr	r3, [r7, #12]
	movs	r0, r3
	bl	__restore_interrupts
	.loc 1 69 0
	ldr	r3, [r7, #8]
	.loc 1 70 0
	movs	r0, r3
	mov	sp, r7
	add	sp, sp, #16
	@ sp needed
	pop	{r7, pc}
	.cfi_endproc
.LFE4:
	.size	realloc, .-realloc
	.section	.text.calloc,"ax",%progbits
	.align	2
	.global	calloc
	.code	16
	.thumb_func
	.type	calloc, %function
calloc:
.LFB5:
	.loc 1 73 0
	.cfi_startproc
	@ args = 0, pretend = 0, frame = 16
	@ frame_needed = 1, uses_anonymous_args = 0
	push	{r7, lr}
	.cfi_def_cfa_offset 8
	.cfi_offset 7, -8
	.cfi_offset 14, -4
	sub	sp, sp, #16
	.cfi_def_cfa_offset 24
	add	r7, sp, #0
	.cfi_def_cfa_register 7
	str	r0, [r7, #4]
	str	r1, [r7]
	.loc 1 74 0
	bl	__disable_interrupts
	movs	r3, r0
	str	r3, [r7, #12]
	.loc 1 75 0
	ldr	r2, [r7]
	ldr	r3, [r7, #4]
	movs	r1, r2
	movs	r0, r3
	bl	tlsf_calloc
	movs	r3, r0
	str	r3, [r7, #8]
	.loc 1 77 0
	ldr	r3, [r7, #12]
	movs	r0, r3
	bl	__restore_interrupts
	.loc 1 79 0
	ldr	r3, [r7, #8]
	.loc 1 80 0
	movs	r0, r3
	mov	sp, r7
	add	sp, sp, #16
	@ sp needed
	pop	{r7, pc}
	.cfi_endproc
.LFE5:
	.size	calloc, .-calloc
	.section	.text.GetSysMemoryAddress,"ax",%progbits
	.align	2
	.global	GetSysMemoryAddress
	.code	16
	.thumb_func
	.type	GetSysMemoryAddress, %function
GetSysMemoryAddress:
.LFB6:
	.loc 1 83 0
	.cfi_startproc
	@ args = 0, pretend = 0, frame = 0
	@ frame_needed = 1, uses_anonymous_args = 0
	push	{r7, lr}
	.cfi_def_cfa_offset 8
	.cfi_offset 7, -8
	.cfi_offset 14, -4
	add	r7, sp, #0
	.cfi_def_cfa_register 7
	.loc 1 84 0
	ldr	r3, .L14
	.loc 1 85 0
	movs	r0, r3
	mov	sp, r7
	@ sp needed
	pop	{r7, pc}
.L15:
	.align	2
.L14:
	.word	MemoryPool
	.cfi_endproc
.LFE6:
	.size	GetSysMemoryAddress, .-GetSysMemoryAddress
	.section	.text.IsDynamicMemory,"ax",%progbits
	.align	2
	.global	IsDynamicMemory
	.code	16
	.thumb_func
	.type	IsDynamicMemory, %function
IsDynamicMemory:
.LFB7:
	.loc 1 88 0
	.cfi_startproc
	@ args = 0, pretend = 0, frame = 8
	@ frame_needed = 1, uses_anonymous_args = 0
	push	{r7, lr}
	.cfi_def_cfa_offset 8
	.cfi_offset 7, -8
	.cfi_offset 14, -4
	sub	sp, sp, #8
	.cfi_def_cfa_offset 16
	add	r7, sp, #0
	.cfi_def_cfa_register 7
	str	r0, [r7, #4]
	.loc 1 89 0
	ldr	r2, [r7, #4]
	ldr	r3, .L20
	.loc 1 90 0
	cmp	r2, r3
	bcc	.L17
	.loc 1 90 0 is_stmt 0 discriminator 1
	ldr	r2, [r7, #4]
	ldr	r3, .L20+4
	cmp	r2, r3
	bhi	.L17
	.loc 1 90 0 discriminator 3
	movs	r3, #1
	b	.L18
.L17:
	.loc 1 90 0 discriminator 4
	movs	r3, #0
.L18:
	.loc 1 89 0 is_stmt 1
	lsls	r3, r3, #24
	lsrs	r3, r3, #24
	.loc 1 91 0
	movs	r0, r3
	mov	sp, r7
	add	sp, sp, #8
	@ sp needed
	pop	{r7, pc}
.L21:
	.align	2
.L20:
	.word	MemoryPool
	.word	MemoryPool+3145727
	.cfi_endproc
.LFE7:
	.size	IsDynamicMemory, .-IsDynamicMemory
	.section	.text.IsStackMemory,"ax",%progbits
	.align	2
	.global	IsStackMemory
	.code	16
	.thumb_func
	.type	IsStackMemory, %function
IsStackMemory:
.LFB8:
	.loc 1 94 0
	.cfi_startproc
	@ args = 0, pretend = 0, frame = 8
	@ frame_needed = 1, uses_anonymous_args = 0
	push	{r7, lr}
	.cfi_def_cfa_offset 8
	.cfi_offset 7, -8
	.cfi_offset 14, -4
	sub	sp, sp, #8
	.cfi_def_cfa_offset 16
	add	r7, sp, #0
	.cfi_def_cfa_register 7
	str	r0, [r7, #4]
	.loc 1 95 0
	ldr	r2, [r7, #4]
	ldr	r3, .L28
	.loc 1 98 0
	cmp	r2, r3
	bcc	.L23
	.loc 1 96 0
	ldr	r2, [r7, #4]
	ldr	r3, .L28+4
	.loc 1 95 0
	cmp	r2, r3
	bcc	.L24
.L23:
	.loc 1 97 0 discriminator 1
	ldr	r2, [r7, #4]
	ldr	r3, .L28+8
	.loc 1 98 0 discriminator 1
	cmp	r2, r3
	bcc	.L25
	.loc 1 98 0 is_stmt 0 discriminator 2
	ldr	r2, [r7, #4]
	ldr	r3, .L28+12
	.loc 1 97 0 is_stmt 1 discriminator 2
	cmp	r2, r3
	bcs	.L25
.L24:
	.loc 1 98 0
	movs	r3, #1
	b	.L26
.L25:
	.loc 1 98 0 is_stmt 0 discriminator 3
	movs	r3, #0
.L26:
	.loc 1 95 0 is_stmt 1
	lsls	r3, r3, #24
	lsrs	r3, r3, #24
	.loc 1 99 0
	movs	r0, r3
	mov	sp, r7
	add	sp, sp, #8
	@ sp needed
	pop	{r7, pc}
.L29:
	.align	2
.L28:
	.word	__stack_limit
	.word	__stack_top
	.word	__int_stack_limit
	.word	__int_stack_top
	.cfi_endproc
.LFE8:
	.size	IsStackMemory, .-IsStackMemory
	.section	.text.GetTotalUsedMemory,"ax",%progbits
	.align	2
	.global	GetTotalUsedMemory
	.code	16
	.thumb_func
	.type	GetTotalUsedMemory, %function
GetTotalUsedMemory:
.LFB9:
	.loc 1 102 0
	.cfi_startproc
	@ args = 0, pretend = 0, frame = 0
	@ frame_needed = 1, uses_anonymous_args = 0
	push	{r7, lr}
	.cfi_def_cfa_offset 8
	.cfi_offset 7, -8
	.cfi_offset 14, -4
	add	r7, sp, #0
	.cfi_def_cfa_register 7
	.loc 1 103 0
	ldr	r3, .L32
	movs	r0, r3
	bl	get_used_size
	movs	r3, r0
	.loc 1 104 0
	movs	r0, r3
	mov	sp, r7
	@ sp needed
	pop	{r7, pc}
.L33:
	.align	2
.L32:
	.word	MemoryPool
	.cfi_endproc
.LFE9:
	.size	GetTotalUsedMemory, .-GetTotalUsedMemory
	.text
.Letext0:
	.file 2 "d:\\1.11\\share\\em_armgcc\\arm-none-eabi\\include\\machine\\_default_types.h"
	.file 3 "d:\\1.11\\share\\em_armgcc\\arm-none-eabi\\include\\sys\\_stdint.h"
	.file 4 "d:\\1.11\\share\\em_armgcc\\lib\\gcc\\arm-none-eabi\\5.4.1\\include\\stddef.h"
	.file 5 ".\\Source/systypes.h"
	.file 6 ".\\Source\\Lib\\MT6261/drivers\\lcdif.h"
	.file 7 ".\\Source\\Lib\\MT6261/drivers\\usb.h"
	.file 8 "d:\\1.11\\share\\em_armgcc\\arm-none-eabi\\include\\stdlib.h"