	.syntax unified
	.cpu arm9e
	.fpu softvfp
	.eabi_attribute 20, 1
	.eabi_attribute 21, 1
	.eabi_attribute 23, 3
	.eabi_attribute 24, 1
	.eabi_attribute 25, 1
	.eabi_attribute 26, 1
	.eabi_attribute 30, 6
	.eabi_attribute 34, 0
	.eabi_attribute 18, 4
	.thumb
	.syntax unified
	.file	"tlsf.c"
	.text
.Ltext0:
	.cfi_sections	.debug_frame
	.section	.rodata.table,"a",%progbits
	.align	2
	.type	table, %object
	.size	table, 1024
table:
	.word	-1
	.word	0
	.word	1
	.word	1
	.word	2
	.word	2
	.word	2
	.word	2
	.word	3
	.word	3
	.word	3
	.word	3
	.word	3
	.word	3
	.word	3
	.word	3
	.word	4
	.word	4
	.word	4
	.word	4
	.word	4
	.word	4
	.word	4
	.word	4
	.word	4
	.word	4
	.word	4
	.word	4
	.word	4
	.word	4
	.word	4
	.word	4
	.word	5
	.word	5
	.word	5
	.word	5
	.word	5
	.word	5
	.word	5
	.word	5
	.word	5
	.word	5
	.word	5
	.word	5
	.word	5
	.word	5
	.word	5
	.word	5
	.word	5
	.word	5
	.word	5
	.word	5
	.word	5
	.word	5
	.word	5
	.word	5
	.word	5
	.word	5
	.word	5
	.word	5
	.word	5
	.word	5
	.word	5
	.word	5
	.word	6
	.word	6
	.word	6
	.word	6
	.word	6
	.word	6
	.word	6
	.word	6
	.word	6
	.word	6
	.word	6
	.word	6
	.word	6
	.word	6
	.word	6
	.word	6
	.word	6
	.word	6
	.word	6
	.word	6
	.word	6
	.word	6
	.word	6
	.word	6
	.word	6
	.word	6
	.word	6
	.word	6
	.word	6
	.word	6
	.word	6
	.word	6
	.word	6
	.word	6
	.word	6
	.word	6
	.word	6
	.word	6
	.word	6
	.word	6
	.word	6
	.word	6
	.word	6
	.word	6
	.word	6
	.word	6
	.word	6
	.word	6
	.word	6
	.word	6
	.word	6
	.word	6
	.word	6
	.word	6
	.word	6
	.word	6
	.word	6
	.word	6
	.word	6
	.word	6
	.word	6
	.word	6
	.word	6
	.word	6
	.word	7
	.word	7
	.word	7
	.word	7
	.word	7
	.word	7
	.word	7
	.word	7
	.word	7
	.word	7
	.word	7
	.word	7
	.word	7
	.word	7
	.word	7
	.word	7
	.word	7
	.word	7
	.word	7
	.word	7
	.word	7
	.word	7
	.word	7
	.word	7
	.word	7
	.word	7
	.word	7
	.word	7
	.word	7
	.word	7
	.word	7
	.word	7
	.word	7
	.word	7
	.word	7
	.word	7
	.word	7
	.word	7
	.word	7
	.word	7
	.word	7
	.word	7
	.word	7
	.word	7
	.word	7
	.word	7
	.word	7
	.word	7
	.word	7
	.word	7
	.word	7
	.word	7
	.word	7
	.word	7
	.word	7
	.word	7
	.word	7
	.word	7
	.word	7
	.word	7
	.word	7
	.word	7
	.word	7
	.word	7
	.word	7
	.word	7
	.word	7
	.word	7
	.word	7
	.word	7
	.word	7
	.word	7
	.word	7
	.word	7
	.word	7
	.word	7
	.word	7
	.word	7
	.word	7
	.word	7
	.word	7
	.word	7
	.word	7
	.word	7
	.word	7
	.word	7
	.word	7
	.word	7
	.word	7
	.word	7
	.word	7
	.word	7
	.word	7
	.word	7
	.word	7
	.word	7
	.word	7
	.word	7
	.word	7
	.word	7
	.word	7
	.word	7
	.word	7
	.word	7
	.word	7
	.word	7
	.word	7
	.word	7
	.word	7
	.word	7
	.word	7
	.word	7
	.word	7
	.word	7
	.word	7
	.word	7
	.word	7
	.word	7
	.word	7
	.word	7
	.word	7
	.word	7
	.word	7
	.word	7
	.word	7
	.word	7
	.word	7
	.word	7
	.section	.text.ls_bit,"ax",%progbits
	.align	2
	.code	16
	.thumb_func
	.type	ls_bit, %function
ls_bit:
.LFB0:
	.file 1 "Source\\System\\tlsf.c"
	.loc 1 291 0
	.cfi_startproc
	@ args = 0, pretend = 0, frame = 16
	@ frame_needed = 1, uses_anonymous_args = 0
	push	{r7, lr}
	.cfi_def_cfa_offset 8
	.cfi_offset 7, -8
	.cfi_offset 14, -4
	sub	sp, sp, #16
	.cfi_def_cfa_offset 24
	add	r7, sp, #0
	.cfi_def_cfa_register 7
	str	r0, [r7, #4]
	.loc 1 293 0
	ldr	r3, [r7, #4]
	rsbs	r3, r3, #0
	ldr	r2, [r7, #4]
	ands	r3, r2
	str	r3, [r7, #12]
	.loc 1 295 0
	ldr	r3, [r7, #12]
	ldr	r2, .L9
	cmp	r3, r2
	bhi	.L2
	.loc 1 295 0 is_stmt 0 discriminator 1
	ldr	r3, [r7, #12]
	cmp	r3, #255
	bhi	.L3
	.loc 1 295 0 discriminator 3
	movs	r3, #0
	b	.L5
.L3:
	.loc 1 295 0 discriminator 4
	movs	r3, #8
	b	.L5
.L2:
	.loc 1 295 0 discriminator 2
	ldr	r3, [r7, #12]
	ldr	r2, .L9+4
	cmp	r3, r2
	bhi	.L6
	.loc 1 295 0 discriminator 8
	movs	r3, #16
	b	.L5
.L6:
	.loc 1 295 0 discriminator 9
	movs	r3, #24
.L5:
	.loc 1 295 0 discriminator 12
	str	r3, [r7, #8]
	.loc 1 296 0 is_stmt 1 discriminator 12
	ldr	r2, [r7, #12]
	ldr	r3, [r7, #8]
	lsrs	r2, r2, r3
	ldr	r3, .L9+8
	lsls	r2, r2, #2
	ldr	r3, [r2, r3]
	movs	r2, r3
	ldr	r3, [r7, #8]
	adds	r3, r2, r3
	.loc 1 297 0 discriminator 12
	movs	r0, r3
	mov	sp, r7
	add	sp, sp, #16
	@ sp needed
	pop	{r7, pc}
.L10:
	.align	2
.L9:
	.word	65535
	.word	16777215
	.word	table
	.cfi_endproc
.LFE0:
	.size	ls_bit, .-ls_bit
	.section	.text.ms_bit,"ax",%progbits
	.align	2
	.code	16
	.thumb_func
	.type	ms_bit, %function
ms_bit:
.LFB1:
	.loc 1 300 0
	.cfi_startproc
	@ args = 0, pretend = 0, frame = 16
	@ frame_needed = 1, uses_anonymous_args = 0
	push	{r7, lr}
	.cfi_def_cfa_offset 8
	.cfi_offset 7, -8
	.cfi_offset 14, -4
	sub	sp, sp, #16
	.cfi_def_cfa_offset 24
	add	r7, sp, #0
	.cfi_def_cfa_register 7
	str	r0, [r7, #4]
	.loc 1 302 0
	ldr	r3, [r7, #4]
	str	r3, [r7, #12]
	.loc 1 304 0
	ldr	r3, [r7, #12]
	ldr	r2, .L19
	cmp	r3, r2
	bhi	.L12
	.loc 1 304 0 is_stmt 0 discriminator 1
	ldr	r3, [r7, #12]
	cmp	r3, #255
	bhi	.L13
	.loc 1 304 0 discriminator 3
	movs	r3, #0
	b	.L15
.L13:
	.loc 1 304 0 discriminator 4
	movs	r3, #8
	b	.L15
.L12:
	.loc 1 304 0 discriminator 2
	ldr	r3, [r7, #12]
	ldr	r2, .L19+4
	cmp	r3, r2
	bhi	.L16
	.loc 1 304 0 discriminator 8
	movs	r3, #16
	b	.L15
.L16:
	.loc 1 304 0 discriminator 9
	movs	r3, #24
.L15:
	.loc 1 304 0 discriminator 12
	str	r3, [r7, #8]
	.loc 1 305 0 is_stmt 1 discriminator 12
	ldr	r2, [r7, #12]
	ldr	r3, [r7, #8]
	lsrs	r2, r2, r3
	ldr	r3, .L19+8
	lsls	r2, r2, #2
	ldr	r3, [r2, r3]
	movs	r2, r3
	ldr	r3, [r7, #8]
	adds	r3, r2, r3
	.loc 1 306 0 discriminator 12
	movs	r0, r3
	mov	sp, r7
	add	sp, sp, #16
	@ sp needed
	pop	{r7, pc}
.L20:
	.align	2
.L19:
	.word	65535
	.word	16777215
	.word	table
	.cfi_endproc
.LFE1:
	.size	ms_bit, .-ms_bit
	.section	.text.set_bit,"ax",%progbits
	.align	2
	.code	16
	.thumb_func
	.type	set_bit, %function
set_bit:
.LFB2:
	.loc 1 309 0
	.cfi_startproc
	@ args = 0, pretend = 0, frame = 8
	@ frame_needed = 1, uses_anonymous_args = 0
	push	{r7, lr}
	.cfi_def_cfa_offset 8
	.cfi_offset 7, -8
	.cfi_offset 14, -4
	sub	sp, sp, #8
	.cfi_def_cfa_offset 16
	add	r7, sp, #0
	.cfi_def_cfa_register 7
	str	r0, [r7, #4]
	str	r1, [r7]
	.loc 1 310 0
	ldr	r3, [r7, #4]
	asrs	r3, r3, #5
	lsls	r3, r3, #2
	ldr	r2, [r7]
	adds	r3, r2, r3
	ldr	r2, [r7, #4]
	asrs	r2, r2, #5
	lsls	r2, r2, #2
	ldr	r1, [r7]
	adds	r2, r1, r2
	ldr	r2, [r2]
	ldr	r1, [r7, #4]
	movs	r0, #31
	ands	r1, r0
	movs	r0, #1
	lsls	r0, r0, r1
	movs	r1, r0
	orrs	r2, r1
	str	r2, [r3]
	.loc 1 311 0
	nop
	mov	sp, r7
	add	sp, sp, #8
	@ sp needed
	pop	{r7, pc}
	.cfi_endproc
.LFE2:
	.size	set_bit, .-set_bit
	.section	.text.clear_bit,"ax",%progbits
	.align	2
	.code	16
	.thumb_func
	.type	clear_bit, %function
clear_bit:
.LFB3:
	.loc 1 314 0
	.cfi_startproc
	@ args = 0, pretend = 0, frame = 8
	@ frame_needed = 1, uses_anonymous_args = 0
	push	{r7, lr}
	.cfi_def_cfa_offset 8
	.cfi_offset 7, -8
	.cfi_offset 14, -4
	sub	sp, sp, #8
	.cfi_def_cfa_offset 16
	add	r7, sp, #0
	.cfi_def_cfa_register 7
	str	r0, [r7, #4]
	str	r1, [r7]
	.loc 1 315 0
	ldr	r3, [r7, #4]
	asrs	r3, r3, #5
	lsls	r3, r3, #2
	ldr	r2, [r7]
	adds	r3, r2, r3
	ldr	r2, [r7, #4]
	asrs	r2, r2, #5
	lsls	r2, r2, #2
	ldr	r1, [r7]
	adds	r2, r1, r2
	ldr	r2, [r2]
	ldr	r1, [r7, #4]
	movs	r0, #31
	ands	r1, r0
	movs	r0, #1
	lsls	r0, r0, r1
	movs	r1, r0
	mvns	r1, r1
	ands	r2, r1
	str	r2, [r3]
	.loc 1 316 0
	nop
	mov	sp, r7
	add	sp, sp, #8
	@ sp needed
	pop	{r7, pc}
	.cfi_endproc
.LFE3:
	.size	clear_bit, .-clear_bit
	.section	.text.MAPPING_SEARCH,"ax",%progbits
	.align	2
	.code	16
	.thumb_func
	.type	MAPPING_SEARCH, %function
MAPPING_SEARCH:
.LFB4:
	.loc 1 319 0
	.cfi_startproc
	@ args = 0, pretend = 0, frame = 24
	@ frame_needed = 1, uses_anonymous_args = 0
	push	{r7, lr}
	.cfi_def_cfa_offset 8
	.cfi_offset 7, -8
	.cfi_offset 14, -4
	sub	sp, sp, #24
	.cfi_def_cfa_offset 32
	add	r7, sp, #0
	.cfi_def_cfa_register 7
	str	r0, [r7, #12]
	str	r1, [r7, #8]
	str	r2, [r7, #4]
	.loc 1 322 0
	ldr	r3, [r7, #12]
	ldr	r3, [r3]
	cmp	r3, #127
	bhi	.L24
	.loc 1 323 0
	ldr	r3, [r7, #8]
	movs	r2, #0
	str	r2, [r3]
	.loc 1 324 0
	ldr	r3, [r7, #12]
	ldr	r3, [r3]
	lsrs	r3, r3, #2
	movs	r2, r3
	ldr	r3, [r7, #4]
	str	r2, [r3]
	.loc 1 336 0
	b	.L26
.L24:
	.loc 1 326 0
	ldr	r3, [r7, #12]
	ldr	r3, [r3]
	movs	r0, r3
	bl	ms_bit
	movs	r3, r0
	subs	r3, r3, #5
	movs	r2, #1
	lsls	r2, r2, r3
	movs	r3, r2
	subs	r3, r3, #1
	str	r3, [r7, #20]
	.loc 1 327 0
	ldr	r3, [r7, #12]
	ldr	r2, [r3]
	ldr	r3, [r7, #20]
	adds	r2, r2, r3
	ldr	r3, [r7, #12]
	str	r2, [r3]
	.loc 1 328 0
	ldr	r3, [r7, #12]
	ldr	r3, [r3]
	movs	r0, r3
	bl	ms_bit
	movs	r2, r0
	ldr	r3, [r7, #8]
	str	r2, [r3]
	.loc 1 329 0
	ldr	r3, [r7, #12]
	ldr	r2, [r3]
	ldr	r3, [r7, #8]
	ldr	r3, [r3]
	subs	r3, r3, #5
	lsrs	r2, r2, r3
	movs	r3, r2
	subs	r3, r3, #32
	movs	r2, r3
	ldr	r3, [r7, #4]
	str	r2, [r3]
	.loc 1 330 0
	ldr	r3, [r7, #8]
	ldr	r3, [r3]
	subs	r2, r3, #6
	ldr	r3, [r7, #8]
	str	r2, [r3]
	.loc 1 334 0
	ldr	r3, [r7, #12]
	ldr	r3, [r3]
	ldr	r2, [r7, #20]
	mvns	r2, r2
	ands	r2, r3
	ldr	r3, [r7, #12]
	str	r2, [r3]
.L26:
	.loc 1 336 0
	nop
	mov	sp, r7
	add	sp, sp, #24
	@ sp needed
	pop	{r7, pc}
	.cfi_endproc
.LFE4:
	.size	MAPPING_SEARCH, .-MAPPING_SEARCH
	.section	.text.MAPPING_INSERT,"ax",%progbits
	.align	2
	.code	16
	.thumb_func
	.type	MAPPING_INSERT, %function
MAPPING_INSERT:
.LFB5:
	.loc 1 339 0
	.cfi_startproc
	@ args = 0, pretend = 0, frame = 16
	@ frame_needed = 1, uses_anonymous_args = 0
	push	{r7, lr}
	.cfi_def_cfa_offset 8
	.cfi_offset 7, -8
	.cfi_offset 14, -4
	sub	sp, sp, #16
	.cfi_def_cfa_offset 24
	add	r7, sp, #0
	.cfi_def_cfa_register 7
	str	r0, [r7, #12]
	str	r1, [r7, #8]
	str	r2, [r7, #4]
	.loc 1 340 0
	ldr	r3, [r7, #12]
	cmp	r3, #127
	bhi	.L28
	.loc 1 341 0
	ldr	r3, [r7, #8]
	movs	r2, #0
	str	r2, [r3]
	.loc 1 342 0
	ldr	r3, [r7, #12]
	lsrs	r3, r3, #2
	movs	r2, r3
	ldr	r3, [r7, #4]
	str	r2, [r3]
	.loc 1 348 0
	b	.L30
.L28:
	.loc 1 344 0
	ldr	r3, [r7, #12]
	movs	r0, r3
	bl	ms_bit
	movs	r2, r0
	ldr	r3, [r7, #8]
	str	r2, [r3]
	.loc 1 345 0
	ldr	r3, [r7, #8]
	ldr	r3, [r3]
	subs	r3, r3, #5
	ldr	r2, [r7, #12]
	lsrs	r2, r2, r3
	movs	r3, r2
	subs	r3, r3, #32
	movs	r2, r3
	ldr	r3, [r7, #4]
	str	r2, [r3]
	.loc 1 346 0
	ldr	r3, [r7, #8]
	ldr	r3, [r3]
	subs	r2, r3, #6
	ldr	r3, [r7, #8]
	str	r2, [r3]
.L30:
	.loc 1 348 0
	nop
	mov	sp, r7
	add	sp, sp, #16
	@ sp needed
	pop	{r7, pc}
	.cfi_endproc
.LFE5:
	.size	MAPPING_INSERT, .-MAPPING_INSERT
	.section	.text.FIND_SUITABLE_BLOCK,"ax",%progbits
	.align	2
	.code	16
	.thumb_func
	.type	FIND_SUITABLE_BLOCK, %function
FIND_SUITABLE_BLOCK:
.LFB6:
	.loc 1 352 0
	.cfi_startproc
	@ args = 0, pretend = 0, frame = 24
	@ frame_needed = 1, uses_anonymous_args = 0
	push	{r7, lr}
	.cfi_def_cfa_offset 8
	.cfi_offset 7, -8
	.cfi_offset 14, -4
	sub	sp, sp, #24
	.cfi_def_cfa_offset 32
	add	r7, sp, #0
	.cfi_def_cfa_register 7
	str	r0, [r7, #12]
	str	r1, [r7, #8]
	str	r2, [r7, #4]
	.loc 1 353 0
	ldr	r3, [r7, #8]
	ldr	r3, [r3]
	ldr	r2, [r7, #12]
	adds	r3, r3, #4
	lsls	r3, r3, #2
	adds	r3, r2, r3
	adds	r3, r3, #4
	ldr	r2, [r3]
	ldr	r3, [r7, #4]
	ldr	r3, [r3]
	movs	r1, #1
	rsbs	r1, r1, #0
	lsls	r1, r1, r3
	movs	r3, r1
	ands	r3, r2
	str	r3, [r7, #16]
	.loc 1 354 0
	movs	r3, #0
	str	r3, [r7, #20]
	.loc 1 356 0
	ldr	r3, [r7, #16]
	cmp	r3, #0
	beq	.L32
	.loc 1 357 0
	ldr	r3, [r7, #16]
	movs	r0, r3
	bl	ls_bit
	movs	r2, r0
	ldr	r3, [r7, #4]
	str	r2, [r3]
	.loc 1 358 0
	ldr	r3, [r7, #8]
	ldr	r1, [r3]
	ldr	r3, [r7, #4]
	ldr	r3, [r3]
	ldr	r2, [r7, #12]
	lsls	r1, r1, #5
	adds	r3, r1, r3
	adds	r3, r3, #20
	lsls	r3, r3, #2
	adds	r3, r2, r3
	adds	r3, r3, #4
	ldr	r3, [r3]
	str	r3, [r7, #20]
	b	.L33
.L32:
	.loc 1 360 0
	ldr	r3, [r7, #12]
	ldr	r2, [r3, #16]
	ldr	r3, [r7, #8]
	ldr	r3, [r3]
	adds	r3, r3, #1
	movs	r1, #1
	rsbs	r1, r1, #0
	lsls	r1, r1, r3
	movs	r3, r1
	ands	r3, r2
	movs	r0, r3
	bl	ls_bit
	movs	r2, r0
	ldr	r3, [r7, #8]
	str	r2, [r3]
	.loc 1 361 0
	ldr	r3, [r7, #8]
	ldr	r3, [r3]
	cmp	r3, #0
	ble	.L33
	.loc 1 362 0
	ldr	r3, [r7, #8]
	ldr	r3, [r3]
	ldr	r2, [r7, #12]
	adds	r3, r3, #4
	lsls	r3, r3, #2
	adds	r3, r2, r3
	adds	r3, r3, #4
	ldr	r3, [r3]
	movs	r0, r3
	bl	ls_bit
	movs	r2, r0
	ldr	r3, [r7, #4]
	str	r2, [r3]
	.loc 1 363 0
	ldr	r3, [r7, #8]
	ldr	r1, [r3]
	ldr	r3, [r7, #4]
	ldr	r3, [r3]
	ldr	r2, [r7, #12]
	lsls	r1, r1, #5
	adds	r3, r1, r3
	adds	r3, r3, #20
	lsls	r3, r3, #2
	adds	r3, r2, r3
	adds	r3, r3, #4
	ldr	r3, [r3]
	str	r3, [r7, #20]
.L33:
	.loc 1 366 0
	ldr	r3, [r7, #20]
	.loc 1 367 0
	movs	r0, r3
	mov	sp, r7
	add	sp, sp, #24
	@ sp needed
	pop	{r7, pc}
	.cfi_endproc
.LFE6:
	.size	FIND_SUITABLE_BLOCK, .-FIND_SUITABLE_BLOCK
	.section	.text.process_area,"ax",%progbits
	.align	2
	.code	16
	.thumb_func
	.type	process_area, %function
process_area:
.LFB7:
	.loc 1 438 0
	.cfi_startproc
	@ args = 0, pretend = 0, frame = 24
	@ frame_needed = 1, uses_anonymous_args = 0
	push	{r7, lr}
	.cfi_def_cfa_offset 8
	.cfi_offset 7, -8
	.cfi_offset 14, -4
	sub	sp, sp, #24
	.cfi_def_cfa_offset 32
	add	r7, sp, #0
	.cfi_def_cfa_register 7
	str	r0, [r7, #4]
	str	r1, [r7]
	.loc 1 442 0
	ldr	r3, [r7, #4]
	str	r3, [r7, #20]
	.loc 1 443 0
	ldr	r3, [r7, #20]
	movs	r2, #8
	str	r2, [r3, #4]
	.loc 1 446 0
	ldr	r3, [r7, #20]
	adds	r3, r3, #8
	movs	r2, r3
	ldr	r3, [r7, #20]
	ldr	r3, [r3, #4]
	movs	r1, #3
	bics	r3, r1
	adds	r3, r2, r3
	str	r3, [r7, #16]
	.loc 1 447 0
	ldr	r3, [r7, #20]
	ldr	r3, [r3, #4]
	movs	r2, #3
	bics	r3, r2
	ldr	r2, [r7]
	subs	r3, r2, r3
	subs	r3, r3, #24
	movs	r2, #7
	bics	r3, r2
	movs	r2, r3
	ldr	r3, [r7, #16]
	str	r2, [r3, #4]
	.loc 1 448 0
	ldr	r3, [r7, #16]
	movs	r2, #0
	str	r2, [r3, #12]
	ldr	r3, [r7, #16]
	ldr	r2, [r3, #12]
	ldr	r3, [r7, #16]
	str	r2, [r3, #8]
	.loc 1 449 0
	ldr	r3, [r7, #16]
	adds	r3, r3, #8
	movs	r2, r3
	ldr	r3, [r7, #16]
	ldr	r3, [r3, #4]
	movs	r1, #3
	bics	r3, r1
	adds	r3, r2, r3
	str	r3, [r7, #12]
	.loc 1 450 0
	ldr	r3, [r7, #12]
	ldr	r2, [r7, #16]
	str	r2, [r3]
	.loc 1 451 0
	ldr	r3, [r7, #12]
	movs	r2, #2
	str	r2, [r3, #4]
	.loc 1 452 0
	ldr	r3, [r7, #20]
	adds	r3, r3, #8
	str	r3, [r7, #8]
	.loc 1 453 0
	ldr	r3, [r7, #8]
	movs	r2, #0
	str	r2, [r3, #4]
	.loc 1 454 0
	ldr	r3, [r7, #8]
	ldr	r2, [r7, #12]
	str	r2, [r3]
	.loc 1 455 0
	ldr	r3, [r7, #20]
	.loc 1 456 0
	movs	r0, r3
	mov	sp, r7
	add	sp, sp, #24
	@ sp needed
	pop	{r7, pc}
	.cfi_endproc
.LFE7:
	.size	process_area, .-process_area
	.section	.bss.mpool,"aw",%nobits
	.align	2
	.type	mpool, %object
	.size	mpool, 4
mpool:
	.space	4
	.section	.text.init_memory_pool,"ax",%progbits
	.align	2
	.global	init_memory_pool
	.code	16
	.thumb_func
	.type	init_memory_pool, %function
init_memory_pool:
.LFB8:
	.loc 1 466 0
	.cfi_startproc
	@ args = 0, pretend = 0, frame = 24
	@ frame_needed = 1, uses_anonymous_args = 0
	push	{r7, lr}
	.cfi_def_cfa_offset 8
	.cfi_offset 7, -8
	.cfi_offset 14, -4
	sub	sp, sp, #24
	.cfi_def_cfa_offset 32
	add	r7, sp, #0
	.cfi_def_cfa_register 7
	str	r0, [r7, #4]
	str	r1, [r7]
	.loc 1 471 0
	ldr	r3, [r7]
	cmp	r3, #0
	beq	.L38
	.loc 1 471 0 is_stmt 0 discriminator 1
	ldr	r3, [r7, #4]
	cmp	r3, #0
	beq	.L38
	.loc 1 471 0 discriminator 2
	ldr	r3, [r7, #4]
	ldr	r2, .L43
	cmp	r3, r2
	bhi	.L39
.L38:
	.loc 1 473 0 is_stmt 1
	movs	r3, #1
	rsbs	r3, r3, #0
	b	.L40
.L39:
	.loc 1 476 0
	ldr	r3, [r7]
	movs	r2, #3
	ands	r3, r2
	beq	.L41
	.loc 1 478 0
	movs	r3, #1
	rsbs	r3, r3, #0
	b	.L40
.L41:
	.loc 1 480 0
	ldr	r3, [r7]
	str	r3, [r7, #20]
	.loc 1 482 0
	ldr	r3, [r7, #20]
	ldr	r3, [r3]
	ldr	r2, .L43+4
	cmp	r3, r2
	bne	.L42
	.loc 1 483 0
	ldr	r3, .L43+8
	ldr	r2, [r7]
	str	r2, [r3]
	.loc 1 484 0
	ldr	r3, .L43+8
	ldr	r3, [r3]
	ldr	r2, .L43+12
	mov	ip, r2
	add	r3, r3, ip
	str	r3, [r7, #16]
	.loc 1 485 0
	ldr	r3, [r7, #16]
	ldr	r3, [r3, #4]
	movs	r2, #3
	bics	r3, r2
	b	.L40
.L42:
	.loc 1 488 0
	ldr	r3, .L43+8
	ldr	r2, [r7]
	str	r2, [r3]
	.loc 1 491 0
	ldr	r2, .L43+16
	ldr	r3, [r7]
	movs	r1, #0
	movs	r0, r3
	bl	memset
	.loc 1 493 0
	ldr	r3, [r7, #20]
	ldr	r2, .L43+4
	str	r2, [r3]
	.loc 1 497 0
	ldr	r3, [r7]
	ldr	r2, .L43+12
	adds	r0, r3, r2
	.loc 1 498 0
	ldr	r3, [r7, #4]
	ldr	r2, .L43+20
	mov	ip, r2
	add	r3, r3, ip
	.loc 1 497 0
	movs	r2, #7
	bics	r3, r2
	movs	r1, r3
	bl	process_area
	movs	r3, r0
	str	r3, [r7, #12]
	.loc 1 499 0
	ldr	r3, [r7, #12]
	adds	r3, r3, #8
	movs	r2, r3
	ldr	r3, [r7, #12]
	ldr	r3, [r3, #4]
	movs	r1, #3
	bics	r3, r1
	adds	r3, r2, r3
	str	r3, [r7, #16]
	.loc 1 500 0
	ldr	r3, [r7, #16]
	adds	r3, r3, #8
	ldr	r2, [r7, #20]
	movs	r1, r2
	movs	r0, r3
	bl	free_ex
	.loc 1 501 0
	ldr	r3, [r7, #12]
	adds	r3, r3, #8
	movs	r2, r3
	ldr	r3, [r7, #20]
	str	r2, [r3, #12]
	.loc 1 504 0
	ldr	r3, [r7, #16]
	ldr	r3, [r3, #4]
	movs	r2, #3
	bics	r3, r2
	ldr	r2, [r7, #4]
	subs	r2, r2, r3
	ldr	r3, [r7, #20]
	str	r2, [r3, #4]
	.loc 1 505 0
	ldr	r3, [r7, #20]
	ldr	r2, [r3, #4]
	ldr	r3, [r7, #20]
	str	r2, [r3, #8]
	.loc 1 508 0
	ldr	r3, [r7, #16]
	ldr	r3, [r3, #4]
	movs	r2, #3
	bics	r3, r2
.L40:
	.loc 1 509 0
	movs	r0, r3
	mov	sp, r7
	add	sp, sp, #24
	@ sp needed
	pop	{r7, pc}
.L44:
	.align	2
.L43:
	.word	2195
	.word	710539865
	.word	mpool
	.word	2136
	.word	2132
	.word	-2132
	.cfi_endproc
.LFE8:
	.size	init_memory_pool, .-init_memory_pool
	.section	.text.add_new_area,"ax",%progbits
	.align	2
	.global	add_new_area
	.code	16
	.thumb_func
	.type	add_new_area, %function
add_new_area:
.LFB9:
	.loc 1 513 0
	.cfi_startproc
	@ args = 0, pretend = 0, frame = 64
	@ frame_needed = 1, uses_anonymous_args = 0
	push	{r7, lr}
	.cfi_def_cfa_offset 8
	.cfi_offset 7, -8
	.cfi_offset 14, -4
	sub	sp, sp, #64
	.cfi_def_cfa_offset 72
	add	r7, sp, #0
	.cfi_def_cfa_register 7
	str	r0, [r7, #12]
	str	r1, [r7, #8]
	str	r2, [r7, #4]
	.loc 1 515 0
	ldr	r3, [r7, #4]
	str	r3, [r7, #40]
	.loc 1 519 0
	ldr	r2, [r7, #8]
	ldr	r3, [r7, #12]
	movs	r1, #0
	movs	r0, r3
	bl	memset
	.loc 1 520 0
	ldr	r3, [r7, #40]
	ldr	r3, [r3, #12]
	str	r3, [r7, #60]
	.loc 1 521 0
	movs	r3, #0
	str	r3, [r7, #56]
	.loc 1 523 0
	ldr	r2, [r7, #8]
	ldr	r3, [r7, #12]
	movs	r1, r2
	movs	r0, r3
	bl	process_area
	movs	r3, r0
	str	r3, [r7, #52]
	.loc 1 524 0
	ldr	r3, [r7, #52]
	adds	r3, r3, #8
	movs	r2, r3
	ldr	r3, [r7, #52]
	ldr	r3, [r3, #4]
	movs	r1, #3
	bics	r3, r1
	adds	r3, r2, r3
	str	r3, [r7, #48]
	.loc 1 525 0
	ldr	r3, [r7, #48]
	adds	r3, r3, #8
	movs	r2, r3
	ldr	r3, [r7, #48]
	ldr	r3, [r3, #4]
	movs	r1, #3
	bics	r3, r1
	adds	r3, r2, r3
	str	r3, [r7, #44]
	.loc 1 530 0
	b	.L46
.L53:
	.loc 1 531 0
	ldr	r3, [r7, #60]
	subs	r3, r3, #8
	str	r3, [r7, #36]
	.loc 1 532 0
	ldr	r3, [r7, #36]
	adds	r3, r3, #8
	movs	r2, r3
	ldr	r3, [r7, #36]
	ldr	r3, [r3, #4]
	movs	r1, #3
	bics	r3, r1
	adds	r3, r2, r3
	str	r3, [r7, #32]
	.loc 1 533 0
	ldr	r3, [r7, #60]
	ldr	r3, [r3]
	str	r3, [r7, #28]
	.loc 1 536 0
	ldr	r3, [r7, #44]
	adds	r3, r3, #8
	movs	r2, r3
	ldr	r3, [r7, #36]
	cmp	r2, r3
	bne	.L47
	.loc 1 537 0
	ldr	r3, [r7, #40]
	ldr	r2, [r3, #12]
	ldr	r3, [r7, #60]
	cmp	r2, r3
	bne	.L48
	.loc 1 538 0
	ldr	r3, [r7, #60]
	ldr	r2, [r3, #4]
	ldr	r3, [r7, #40]
	str	r2, [r3, #12]
	.loc 1 539 0
	ldr	r3, [r7, #60]
	ldr	r3, [r3, #4]
	str	r3, [r7, #60]
	b	.L49
.L48:
	.loc 1 541 0
	ldr	r3, [r7, #60]
	ldr	r2, [r3, #4]
	ldr	r3, [r7, #56]
	str	r2, [r3, #4]
	.loc 1 542 0
	ldr	r3, [r7, #60]
	ldr	r3, [r3, #4]
	str	r3, [r7, #60]
.L49:
	.loc 1 546 0
	ldr	r3, [r7, #48]
	ldr	r3, [r3, #4]
	movs	r2, #3
	bics	r3, r2
	movs	r2, r3
	ldr	r3, [r7, #36]
	ldr	r3, [r3, #4]
	movs	r1, #3
	bics	r3, r1
	adds	r3, r2, r3
	adds	r3, r3, #16
	.loc 1 547 0
	movs	r2, #7
	bics	r3, r2
	movs	r2, r3
	.loc 1 545 0
	ldr	r3, [r7, #48]
	str	r2, [r3, #4]
	.loc 1 549 0
	ldr	r3, [r7, #32]
	ldr	r2, [r7, #48]
	str	r2, [r3]
	.loc 1 550 0
	ldr	r3, [r7, #28]
	str	r3, [r7, #44]
	.loc 1 552 0
	b	.L46
.L47:
	.loc 1 557 0
	ldr	r3, [r7, #28]
	adds	r3, r3, #8
	movs	r2, r3
	ldr	r3, [r7, #52]
	cmp	r2, r3
	bne	.L50
	.loc 1 558 0
	ldr	r3, [r7, #40]
	ldr	r2, [r3, #12]
	ldr	r3, [r7, #60]
	cmp	r2, r3
	bne	.L51
	.loc 1 559 0
	ldr	r3, [r7, #60]
	ldr	r2, [r3, #4]
	ldr	r3, [r7, #40]
	str	r2, [r3, #12]
	.loc 1 560 0
	ldr	r3, [r7, #60]
	ldr	r3, [r3, #4]
	str	r3, [r7, #60]
	b	.L52
.L51:
	.loc 1 562 0
	ldr	r3, [r7, #60]
	ldr	r2, [r3, #4]
	ldr	r3, [r7, #56]
	str	r2, [r3, #4]
	.loc 1 563 0
	ldr	r3, [r7, #60]
	ldr	r3, [r3, #4]
	str	r3, [r7, #60]
.L52:
	.loc 1 567 0
	ldr	r3, [r7, #48]
	ldr	r3, [r3, #4]
	movs	r2, #3
	bics	r3, r2
	movs	r2, r3
	ldr	r3, [r7, #52]
	ldr	r3, [r3, #4]
	movs	r1, #3
	bics	r3, r1
	adds	r3, r2, r3
	adds	r3, r3, #16
	.loc 1 568 0
	movs	r2, #7
	bics	r3, r2
	movs	r2, r3
	ldr	r3, [r7, #28]
	ldr	r3, [r3, #4]
	movs	r1, #2
	ands	r3, r1
	orrs	r2, r3
	.loc 1 566 0
	ldr	r3, [r7, #28]
	str	r2, [r3, #4]
	.loc 1 569 0
	ldr	r3, [r7, #28]
	adds	r3, r3, #8
	movs	r2, r3
	ldr	r3, [r7, #28]
	ldr	r3, [r3, #4]
	movs	r1, #3
	bics	r3, r1
	adds	r3, r2, r3
	str	r3, [r7, #24]
	.loc 1 570 0
	ldr	r3, [r7, #24]
	ldr	r2, [r7, #28]
	str	r2, [r3]
	.loc 1 571 0
	ldr	r3, [r7, #28]
	str	r3, [r7, #48]
	.loc 1 572 0
	ldr	r3, [r7, #36]
	str	r3, [r7, #52]
	.loc 1 574 0
	b	.L46
.L50:
	.loc 1 576 0
	ldr	r3, [r7, #60]
	str	r3, [r7, #56]
	.loc 1 577 0
	ldr	r3, [r7, #60]
	ldr	r3, [r3, #4]
	str	r3, [r7, #60]
.L46:
	.loc 1 530 0
	ldr	r3, [r7, #60]
	cmp	r3, #0
	beq	.LCB954
	b	.L53	@long jump
.LCB954:
	.loc 1 581 0
	ldr	r3, [r7, #52]
	adds	r3, r3, #8
	str	r3, [r7, #20]
	.loc 1 582 0
	ldr	r3, [r7, #40]
	ldr	r2, [r3, #12]
	ldr	r3, [r7, #20]
	str	r2, [r3, #4]
	.loc 1 583 0
	ldr	r3, [r7, #20]
	ldr	r2, [r7, #44]
	str	r2, [r3]
	.loc 1 584 0
	ldr	r3, [r7, #40]
	ldr	r2, [r7, #20]
	str	r2, [r3, #12]
	.loc 1 585 0
	ldr	r3, [r7, #48]
	adds	r3, r3, #8
	ldr	r2, [r7, #4]
	movs	r1, r2
	movs	r0, r3
	bl	free_ex
	.loc 1 586 0
	ldr	r3, [r7, #48]
	ldr	r3, [r3, #4]
	movs	r2, #3
	bics	r3, r2
	.loc 1 587 0
	movs	r0, r3
	mov	sp, r7
	add	sp, sp, #64
	@ sp needed
	pop	{r7, pc}
	.cfi_endproc
.LFE9:
	.size	add_new_area, .-add_new_area
	.section	.text.get_used_size,"ax",%progbits
	.align	2
	.global	get_used_size
	.code	16
	.thumb_func
	.type	get_used_size, %function
get_used_size:
.LFB10:
	.loc 1 592 0
	.cfi_startproc
	@ args = 0, pretend = 0, frame = 8
	@ frame_needed = 1, uses_anonymous_args = 0
	push	{r7, lr}
	.cfi_def_cfa_offset 8
	.cfi_offset 7, -8
	.cfi_offset 14, -4
	sub	sp, sp, #8
	.cfi_def_cfa_offset 16
	add	r7, sp, #0
	.cfi_def_cfa_register 7
	str	r0, [r7, #4]
	.loc 1 595 0
	ldr	r3, [r7, #4]
	ldr	r3, [r3, #4]
	.loc 1 599 0
	movs	r0, r3
	mov	sp, r7
	add	sp, sp, #8
	@ sp needed
	pop	{r7, pc}
	.cfi_endproc
.LFE10:
	.size	get_used_size, .-get_used_size
	.section	.text.get_max_size,"ax",%progbits
	.align	2
	.global	get_max_size
	.code	16
	.thumb_func
	.type	get_max_size, %function
get_max_size:
.LFB11:
	.loc 1 603 0
	.cfi_startproc
	@ args = 0, pretend = 0, frame = 8
	@ frame_needed = 1, uses_anonymous_args = 0
	push	{r7, lr}
	.cfi_def_cfa_offset 8
	.cfi_offset 7, -8
	.cfi_offset 14, -4
	sub	sp, sp, #8
	.cfi_def_cfa_offset 16
	add	r7, sp, #0
	.cfi_def_cfa_register 7
	str	r0, [r7, #4]
	.loc 1 606 0
	ldr	r3, [r7, #4]
	ldr	r3, [r3, #8]
	.loc 1 610 0
	movs	r0, r3
	mov	sp, r7
	add	sp, sp, #8
	@ sp needed
	pop	{r7, pc}
	.cfi_endproc
.LFE11:
	.size	get_max_size, .-get_max_size
	.section	.text.destroy_memory_pool,"ax",%progbits
	.align	2
	.global	destroy_memory_pool
	.code	16
	.thumb_func
	.type	destroy_memory_pool, %function
destroy_memory_pool:
.LFB12:
	.loc 1 614 0
	.cfi_startproc
	@ args = 0, pretend = 0, frame = 16
	@ frame_needed = 1, uses_anonymous_args = 0
	push	{r7, lr}
	.cfi_def_cfa_offset 8
	.cfi_offset 7, -8
	.cfi_offset 14, -4
	sub	sp, sp, #16
	.cfi_def_cfa_offset 24
	add	r7, sp, #0
	.cfi_def_cfa_register 7
	str	r0, [r7, #4]
	.loc 1 616 0
	ldr	r3, [r7, #4]
	str	r3, [r7, #12]
	.loc 1 618 0
	ldr	r3, [r7, #12]
	movs	r2, #0
	str	r2, [r3]
	.loc 1 622 0
	nop
	mov	sp, r7
	add	sp, sp, #16
	@ sp needed
	pop	{r7, pc}
	.cfi_endproc
.LFE12:
	.size	destroy_memory_pool, .-destroy_memory_pool
	.section	.text.tlsf_malloc,"ax",%progbits
	.align	2
	.global	tlsf_malloc
	.code	16
	.thumb_func
	.type	tlsf_malloc, %function
tlsf_malloc:
.LFB13:
	.loc 1 627 0
	.cfi_startproc
	@ args = 0, pretend = 0, frame = 16
	@ frame_needed = 1, uses_anonymous_args = 0
	push	{r7, lr}
	.cfi_def_cfa_offset 8
	.cfi_offset 7, -8
	.cfi_offset 14, -4
	sub	sp, sp, #16
	.cfi_def_cfa_offset 24
	add	r7, sp, #0
	.cfi_def_cfa_register 7
	str	r0, [r7, #4]
	.loc 1 647 0
	ldr	r3, .L62
	ldr	r2, [r3]
	ldr	r3, [r7, #4]
	movs	r1, r2
	movs	r0, r3
	bl	malloc_ex
	movs	r3, r0
	str	r3, [r7, #12]
	.loc 1 651 0
	ldr	r3, [r7, #12]
	.loc 1 652 0
	movs	r0, r3
	mov	sp, r7
	add	sp, sp, #16
	@ sp needed
	pop	{r7, pc}
.L63:
	.align	2
.L62:
	.word	mpool
	.cfi_endproc
.LFE13:
	.size	tlsf_malloc, .-tlsf_malloc
	.section	.text.tlsf_free,"ax",%progbits
	.align	2
	.global	tlsf_free
	.code	16
	.thumb_func
	.type	tlsf_free, %function
tlsf_free:
.LFB14:
	.loc 1 656 0
	.cfi_startproc
	@ args = 0, pretend = 0, frame = 8
	@ frame_needed = 1, uses_anonymous_args = 0
	push	{r7, lr}
	.cfi_def_cfa_offset 8
	.cfi_offset 7, -8
	.cfi_offset 14, -4
	sub	sp, sp, #8
	.cfi_def_cfa_offset 16
	add	r7, sp, #0
	.cfi_def_cfa_register 7
	str	r0, [r7, #4]
	.loc 1 661 0
	ldr	r3, .L65
	ldr	r2, [r3]
	ldr	r3, [r7, #4]
	movs	r1, r2
	movs	r0, r3
	bl	free_ex
	.loc 1 665 0
	nop
	mov	sp, r7
	add	sp, sp, #8
	@ sp needed
	pop	{r7, pc}
.L66:
	.align	2
.L65:
	.word	mpool
	.cfi_endproc
.LFE14:
	.size	tlsf_free, .-tlsf_free
	.section	.text.tlsf_realloc,"ax",%progbits
	.align	2
	.global	tlsf_realloc
	.code	16
	.thumb_func
	.type	tlsf_realloc, %function
tlsf_realloc:
.LFB15:
	.loc 1 669 0
	.cfi_startproc
	@ args = 0, pretend = 0, frame = 16
	@ frame_needed = 1, uses_anonymous_args = 0
	push	{r7, lr}
	.cfi_def_cfa_offset 8
	.cfi_offset 7, -8
	.cfi_offset 14, -4
	sub	sp, sp, #16
	.cfi_def_cfa_offset 24
	add	r7, sp, #0
	.cfi_def_cfa_register 7
	str	r0, [r7, #4]
	str	r1, [r7]
	.loc 1 681 0
	ldr	r3, .L69
	ldr	r2, [r3]
	ldr	r1, [r7]
	ldr	r3, [r7, #4]
	movs	r0, r3
	bl	realloc_ex
	movs	r3, r0
	str	r3, [r7, #12]
	.loc 1 685 0
	ldr	r3, [r7, #12]
	.loc 1 686 0
	movs	r0, r3
	mov	sp, r7
	add	sp, sp, #16
	@ sp needed
	pop	{r7, pc}
.L70:
	.align	2
.L69:
	.word	mpool
	.cfi_endproc
.LFE15:
	.size	tlsf_realloc, .-tlsf_realloc
	.section	.text.tlsf_calloc,"ax",%progbits
	.align	2
	.global	tlsf_calloc
	.code	16
	.thumb_func
	.type	tlsf_calloc, %function
tlsf_calloc:
.LFB16:
	.loc 1 690 0
	.cfi_startproc
	@ args = 0, pretend = 0, frame = 16
	@ frame_needed = 1, uses_anonymous_args = 0
	push	{r7, lr}
	.cfi_def_cfa_offset 8
	.cfi_offset 7, -8
	.cfi_offset 14, -4
	sub	sp, sp, #16
	.cfi_def_cfa_offset 24
	add	r7, sp, #0
	.cfi_def_cfa_register 7
	str	r0, [r7, #4]
	str	r1, [r7]
	.loc 1 696 0
	ldr	r3, .L73
	ldr	r2, [r3]
	ldr	r1, [r7]
	ldr	r3, [r7, #4]
	movs	r0, r3
	bl	calloc_ex
	movs	r3, r0
	str	r3, [r7, #12]
	.loc 1 700 0
	ldr	r3, [r7, #12]
	.loc 1 701 0
	movs	r0, r3
	mov	sp, r7
	add	sp, sp, #16
	@ sp needed
	pop	{r7, pc}
.L74:
	.align	2
.L73:
	.word	mpool
	.cfi_endproc
.LFE16:
	.size	tlsf_calloc, .-tlsf_calloc
	.section	.text.malloc_ex,"ax",%progbits
	.align	2
	.global	malloc_ex
	.code	16
	.thumb_func
	.type	malloc_ex, %function
malloc_ex:
.LFB17:
	.loc 1 705 0
	.cfi_startproc
	@ args = 0, pretend = 0, frame = 40
	@ frame_needed = 1, uses_anonymous_args = 0
	push	{r4, r7, lr}
	.cfi_def_cfa_offset 12
	.cfi_offset 4, -12
	.cfi_offset 7, -8
	.cfi_offset 14, -4
	sub	sp, sp, #44
	.cfi_def_cfa_offset 56
	add	r7, sp, #0
	.cfi_def_cfa_register 7
	str	r0, [r7, #4]
	str	r1, [r7]
	.loc 1 707 0
	ldr	r3, [r7]
	str	r3, [r7, #36]
	.loc 1 712 0
	ldr	r3, [r7, #4]
	cmp	r3, #7
	bls	.L76
	.loc 1 712 0 is_stmt 0 discriminator 1
	ldr	r3, [r7, #4]
	adds	r3, r3, #7
	movs	r2, #7
	bics	r3, r2
	b	.L77
.L76:
	.loc 1 712 0 discriminator 2
	movs	r3, #8
.L77:
	.loc 1 712 0 discriminator 4
	str	r3, [r7, #4]
	.loc 1 715 0 is_stmt 1 discriminator 4
	movs	r3, #12
	adds	r2, r7, r3
	movs	r3, #16
	adds	r1, r7, r3
	adds	r3, r7, #4
	movs	r0, r3
	bl	MAPPING_SEARCH
	.loc 1 719 0 discriminator 4
	movs	r3, #12
	adds	r2, r7, r3
	movs	r3, #16
	adds	r1, r7, r3
	ldr	r3, [r7, #36]
	movs	r0, r3
	bl	FIND_SUITABLE_BLOCK
	movs	r3, r0
	str	r3, [r7, #32]
	.loc 1 737 0 discriminator 4
	ldr	r3, [r7, #32]
	cmp	r3, #0
	bne	.L78
	.loc 1 738 0
	movs	r3, #0
	b	.L86
.L78:
	.loc 1 740 0
	ldr	r4, [r7, #16]
	ldr	r0, [r7, #12]
	ldr	r3, [r7, #32]
	ldr	r2, [r3, #12]
	ldr	r1, [r7, #36]
	lsls	r3, r4, #5
	adds	r3, r3, r0
	adds	r3, r3, #20
	lsls	r3, r3, #2
	adds	r3, r1, r3
	adds	r3, r3, #4
	str	r2, [r3]
	ldr	r1, [r7, #16]
	ldr	r3, [r7, #12]
	ldr	r2, [r7, #36]
	lsls	r1, r1, #5
	adds	r3, r1, r3
	adds	r3, r3, #20
	lsls	r3, r3, #2
	adds	r3, r2, r3
	adds	r3, r3, #4
	ldr	r3, [r3]
	cmp	r3, #0
	beq	.L80
	.loc 1 740 0 is_stmt 0 discriminator 1
	ldr	r1, [r7, #16]
	ldr	r3, [r7, #12]
	ldr	r2, [r7, #36]
	lsls	r1, r1, #5
	adds	r3, r1, r3
	adds	r3, r3, #20
	lsls	r3, r3, #2
	adds	r3, r2, r3
	adds	r3, r3, #4
	ldr	r3, [r3]
	movs	r2, #0
	str	r2, [r3, #8]
	b	.L81
.L80:
	.loc 1 740 0 is_stmt 1 discriminator 2
	ldr	r0, [r7, #12]
	ldr	r3, [r7, #16]
	adds	r3, r3, #4
	lsls	r3, r3, #2
	ldr	r2, [r7, #36]
	adds	r3, r2, r3
	adds	r3, r3, #4
	movs	r1, r3
	bl	clear_bit
	ldr	r3, [r7, #16]
	ldr	r2, [r7, #36]
	adds	r3, r3, #4
	lsls	r3, r3, #2
	adds	r3, r2, r3
	adds	r3, r3, #4
	ldr	r3, [r3]
	cmp	r3, #0
	bne	.L81
	.loc 1 740 0 is_stmt 0 discriminator 4
	ldr	r2, [r7, #16]
	ldr	r3, [r7, #36]
	adds	r3, r3, #16
	movs	r1, r3
	movs	r0, r2
	bl	clear_bit
.L81:
	.loc 1 740 0 discriminator 6
	ldr	r3, [r7, #32]
	movs	r2, #0
	str	r2, [r3, #8]
	.loc 1 740 0 is_stmt 1 discriminator 6
	ldr	r3, [r7, #32]
	movs	r2, #0
	str	r2, [r3, #12]
	.loc 1 743 0 discriminator 6
	ldr	r3, [r7, #32]
	adds	r3, r3, #8
	movs	r2, r3
	ldr	r3, [r7, #32]
	ldr	r3, [r3, #4]
	movs	r1, #3
	bics	r3, r1
	adds	r3, r2, r3
	str	r3, [r7, #28]
	.loc 1 745 0 discriminator 6
	ldr	r3, [r7, #32]
	ldr	r3, [r3, #4]
	movs	r2, #3
	bics	r3, r2
	movs	r2, r3
	ldr	r3, [r7, #4]
	subs	r3, r2, r3
	str	r3, [r7, #24]
	.loc 1 746 0 discriminator 6
	ldr	r3, [r7, #24]
	cmp	r3, #15
	bls	.L82
	.loc 1 747 0
	ldr	r3, [r7, #24]
	subs	r3, r3, #8
	str	r3, [r7, #24]
	.loc 1 748 0
	ldr	r3, [r7, #32]
	adds	r3, r3, #8
	movs	r2, r3
	ldr	r3, [r7, #4]
	adds	r3, r2, r3
	str	r3, [r7, #20]
	.loc 1 749 0
	ldr	r3, [r7, #24]
	movs	r2, #1
	orrs	r2, r3
	ldr	r3, [r7, #20]
	str	r2, [r3, #4]
	.loc 1 750 0
	ldr	r3, [r7, #28]
	ldr	r2, [r7, #20]
	str	r2, [r3]
	.loc 1 751 0
	movs	r3, #12
	adds	r2, r7, r3
	movs	r3, #16
	adds	r1, r7, r3
	ldr	r3, [r7, #24]
	movs	r0, r3
	bl	MAPPING_INSERT
	.loc 1 752 0
	ldr	r3, [r7, #20]
	movs	r2, #0
	str	r2, [r3, #8]
	.loc 1 752 0
	ldr	r1, [r7, #16]
	ldr	r3, [r7, #12]
	ldr	r2, [r7, #36]
	lsls	r1, r1, #5
	adds	r3, r1, r3
	adds	r3, r3, #20
	lsls	r3, r3, #2
	adds	r3, r2, r3
	adds	r3, r3, #4
	ldr	r2, [r3]
	ldr	r3, [r7, #20]
	str	r2, [r3, #12]
	ldr	r1, [r7, #16]
	ldr	r3, [r7, #12]
	ldr	r2, [r7, #36]
	lsls	r1, r1, #5
	adds	r3, r1, r3
	adds	r3, r3, #20
	lsls	r3, r3, #2
	adds	r3, r2, r3
	adds	r3, r3, #4
	ldr	r3, [r3]
	cmp	r3, #0
	beq	.L83
	.loc 1 752 0 is_stmt 0 discriminator 1
	ldr	r1, [r7, #16]
	ldr	r3, [r7, #12]
	ldr	r2, [r7, #36]
	lsls	r1, r1, #5
	adds	r3, r1, r3
	adds	r3, r3, #20
	lsls	r3, r3, #2
	adds	r3, r2, r3
	adds	r3, r3, #4
	ldr	r3, [r3]
	ldr	r2, [r7, #20]
	str	r2, [r3, #8]
.L83:
	.loc 1 752 0 discriminator 3
	ldr	r1, [r7, #16]
	ldr	r3, [r7, #12]
	ldr	r2, [r7, #36]
	lsls	r1, r1, #5
	adds	r3, r1, r3
	adds	r3, r3, #20
	lsls	r3, r3, #2
	adds	r3, r2, r3
	adds	r3, r3, #4
	ldr	r2, [r7, #20]
	str	r2, [r3]
	ldr	r0, [r7, #12]
	ldr	r3, [r7, #16]
	adds	r3, r3, #4
	lsls	r3, r3, #2
	ldr	r2, [r7, #36]
	adds	r3, r2, r3
	adds	r3, r3, #4
	movs	r1, r3
	bl	set_bit
	ldr	r2, [r7, #16]
	ldr	r3, [r7, #36]
	adds	r3, r3, #16
	movs	r1, r3
	movs	r0, r2
	bl	set_bit
	.loc 1 754 0 is_stmt 1 discriminator 3
	ldr	r3, [r7, #32]
	ldr	r3, [r3, #4]
	movs	r2, #2
	ands	r2, r3
	ldr	r3, [r7, #4]
	orrs	r2, r3
	ldr	r3, [r7, #32]
	str	r2, [r3, #4]
	b	.L84
.L82:
	.loc 1 756 0
	ldr	r3, [r7, #28]
	ldr	r3, [r3, #4]
	movs	r2, #2
	bics	r3, r2
	movs	r2, r3
	ldr	r3, [r7, #28]
	str	r2, [r3, #4]
	.loc 1 757 0
	ldr	r3, [r7, #32]
	ldr	r3, [r3, #4]
	movs	r2, #1
	bics	r3, r2
	movs	r2, r3
	ldr	r3, [r7, #32]
	str	r2, [r3, #4]
.L84:
	.loc 1 760 0
	ldr	r3, [r7, #36]
	ldr	r2, [r3, #4]
	ldr	r3, [r7, #32]
	ldr	r3, [r3, #4]
	movs	r1, #3
	bics	r3, r1
	adds	r3, r2, r3
	adds	r3, r3, #8
	movs	r2, r3
	ldr	r3, [r7, #36]
	str	r2, [r3, #4]
	ldr	r3, [r7, #36]
	ldr	r2, [r3, #4]
	ldr	r3, [r7, #36]
	ldr	r3, [r3, #8]
	cmp	r2, r3
	bls	.L85
	.loc 1 760 0 is_stmt 0 discriminator 1
	ldr	r3, [r7, #36]
	ldr	r2, [r3, #4]
	ldr	r3, [r7, #36]
	str	r2, [r3, #8]
.L85:
	.loc 1 762 0 is_stmt 1
	ldr	r3, [r7, #32]
	adds	r3, r3, #8
.L86:
	.loc 1 763 0 discriminator 1
	movs	r0, r3
	mov	sp, r7
	add	sp, sp, #44
	@ sp needed
	pop	{r4, r7, pc}
	.cfi_endproc
.LFE17:
	.size	malloc_ex, .-malloc_ex
	.section	.text.free_ex,"ax",%progbits
	.align	2
	.global	free_ex
	.code	16
	.thumb_func
	.type	free_ex, %function
free_ex:
.LFB18:
	.loc 1 767 0
	.cfi_startproc
	@ args = 0, pretend = 0, frame = 32
	@ frame_needed = 1, uses_anonymous_args = 0
	push	{r4, r7, lr}
	.cfi_def_cfa_offset 12
	.cfi_offset 4, -12
	.cfi_offset 7, -8
	.cfi_offset 14, -4
	sub	sp, sp, #36
	.cfi_def_cfa_offset 48
	add	r7, sp, #0
	.cfi_def_cfa_register 7
	str	r0, [r7, #4]
	str	r1, [r7]
	.loc 1 769 0
	ldr	r3, [r7]
	str	r3, [r7, #24]
	.loc 1 771 0
	movs	r3, #0
	str	r3, [r7, #16]
	movs	r3, #0
	str	r3, [r7, #12]
	.loc 1 773 0
	ldr	r3, [r7, #4]
	cmp	r3, #0
	bne	.LCB1555
	b	.L99	@long jump
.LCB1555:
	.loc 1 776 0
	ldr	r3, [r7, #4]
	subs	r3, r3, #8
	str	r3, [r7, #28]
	.loc 1 777 0
	ldr	r3, [r7, #28]
	ldr	r3, [r3, #4]
	movs	r2, #1
	orrs	r2, r3
	ldr	r3, [r7, #28]
	str	r2, [r3, #4]
	.loc 1 779 0
	ldr	r3, [r7, #24]
	ldr	r2, [r3, #4]
	ldr	r3, [r7, #28]
	ldr	r3, [r3, #4]
	movs	r1, #3
	bics	r3, r1
	subs	r3, r2, r3
	subs	r3, r3, #8
	movs	r2, r3
	ldr	r3, [r7, #24]
	str	r2, [r3, #4]
	.loc 1 781 0
	ldr	r3, [r7, #28]
	movs	r2, #0
	str	r2, [r3, #8]
	.loc 1 782 0
	ldr	r3, [r7, #28]
	movs	r2, #0
	str	r2, [r3, #12]
	.loc 1 783 0
	ldr	r3, [r7, #28]
	adds	r3, r3, #8
	movs	r2, r3
	ldr	r3, [r7, #28]
	ldr	r3, [r3, #4]
	movs	r1, #3
	bics	r3, r1
	adds	r3, r2, r3
	str	r3, [r7, #20]
	.loc 1 784 0
	ldr	r3, [r7, #20]
	ldr	r3, [r3, #4]
	movs	r2, #1
	ands	r3, r2
	beq	.L90
	.loc 1 785 0
	ldr	r3, [r7, #20]
	ldr	r3, [r3, #4]
	movs	r2, #3
	bics	r3, r2
	movs	r2, #12
	adds	r2, r7, r2
	movs	r1, #16
	adds	r1, r7, r1
	movs	r0, r3
	bl	MAPPING_INSERT
	.loc 1 786 0
	ldr	r3, [r7, #20]
	ldr	r3, [r3, #12]
	cmp	r3, #0
	beq	.L91
	.loc 1 786 0 is_stmt 0 discriminator 1
	ldr	r3, [r7, #20]
	ldr	r3, [r3, #12]
	ldr	r2, [r7, #20]
	ldr	r2, [r2, #8]
	str	r2, [r3, #8]
.L91:
	.loc 1 786 0 discriminator 3
	ldr	r3, [r7, #20]
	ldr	r3, [r3, #8]
	cmp	r3, #0
	beq	.L92
	.loc 1 786 0 discriminator 4
	ldr	r3, [r7, #20]
	ldr	r3, [r3, #8]
	ldr	r2, [r7, #20]
	ldr	r2, [r2, #12]
	str	r2, [r3, #12]
.L92:
	.loc 1 786 0 discriminator 6
	ldr	r1, [r7, #16]
	ldr	r3, [r7, #12]
	ldr	r2, [r7, #24]
	lsls	r1, r1, #5
	adds	r3, r1, r3
	adds	r3, r3, #20
	lsls	r3, r3, #2
	adds	r3, r2, r3
	adds	r3, r3, #4
	ldr	r2, [r3]
	ldr	r3, [r7, #20]
	cmp	r2, r3
	bne	.L93
	.loc 1 786 0 discriminator 7
	ldr	r4, [r7, #16]
	ldr	r0, [r7, #12]
	ldr	r3, [r7, #20]
	ldr	r2, [r3, #12]
	ldr	r1, [r7, #24]
	lsls	r3, r4, #5
	adds	r3, r3, r0
	adds	r3, r3, #20
	lsls	r3, r3, #2
	adds	r3, r1, r3
	adds	r3, r3, #4
	str	r2, [r3]
	ldr	r1, [r7, #16]
	ldr	r3, [r7, #12]
	ldr	r2, [r7, #24]
	lsls	r1, r1, #5
	adds	r3, r1, r3
	adds	r3, r3, #20
	lsls	r3, r3, #2
	adds	r3, r2, r3
	adds	r3, r3, #4
	ldr	r3, [r3]
	cmp	r3, #0
	bne	.L93
	.loc 1 786 0 discriminator 9
	ldr	r0, [r7, #12]
	ldr	r3, [r7, #16]
	adds	r3, r3, #4
	lsls	r3, r3, #2
	ldr	r2, [r7, #24]
	adds	r3, r2, r3
	adds	r3, r3, #4
	movs	r1, r3
	bl	clear_bit
	ldr	r3, [r7, #16]
	ldr	r2, [r7, #24]
	adds	r3, r3, #4
	lsls	r3, r3, #2
	adds	r3, r2, r3
	adds	r3, r3, #4
	ldr	r3, [r3]
	cmp	r3, #0
	bne	.L93
	.loc 1 786 0 discriminator 11
	ldr	r2, [r7, #16]
	ldr	r3, [r7, #24]
	adds	r3, r3, #16
	movs	r1, r3
	movs	r0, r2
	bl	clear_bit
.L93:
	.loc 1 786 0 discriminator 13
	ldr	r3, [r7, #20]
	movs	r2, #0
	str	r2, [r3, #8]
	.loc 1 786 0 is_stmt 1 discriminator 13
	ldr	r3, [r7, #20]
	movs	r2, #0
	str	r2, [r3, #12]
	.loc 1 787 0 discriminator 13
	ldr	r3, [r7, #28]
	ldr	r2, [r3, #4]
	ldr	r3, [r7, #20]
	ldr	r3, [r3, #4]
	movs	r1, #3
	bics	r3, r1
	adds	r3, r2, r3
	adds	r3, r3, #8
	movs	r2, r3
	ldr	r3, [r7, #28]
	str	r2, [r3, #4]
.L90:
	.loc 1 789 0
	ldr	r3, [r7, #28]
	ldr	r3, [r3, #4]
	movs	r2, #2
	ands	r3, r2
	beq	.L94
	.loc 1 790 0
	ldr	r3, [r7, #28]
	ldr	r3, [r3]
	str	r3, [r7, #20]
	.loc 1 791 0
	ldr	r3, [r7, #20]
	ldr	r3, [r3, #4]
	movs	r2, #3
	bics	r3, r2
	movs	r2, #12
	adds	r2, r7, r2
	movs	r1, #16
	adds	r1, r7, r1
	movs	r0, r3
	bl	MAPPING_INSERT
	.loc 1 792 0
	ldr	r3, [r7, #20]
	ldr	r3, [r3, #12]
	cmp	r3, #0
	beq	.L95
	.loc 1 792 0 is_stmt 0 discriminator 1
	ldr	r3, [r7, #20]
	ldr	r3, [r3, #12]
	ldr	r2, [r7, #20]
	ldr	r2, [r2, #8]
	str	r2, [r3, #8]
.L95:
	.loc 1 792 0 discriminator 3
	ldr	r3, [r7, #20]
	ldr	r3, [r3, #8]
	cmp	r3, #0
	beq	.L96
	.loc 1 792 0 discriminator 4
	ldr	r3, [r7, #20]
	ldr	r3, [r3, #8]
	ldr	r2, [r7, #20]
	ldr	r2, [r2, #12]
	str	r2, [r3, #12]
.L96:
	.loc 1 792 0 discriminator 6
	ldr	r1, [r7, #16]
	ldr	r3, [r7, #12]
	ldr	r2, [r7, #24]
	lsls	r1, r1, #5
	adds	r3, r1, r3
	adds	r3, r3, #20
	lsls	r3, r3, #2
	adds	r3, r2, r3
	adds	r3, r3, #4
	ldr	r2, [r3]
	ldr	r3, [r7, #20]
	cmp	r2, r3
	bne	.L97
	.loc 1 792 0 discriminator 7
	ldr	r4, [r7, #16]
	ldr	r0, [r7, #12]
	ldr	r3, [r7, #20]
	ldr	r2, [r3, #12]
	ldr	r1, [r7, #24]
	lsls	r3, r4, #5
	adds	r3, r3, r0
	adds	r3, r3, #20
	lsls	r3, r3, #2
	adds	r3, r1, r3
	adds	r3, r3, #4
	str	r2, [r3]
	ldr	r1, [r7, #16]
	ldr	r3, [r7, #12]
	ldr	r2, [r7, #24]
	lsls	r1, r1, #5
	adds	r3, r1, r3
	adds	r3, r3, #20
	lsls	r3, r3, #2
	adds	r3, r2, r3
	adds	r3, r3, #4
	ldr	r3, [r3]
	cmp	r3, #0
	bne	.L97
	.loc 1 792 0 discriminator 9
	ldr	r0, [r7, #12]
	ldr	r3, [r7, #16]
	adds	r3, r3, #4
	lsls	r3, r3, #2
	ldr	r2, [r7, #24]
	adds	r3, r2, r3
	adds	r3, r3, #4
	movs	r1, r3
	bl	clear_bit
	ldr	r3, [r7, #16]
	ldr	r2, [r7, #24]
	adds	r3, r3, #4
	lsls	r3, r3, #2
	adds	r3, r2, r3
	adds	r3, r3, #4
	ldr	r3, [r3]
	cmp	r3, #0
	bne	.L97
	.loc 1 792 0 discriminator 11
	ldr	r2, [r7, #16]
	ldr	r3, [r7, #24]
	adds	r3, r3, #16
	movs	r1, r3
	movs	r0, r2
	bl	clear_bit
.L97:
	.loc 1 792 0 discriminator 13
	ldr	r3, [r7, #20]
	movs	r2, #0
	str	r2, [r3, #8]
	.loc 1 792 0 is_stmt 1 discriminator 13
	ldr	r3, [r7, #20]
	movs	r2, #0
	str	r2, [r3, #12]
	.loc 1 793 0 discriminator 13
	ldr	r3, [r7, #20]
	ldr	r2, [r3, #4]
	ldr	r3, [r7, #28]
	ldr	r3, [r3, #4]
	movs	r1, #3
	bics	r3, r1
	adds	r3, r2, r3
	adds	r3, r3, #8
	movs	r2, r3
	ldr	r3, [r7, #20]
	str	r2, [r3, #4]
	.loc 1 794 0 discriminator 13
	ldr	r3, [r7, #20]
	str	r3, [r7, #28]
.L94:
	.loc 1 796 0
	ldr	r3, [r7, #28]
	ldr	r3, [r3, #4]
	movs	r2, #3
	bics	r3, r2
	movs	r2, #12
	adds	r2, r7, r2
	movs	r1, #16
	adds	r1, r7, r1
	movs	r0, r3
	bl	MAPPING_INSERT
	.loc 1 797 0
	ldr	r3, [r7, #28]
	movs	r2, #0
	str	r2, [r3, #8]
	.loc 1 797 0
	ldr	r1, [r7, #16]
	ldr	r3, [r7, #12]
	ldr	r2, [r7, #24]
	lsls	r1, r1, #5
	adds	r3, r1, r3
	adds	r3, r3, #20
	lsls	r3, r3, #2
	adds	r3, r2, r3
	adds	r3, r3, #4
	ldr	r2, [r3]
	ldr	r3, [r7, #28]
	str	r2, [r3, #12]
	ldr	r1, [r7, #16]
	ldr	r3, [r7, #12]
	ldr	r2, [r7, #24]
	lsls	r1, r1, #5
	adds	r3, r1, r3
	adds	r3, r3, #20
	lsls	r3, r3, #2
	adds	r3, r2, r3
	adds	r3, r3, #4
	ldr	r3, [r3]
	cmp	r3, #0
	beq	.L98
	.loc 1 797 0 is_stmt 0 discriminator 1
	ldr	r1, [r7, #16]
	ldr	r3, [r7, #12]
	ldr	r2, [r7, #24]
	lsls	r1, r1, #5
	adds	r3, r1, r3
	adds	r3, r3, #20
	lsls	r3, r3, #2
	adds	r3, r2, r3
	adds	r3, r3, #4
	ldr	r3, [r3]
	ldr	r2, [r7, #28]
	str	r2, [r3, #8]
.L98:
	.loc 1 797 0 discriminator 3
	ldr	r1, [r7, #16]
	ldr	r3, [r7, #12]
	ldr	r2, [r7, #24]
	lsls	r1, r1, #5
	adds	r3, r1, r3
	adds	r3, r3, #20
	lsls	r3, r3, #2
	adds	r3, r2, r3
	adds	r3, r3, #4
	ldr	r2, [r7, #28]
	str	r2, [r3]
	ldr	r0, [r7, #12]
	ldr	r3, [r7, #16]
	adds	r3, r3, #4
	lsls	r3, r3, #2
	ldr	r2, [r7, #24]
	adds	r3, r2, r3
	adds	r3, r3, #4
	movs	r1, r3
	bl	set_bit
	ldr	r2, [r7, #16]
	ldr	r3, [r7, #24]
	adds	r3, r3, #16
	movs	r1, r3
	movs	r0, r2
	bl	set_bit
	.loc 1 799 0 is_stmt 1 discriminator 3
	ldr	r3, [r7, #28]
	adds	r3, r3, #8
	movs	r2, r3
	ldr	r3, [r7, #28]
	ldr	r3, [r3, #4]
	movs	r1, #3
	bics	r3, r1
	adds	r3, r2, r3
	str	r3, [r7, #20]
	.loc 1 800 0 discriminator 3
	ldr	r3, [r7, #20]
	ldr	r3, [r3, #4]
	movs	r2, #2
	orrs	r2, r3
	ldr	r3, [r7, #20]
	str	r2, [r3, #4]
	.loc 1 801 0 discriminator 3
	ldr	r3, [r7, #20]
	ldr	r2, [r7, #28]
	str	r2, [r3]
	b	.L87
.L99:
	.loc 1 774 0
	nop
.L87:
	.loc 1 802 0
	mov	sp, r7
	add	sp, sp, #36
	@ sp needed
	pop	{r4, r7, pc}
	.cfi_endproc
.LFE18:
	.size	free_ex, .-free_ex
	.section	.text.realloc_ex,"ax",%progbits
	.align	2
	.global	realloc_ex
	.code	16
	.thumb_func
	.type	realloc_ex, %function
realloc_ex:
.LFB19:
	.loc 1 806 0
	.cfi_startproc
	@ args = 0, pretend = 0, frame = 56
	@ frame_needed = 1, uses_anonymous_args = 0
	push	{r4, r7, lr}
	.cfi_def_cfa_offset 12
	.cfi_offset 4, -12
	.cfi_offset 7, -8
	.cfi_offset 14, -4
	sub	sp, sp, #60
	.cfi_def_cfa_offset 72
	add	r7, sp, #0
	.cfi_def_cfa_register 7
	str	r0, [r7, #12]
	str	r1, [r7, #8]
	str	r2, [r7, #4]
	.loc 1 808 0
	ldr	r3, [r7, #4]
	str	r3, [r7, #44]
	.loc 1 815 0
	ldr	r3, [r7, #12]
	cmp	r3, #0
	bne	.L101
	.loc 1 816 0
	ldr	r3, [r7, #8]
	cmp	r3, #0
	beq	.L102
	.loc 1 817 0
	ldr	r2, [r7, #4]
	ldr	r3, [r7, #8]
	movs	r1, r2
	movs	r0, r3
	bl	malloc_ex
	movs	r3, r0
	b	.L124
.L102:
	.loc 1 818 0
	movs	r3, #0
	b	.L124
.L101:
	.loc 1 819 0
	ldr	r3, [r7, #8]
	cmp	r3, #0
	bne	.L104
	.loc 1 820 0
	ldr	r2, [r7, #4]
	ldr	r3, [r7, #12]
	movs	r1, r2
	movs	r0, r3
	bl	free_ex
	.loc 1 821 0
	movs	r3, #0
	b	.L124
.L104:
	.loc 1 824 0
	ldr	r3, [r7, #12]
	subs	r3, r3, #8
	str	r3, [r7, #40]
	.loc 1 825 0
	ldr	r3, [r7, #40]
	adds	r3, r3, #8
	movs	r2, r3
	ldr	r3, [r7, #40]
	ldr	r3, [r3, #4]
	movs	r1, #3
	bics	r3, r1
	adds	r3, r2, r3
	str	r3, [r7, #52]
	.loc 1 826 0
	ldr	r3, [r7, #8]
	cmp	r3, #7
	bls	.L105
	.loc 1 826 0 is_stmt 0 discriminator 1
	ldr	r3, [r7, #8]
	adds	r3, r3, #7
	movs	r2, #7
	bics	r3, r2
	b	.L106
.L105:
	.loc 1 826 0 discriminator 2
	movs	r3, #8
.L106:
	.loc 1 826 0 discriminator 4
	str	r3, [r7, #8]
	.loc 1 827 0 is_stmt 1 discriminator 4
	ldr	r3, [r7, #40]
	ldr	r3, [r3, #4]
	movs	r2, #3
	bics	r3, r2
	str	r3, [r7, #48]
	.loc 1 828 0 discriminator 4
	ldr	r2, [r7, #8]
	ldr	r3, [r7, #48]
	cmp	r2, r3
	bls	.LCB2035
	b	.L107	@long jump
.LCB2035:
	.loc 1 829 0
	ldr	r3, [r7, #44]
	ldr	r2, [r3, #4]
	ldr	r3, [r7, #40]
	ldr	r3, [r3, #4]
	movs	r1, #3
	bics	r3, r1
	subs	r3, r2, r3
	subs	r3, r3, #8
	movs	r2, r3
	ldr	r3, [r7, #44]
	str	r2, [r3, #4]
	.loc 1 830 0
	ldr	r3, [r7, #52]
	ldr	r3, [r3, #4]
	movs	r2, #1
	ands	r3, r2
	beq	.L108
	.loc 1 831 0
	ldr	r3, [r7, #52]
	ldr	r3, [r3, #4]
	movs	r2, #3
	bics	r3, r2
	movs	r2, #20
	adds	r2, r7, r2
	movs	r1, #24
	adds	r1, r7, r1
	movs	r0, r3
	bl	MAPPING_INSERT
	.loc 1 832 0
	ldr	r3, [r7, #52]
	ldr	r3, [r3, #12]
	cmp	r3, #0
	beq	.L109
	.loc 1 832 0 is_stmt 0 discriminator 1
	ldr	r3, [r7, #52]
	ldr	r3, [r3, #12]
	ldr	r2, [r7, #52]
	ldr	r2, [r2, #8]
	str	r2, [r3, #8]
.L109:
	.loc 1 832 0 discriminator 3
	ldr	r3, [r7, #52]
	ldr	r3, [r3, #8]
	cmp	r3, #0
	beq	.L110
	.loc 1 832 0 discriminator 4
	ldr	r3, [r7, #52]
	ldr	r3, [r3, #8]
	ldr	r2, [r7, #52]
	ldr	r2, [r2, #12]
	str	r2, [r3, #12]
.L110:
	.loc 1 832 0 discriminator 6
	ldr	r1, [r7, #24]
	ldr	r3, [r7, #20]
	ldr	r2, [r7, #44]
	lsls	r1, r1, #5
	adds	r3, r1, r3
	adds	r3, r3, #20
	lsls	r3, r3, #2
	adds	r3, r2, r3
	adds	r3, r3, #4
	ldr	r2, [r3]
	ldr	r3, [r7, #52]
	cmp	r2, r3
	bne	.L111
	.loc 1 832 0 discriminator 7
	ldr	r4, [r7, #24]
	ldr	r0, [r7, #20]
	ldr	r3, [r7, #52]
	ldr	r2, [r3, #12]
	ldr	r1, [r7, #44]
	lsls	r3, r4, #5
	adds	r3, r3, r0
	adds	r3, r3, #20
	lsls	r3, r3, #2
	adds	r3, r1, r3
	adds	r3, r3, #4
	str	r2, [r3]
	ldr	r1, [r7, #24]
	ldr	r3, [r7, #20]
	ldr	r2, [r7, #44]
	lsls	r1, r1, #5
	adds	r3, r1, r3
	adds	r3, r3, #20
	lsls	r3, r3, #2
	adds	r3, r2, r3
	adds	r3, r3, #4
	ldr	r3, [r3]
	cmp	r3, #0
	bne	.L111
	.loc 1 832 0 discriminator 9
	ldr	r0, [r7, #20]
	ldr	r3, [r7, #24]
	adds	r3, r3, #4
	lsls	r3, r3, #2
	ldr	r2, [r7, #44]
	adds	r3, r2, r3
	adds	r3, r3, #4
	movs	r1, r3
	bl	clear_bit
	ldr	r3, [r7, #24]
	ldr	r2, [r7, #44]
	adds	r3, r3, #4
	lsls	r3, r3, #2
	adds	r3, r2, r3
	adds	r3, r3, #4
	ldr	r3, [r3]
	cmp	r3, #0
	bne	.L111
	.loc 1 832 0 discriminator 11
	ldr	r2, [r7, #24]
	ldr	r3, [r7, #44]
	adds	r3, r3, #16
	movs	r1, r3
	movs	r0, r2
	bl	clear_bit
.L111:
	.loc 1 832 0 discriminator 13
	ldr	r3, [r7, #52]
	movs	r2, #0
	str	r2, [r3, #8]
	.loc 1 832 0 is_stmt 1 discriminator 13
	ldr	r3, [r7, #52]
	movs	r2, #0
	str	r2, [r3, #12]
	.loc 1 833 0 discriminator 13
	ldr	r3, [r7, #52]
	ldr	r3, [r3, #4]
	movs	r2, #3
	bics	r3, r2
	movs	r2, r3
	ldr	r3, [r7, #48]
	adds	r3, r2, r3
	adds	r3, r3, #8
	str	r3, [r7, #48]
	.loc 1 834 0 discriminator 13
	ldr	r3, [r7, #52]
	adds	r3, r3, #8
	movs	r2, r3
	ldr	r3, [r7, #52]
	ldr	r3, [r3, #4]
	movs	r1, #3
	bics	r3, r1
	adds	r3, r2, r3
	str	r3, [r7, #52]
.L108:
	.loc 1 838 0
	ldr	r2, [r7, #48]
	ldr	r3, [r7, #8]
	subs	r3, r2, r3
	str	r3, [r7, #48]
	.loc 1 839 0
	ldr	r3, [r7, #48]
	cmp	r3, #15
	bls	.L112
	.loc 1 840 0
	ldr	r3, [r7, #48]
	subs	r3, r3, #8
	str	r3, [r7, #48]
	.loc 1 841 0
	ldr	r3, [r7, #40]
	adds	r3, r3, #8
	movs	r2, r3
	ldr	r3, [r7, #8]
	adds	r3, r2, r3
	str	r3, [r7, #36]
	.loc 1 842 0
	ldr	r3, [r7, #48]
	movs	r2, #1
	orrs	r2, r3
	ldr	r3, [r7, #36]
	str	r2, [r3, #4]
	.loc 1 843 0
	ldr	r3, [r7, #52]
	ldr	r2, [r7, #36]
	str	r2, [r3]
	.loc 1 844 0
	ldr	r3, [r7, #52]
	ldr	r3, [r3, #4]
	movs	r2, #2
	orrs	r2, r3
	ldr	r3, [r7, #52]
	str	r2, [r3, #4]
	.loc 1 845 0
	movs	r3, #20
	adds	r2, r7, r3
	movs	r3, #24
	adds	r1, r7, r3
	ldr	r3, [r7, #48]
	movs	r0, r3
	bl	MAPPING_INSERT
	.loc 1 846 0
	ldr	r3, [r7, #36]
	movs	r2, #0
	str	r2, [r3, #8]
	.loc 1 846 0
	ldr	r1, [r7, #24]
	ldr	r3, [r7, #20]
	ldr	r2, [r7, #44]
	lsls	r1, r1, #5
	adds	r3, r1, r3
	adds	r3, r3, #20
	lsls	r3, r3, #2
	adds	r3, r2, r3
	adds	r3, r3, #4
	ldr	r2, [r3]
	ldr	r3, [r7, #36]
	str	r2, [r3, #12]
	ldr	r1, [r7, #24]
	ldr	r3, [r7, #20]
	ldr	r2, [r7, #44]
	lsls	r1, r1, #5
	adds	r3, r1, r3
	adds	r3, r3, #20
	lsls	r3, r3, #2
	adds	r3, r2, r3
	adds	r3, r3, #4
	ldr	r3, [r3]
	cmp	r3, #0
	beq	.L113
	.loc 1 846 0 is_stmt 0 discriminator 1
	ldr	r1, [r7, #24]
	ldr	r3, [r7, #20]
	ldr	r2, [r7, #44]
	lsls	r1, r1, #5
	adds	r3, r1, r3
	adds	r3, r3, #20
	lsls	r3, r3, #2
	adds	r3, r2, r3
	adds	r3, r3, #4
	ldr	r3, [r3]
	ldr	r2, [r7, #36]
	str	r2, [r3, #8]
.L113:
	.loc 1 846 0 discriminator 3
	ldr	r1, [r7, #24]
	ldr	r3, [r7, #20]
	ldr	r2, [r7, #44]
	lsls	r1, r1, #5
	adds	r3, r1, r3
	adds	r3, r3, #20
	lsls	r3, r3, #2
	adds	r3, r2, r3
	adds	r3, r3, #4
	ldr	r2, [r7, #36]
	str	r2, [r3]
	ldr	r0, [r7, #20]
	ldr	r3, [r7, #24]
	adds	r3, r3, #4
	lsls	r3, r3, #2
	ldr	r2, [r7, #44]
	adds	r3, r2, r3
	adds	r3, r3, #4
	movs	r1, r3
	bl	set_bit
	ldr	r2, [r7, #24]
	ldr	r3, [r7, #44]
	adds	r3, r3, #16
	movs	r1, r3
	movs	r0, r2
	bl	set_bit
	.loc 1 847 0 is_stmt 1 discriminator 3
	ldr	r3, [r7, #40]
	ldr	r3, [r3, #4]
	movs	r2, #2
	ands	r2, r3
	ldr	r3, [r7, #8]
	orrs	r2, r3
	ldr	r3, [r7, #40]
	str	r2, [r3, #4]
.L112:
	.loc 1 849 0
	ldr	r3, [r7, #44]
	ldr	r2, [r3, #4]
	ldr	r3, [r7, #40]
	ldr	r3, [r3, #4]
	movs	r1, #3
	bics	r3, r1
	adds	r3, r2, r3
	adds	r3, r3, #8
	movs	r2, r3
	ldr	r3, [r7, #44]
	str	r2, [r3, #4]
	ldr	r3, [r7, #44]
	ldr	r2, [r3, #4]
	ldr	r3, [r7, #44]
	ldr	r3, [r3, #8]
	cmp	r2, r3
	bls	.L114
	.loc 1 849 0 is_stmt 0 discriminator 1
	ldr	r3, [r7, #44]
	ldr	r2, [r3, #4]
	ldr	r3, [r7, #44]
	str	r2, [r3, #8]
.L114:
	.loc 1 850 0 is_stmt 1
	ldr	r3, [r7, #40]
	adds	r3, r3, #8
	b	.L124
.L107:
	.loc 1 852 0
	ldr	r3, [r7, #52]
	ldr	r3, [r3, #4]
	movs	r2, #1
	ands	r3, r2
	bne	.LCB2322
	b	.L115	@long jump
.LCB2322:
	.loc 1 853 0
	ldr	r3, [r7, #52]
	ldr	r3, [r3, #4]
	movs	r2, #3
	bics	r3, r2
	movs	r2, r3
	ldr	r3, [r7, #48]
	adds	r2, r2, r3
	ldr	r3, [r7, #8]
	cmp	r2, r3
	bcs	.LCB2332
	b	.L115	@long jump
.LCB2332:
	.loc 1 854 0
	ldr	r3, [r7, #44]
	ldr	r2, [r3, #4]
	ldr	r3, [r7, #40]
	ldr	r3, [r3, #4]
	movs	r1, #3
	bics	r3, r1
	subs	r3, r2, r3
	subs	r3, r3, #8
	movs	r2, r3
	ldr	r3, [r7, #44]
	str	r2, [r3, #4]
	.loc 1 855 0
	ldr	r3, [r7, #52]
	ldr	r3, [r3, #4]
	movs	r2, #3
	bics	r3, r2
	movs	r2, #20
	adds	r2, r7, r2
	movs	r1, #24
	adds	r1, r7, r1
	movs	r0, r3
	bl	MAPPING_INSERT
	.loc 1 856 0
	ldr	r3, [r7, #52]
	ldr	r3, [r3, #12]
	cmp	r3, #0
	beq	.L116
	.loc 1 856 0 is_stmt 0 discriminator 1
	ldr	r3, [r7, #52]
	ldr	r3, [r3, #12]
	ldr	r2, [r7, #52]
	ldr	r2, [r2, #8]
	str	r2, [r3, #8]
.L116:
	.loc 1 856 0 discriminator 3
	ldr	r3, [r7, #52]
	ldr	r3, [r3, #8]
	cmp	r3, #0
	beq	.L117
	.loc 1 856 0 discriminator 4
	ldr	r3, [r7, #52]
	ldr	r3, [r3, #8]
	ldr	r2, [r7, #52]
	ldr	r2, [r2, #12]
	str	r2, [r3, #12]
.L117:
	.loc 1 856 0 discriminator 6
	ldr	r1, [r7, #24]
	ldr	r3, [r7, #20]
	ldr	r2, [r7, #44]
	lsls	r1, r1, #5
	adds	r3, r1, r3
	adds	r3, r3, #20
	lsls	r3, r3, #2
	adds	r3, r2, r3
	adds	r3, r3, #4
	ldr	r2, [r3]
	ldr	r3, [r7, #52]
	cmp	r2, r3
	bne	.L118
	.loc 1 856 0 discriminator 7
	ldr	r4, [r7, #24]
	ldr	r0, [r7, #20]
	ldr	r3, [r7, #52]
	ldr	r2, [r3, #12]
	ldr	r1, [r7, #44]
	lsls	r3, r4, #5
	adds	r3, r3, r0
	adds	r3, r3, #20
	lsls	r3, r3, #2
	adds	r3, r1, r3
	adds	r3, r3, #4
	str	r2, [r3]
	ldr	r1, [r7, #24]
	ldr	r3, [r7, #20]
	ldr	r2, [r7, #44]
	lsls	r1, r1, #5
	adds	r3, r1, r3
	adds	r3, r3, #20
	lsls	r3, r3, #2
	adds	r3, r2, r3
	adds	r3, r3, #4
	ldr	r3, [r3]
	cmp	r3, #0
	bne	.L118
	.loc 1 856 0 discriminator 9
	ldr	r0, [r7, #20]
	ldr	r3, [r7, #24]
	adds	r3, r3, #4
	lsls	r3, r3, #2
	ldr	r2, [r7, #44]
	adds	r3, r2, r3
	adds	r3, r3, #4
	movs	r1, r3
	bl	clear_bit
	ldr	r3, [r7, #24]
	ldr	r2, [r7, #44]
	adds	r3, r3, #4
	lsls	r3, r3, #2
	adds	r3, r2, r3
	adds	r3, r3, #4
	ldr	r3, [r3]
	cmp	r3, #0
	bne	.L118
	.loc 1 856 0 discriminator 11
	ldr	r2, [r7, #24]
	ldr	r3, [r7, #44]
	adds	r3, r3, #16
	movs	r1, r3
	movs	r0, r2
	bl	clear_bit
.L118:
	.loc 1 856 0 discriminator 13
	ldr	r3, [r7, #52]
	movs	r2, #0
	str	r2, [r3, #8]
	.loc 1 856 0 is_stmt 1 discriminator 13
	ldr	r3, [r7, #52]
	movs	r2, #0
	str	r2, [r3, #12]
	.loc 1 857 0 discriminator 13
	ldr	r3, [r7, #40]
	ldr	r2, [r3, #4]
	ldr	r3, [r7, #52]
	ldr	r3, [r3, #4]
	movs	r1, #3
	bics	r3, r1
	adds	r3, r2, r3
	adds	r3, r3, #8
	movs	r2, r3
	ldr	r3, [r7, #40]
	str	r2, [r3, #4]
	.loc 1 858 0 discriminator 13
	ldr	r3, [r7, #40]
	adds	r3, r3, #8
	movs	r2, r3
	ldr	r3, [r7, #40]
	ldr	r3, [r3, #4]
	movs	r1, #3
	bics	r3, r1
	adds	r3, r2, r3
	str	r3, [r7, #52]
	.loc 1 859 0 discriminator 13
	ldr	r3, [r7, #52]
	ldr	r2, [r7, #40]
	str	r2, [r3]
	.loc 1 860 0 discriminator 13
	ldr	r3, [r7, #52]
	ldr	r3, [r3, #4]
	movs	r2, #2
	bics	r3, r2
	movs	r2, r3
	ldr	r3, [r7, #52]
	str	r2, [r3, #4]
	.loc 1 861 0 discriminator 13
	ldr	r3, [r7, #40]
	ldr	r3, [r3, #4]
	movs	r2, #3
	bics	r3, r2
	movs	r2, r3
	ldr	r3, [r7, #8]
	subs	r3, r2, r3
	str	r3, [r7, #48]
	.loc 1 862 0 discriminator 13
	ldr	r3, [r7, #48]
	cmp	r3, #15
	bls	.L119
	.loc 1 863 0
	ldr	r3, [r7, #48]
	subs	r3, r3, #8
	str	r3, [r7, #48]
	.loc 1 864 0
	ldr	r3, [r7, #40]
	adds	r3, r3, #8
	movs	r2, r3
	ldr	r3, [r7, #8]
	adds	r3, r2, r3
	str	r3, [r7, #36]
	.loc 1 865 0
	ldr	r3, [r7, #48]
	movs	r2, #1
	orrs	r2, r3
	ldr	r3, [r7, #36]
	str	r2, [r3, #4]
	.loc 1 866 0
	ldr	r3, [r7, #52]
	ldr	r2, [r7, #36]
	str	r2, [r3]
	.loc 1 867 0
	ldr	r3, [r7, #52]
	ldr	r3, [r3, #4]
	movs	r2, #2
	orrs	r2, r3
	ldr	r3, [r7, #52]
	str	r2, [r3, #4]
	.loc 1 868 0
	movs	r3, #20
	adds	r2, r7, r3
	movs	r3, #24
	adds	r1, r7, r3
	ldr	r3, [r7, #48]
	movs	r0, r3
	bl	MAPPING_INSERT
	.loc 1 869 0
	ldr	r3, [r7, #36]
	movs	r2, #0
	str	r2, [r3, #8]
	.loc 1 869 0
	ldr	r1, [r7, #24]
	ldr	r3, [r7, #20]
	ldr	r2, [r7, #44]
	lsls	r1, r1, #5
	adds	r3, r1, r3
	adds	r3, r3, #20
	lsls	r3, r3, #2
	adds	r3, r2, r3
	adds	r3, r3, #4
	ldr	r2, [r3]
	ldr	r3, [r7, #36]
	str	r2, [r3, #12]
	ldr	r1, [r7, #24]
	ldr	r3, [r7, #20]
	ldr	r2, [r7, #44]
	lsls	r1, r1, #5
	adds	r3, r1, r3
	adds	r3, r3, #20
	lsls	r3, r3, #2
	adds	r3, r2, r3
	adds	r3, r3, #4
	ldr	r3, [r3]
	cmp	r3, #0
	beq	.L120
	.loc 1 869 0 is_stmt 0 discriminator 1
	ldr	r1, [r7, #24]
	ldr	r3, [r7, #20]
	ldr	r2, [r7, #44]
	lsls	r1, r1, #5
	adds	r3, r1, r3
	adds	r3, r3, #20
	lsls	r3, r3, #2
	adds	r3, r2, r3
	adds	r3, r3, #4
	ldr	r3, [r3]
	ldr	r2, [r7, #36]
	str	r2, [r3, #8]
.L120:
	.loc 1 869 0 discriminator 3
	ldr	r1, [r7, #24]
	ldr	r3, [r7, #20]
	ldr	r2, [r7, #44]
	lsls	r1, r1, #5
	adds	r3, r1, r3
	adds	r3, r3, #20
	lsls	r3, r3, #2
	adds	r3, r2, r3
	adds	r3, r3, #4
	ldr	r2, [r7, #36]
	str	r2, [r3]
	ldr	r0, [r7, #20]
	ldr	r3, [r7, #24]
	adds	r3, r3, #4
	lsls	r3, r3, #2
	ldr	r2, [r7, #44]
	adds	r3, r2, r3
	adds	r3, r3, #4
	movs	r1, r3
	bl	set_bit
	ldr	r2, [r7, #24]
	ldr	r3, [r7, #44]
	adds	r3, r3, #16
	movs	r1, r3
	movs	r0, r2
	bl	set_bit
	.loc 1 870 0 is_stmt 1 discriminator 3
	ldr	r3, [r7, #40]
	ldr	r3, [r3, #4]
	movs	r2, #2
	ands	r2, r3
	ldr	r3, [r7, #8]
	orrs	r2, r3
	ldr	r3, [r7, #40]
	str	r2, [r3, #4]
.L119:
	.loc 1 872 0
	ldr	r3, [r7, #44]
	ldr	r2, [r3, #4]
	ldr	r3, [r7, #40]
	ldr	r3, [r3, #4]
	movs	r1, #3
	bics	r3, r1
	adds	r3, r2, r3
	adds	r3, r3, #8
	movs	r2, r3
	ldr	r3, [r7, #44]
	str	r2, [r3, #4]
	ldr	r3, [r7, #44]
	ldr	r2, [r3, #4]
	ldr	r3, [r7, #44]
	ldr	r3, [r3, #8]
	cmp	r2, r3
	bls	.L121
	.loc 1 872 0 is_stmt 0 discriminator 1
	ldr	r3, [r7, #44]
	ldr	r2, [r3, #4]
	ldr	r3, [r7, #44]
	str	r2, [r3, #8]
.L121:
	.loc 1 873 0 is_stmt 1
	ldr	r3, [r7, #40]
	adds	r3, r3, #8
	b	.L124
.L115:
	.loc 1 877 0
	ldr	r2, [r7, #4]
	ldr	r3, [r7, #8]
	movs	r1, r2
	movs	r0, r3
	bl	malloc_ex
	movs	r3, r0
	str	r3, [r7, #32]
	ldr	r3, [r7, #32]
	cmp	r3, #0
	bne	.L122
	.loc 1 878 0
	movs	r3, #0
	b	.L124
.L122:
	.loc 1 881 0
	ldr	r3, [r7, #40]
	ldr	r3, [r3, #4]
	movs	r2, #3
	bics	r3, r2
	ldr	r2, [r7, #8]
	cmp	r3, r2
	bls	.L123
	movs	r3, r2
.L123:
	str	r3, [r7, #28]
	.loc 1 883 0
	ldr	r2, [r7, #28]
	ldr	r1, [r7, #12]
	ldr	r3, [r7, #32]
	movs	r0, r3
	bl	memcpy
	.loc 1 885 0
	ldr	r2, [r7, #4]
	ldr	r3, [r7, #12]
	movs	r1, r2
	movs	r0, r3
	bl	free_ex
	.loc 1 886 0
	ldr	r3, [r7, #32]
.L124:
	.loc 1 887 0 discriminator 1
	movs	r0, r3
	mov	sp, r7
	add	sp, sp, #60
	@ sp needed
	pop	{r4, r7, pc}
	.cfi_endproc
.LFE19:
	.size	realloc_ex, .-realloc_ex
	.section	.text.calloc_ex,"ax",%progbits
	.align	2
	.global	calloc_ex
	.code	16
	.thumb_func
	.type	calloc_ex, %function
calloc_ex:
.LFB20:
	.loc 1 892 0
	.cfi_startproc
	@ args = 0, pretend = 0, frame = 24
	@ frame_needed = 1, uses_anonymous_args = 0
	push	{r7, lr}
	.cfi_def_cfa_offset 8
	.cfi_offset 7, -8
	.cfi_offset 14, -4
	sub	sp, sp, #24
	.cfi_def_cfa_offset 32
	add	r7, sp, #0
	.cfi_def_cfa_register 7
	str	r0, [r7, #12]
	str	r1, [r7, #8]
	str	r2, [r7, #4]
	.loc 1 896 0
	ldr	r3, [r7, #12]
	cmp	r3, #0
	beq	.L126
	.loc 1 896 0 is_stmt 0 discriminator 1
	ldr	r3, [r7, #8]
	cmp	r3, #0
	bne	.L127
.L126:
	.loc 1 897 0 is_stmt 1
	movs	r3, #0
	b	.L128
.L127:
	.loc 1 899 0
	ldr	r3, [r7, #12]
	ldr	r2, [r7, #8]
	muls	r3, r2
	ldr	r2, [r7, #4]
	movs	r1, r2
	movs	r0, r3
	bl	malloc_ex
	movs	r3, r0
	str	r3, [r7, #20]
	ldr	r3, [r7, #20]
	cmp	r3, #0
	bne	.L129
	.loc 1 900 0
	movs	r3, #0
	b	.L128
.L129:
	.loc 1 901 0
	ldr	r3, [r7, #12]
	ldr	r2, [r7, #8]
	muls	r2, r3
	ldr	r3, [r7, #20]
	movs	r1, #0
	movs	r0, r3
	bl	memset
	.loc 1 903 0
	ldr	r3, [r7, #20]
.L128:
	.loc 1 904 0
	movs	r0, r3
	mov	sp, r7
	add	sp, sp, #24
	@ sp needed
	pop	{r7, pc}
	.cfi_endproc
.LFE20:
	.size	calloc_ex, .-calloc_ex
	.text
.Letext0:
	.file 2 "d:\\1.11\\share\\em_armgcc\\lib\\gcc\\arm-none-eabi\\5.4.1\\include\\stddef.h"