	.syntax unified
	.cpu arm9e
	.fpu softvfp
	.eabi_attribute 20, 1
	.eabi_attribute 21, 1
	.eabi_attribute 23, 3
	.eabi_attribute 24, 1
	.eabi_attribute 25, 1
	.eabi_attribute 26, 1
	.eabi_attribute 30, 6
	.eabi_attribute 34, 0
	.eabi_attribute 18, 4
	.thumb
	.syntax unified
	.file	"ft6236.c"
	.text
.Ltext0:
	.cfi_sections	.debug_frame
	.comm	FT6236_PenPressed,2,4
	.comm	FT6326_PenCoordinates,8,4
	.section	.text.FT6236_ReadData,"ax",%progbits
	.align	2
	.global	FT6236_ReadData
	.code	16
	.thumb_func
	.type	FT6236_ReadData, %function
FT6236_ReadData:
.LFB1:
	.file 1 "Source\\Application\\Drivers\\ft6236.c"
	.loc 1 45 0
	.cfi_startproc
	@ args = 0, pretend = 0, frame = 376
	@ frame_needed = 1, uses_anonymous_args = 0
	push	{r7, lr}
	.cfi_def_cfa_offset 8
	.cfi_offset 7, -8
	.cfi_offset 14, -4
	sub	sp, sp, #376
	.cfi_def_cfa_offset 384
	add	r7, sp, #0
	.cfi_def_cfa_register 7
	str	r1, [r7, #8]
	str	r2, [r7, #4]
	ldr	r3, .L153
	movs	r2, #188
	lsls	r2, r2, #1
	mov	ip, r2
	add	ip, ip, r7
	add	r3, r3, ip
	adds	r2, r0, #0
	strb	r2, [r3]
	.loc 1 46 0
	ldr	r3, [r7, #8]
	cmp	r3, #0
	bne	.L2
	.loc 1 46 0 discriminator 1
	movs	r3, #0
	bl	.L3	@ far jump
.L2:
	.loc 1 47 0
	ldr	r3, [r7, #4]
	cmp	r3, #0
	bne	.LCB32
	bl	.L4	@far jump
.LCB32:
.LBB2:
.LBB3:
	.loc 1 51 0
	movs	r3, #120
	adds	r3, r3, #255
	adds	r3, r7, r3
	movs	r2, #1
	strb	r2, [r3]
	ldr	r3, [r7, #8]
	movs	r2, #184
	lsls	r2, r2, #1
	adds	r2, r7, r2
	str	r3, [r2]
	movs	r3, #112
	adds	r3, r3, #255
	adds	r3, r7, r3
	ldr	r2, [r7, #4]
	strb	r2, [r3]
.LBB4:
	movs	r3, #15
	movs	r2, #164
	lsls	r2, r2, #1
	adds	r2, r7, r2
	str	r3, [r2]
	movs	r3, #164
	lsls	r3, r3, #1
	adds	r3, r7, r3
	ldr	r3, [r3]
	cmp	r3, #31
	bgt	.L5
	.loc 1 51 0 is_stmt 0 discriminator 1
	ldr	r3, .L153+4
	movs	r1, #1
	movs	r2, #164
	lsls	r2, r2, #1
	adds	r2, r7, r2
	ldr	r2, [r2]
	lsls	r1, r1, r2
	movs	r2, r1
	str	r2, [r3]
	b	.L6
.L5:
	.loc 1 51 0 discriminator 2
	movs	r3, #164
	lsls	r3, r3, #1
	adds	r3, r7, r3
	ldr	r3, [r3]
	cmp	r3, #63
	bgt	.L6
	.loc 1 51 0 discriminator 4
	ldr	r3, .L153+8
	movs	r2, #164
	lsls	r2, r2, #1
	adds	r2, r7, r2
	ldr	r2, [r2]
	subs	r2, r2, #32
	movs	r1, #1
	lsls	r1, r1, r2
	movs	r2, r1
	str	r2, [r3]
.L6:
.LBE4:
.LBB5:
	.loc 1 51 0 discriminator 6
	movs	r3, #14
	movs	r2, #162
	lsls	r2, r2, #1
	adds	r2, r7, r2
	str	r3, [r2]
	movs	r3, #162
	lsls	r3, r3, #1
	adds	r3, r7, r3
	ldr	r3, [r3]
	cmp	r3, #31
	bgt	.L7
	.loc 1 51 0 discriminator 7
	ldr	r3, .L153+4
	movs	r1, #1
	movs	r2, #162
	lsls	r2, r2, #1
	adds	r2, r7, r2
	ldr	r2, [r2]
	lsls	r1, r1, r2
	movs	r2, r1
	str	r2, [r3]
	b	.L8
.L7:
	.loc 1 51 0 discriminator 8
	movs	r3, #162
	lsls	r3, r3, #1
	adds	r3, r7, r3
	ldr	r3, [r3]
	cmp	r3, #63
	bgt	.L8
	.loc 1 51 0 discriminator 10
	ldr	r3, .L153+8
	movs	r2, #162
	lsls	r2, r2, #1
	adds	r2, r7, r2
	ldr	r2, [r2]
	subs	r2, r2, #32
	movs	r1, #1
	lsls	r1, r1, r2
	movs	r2, r1
	str	r2, [r3]
.L8:
.LBE5:
	.loc 1 51 0 discriminator 12
	movs	r0, #1
	bl	USC_Pause_us
.LBB6:
	movs	r3, #15
	movs	r2, #160
	lsls	r2, r2, #1
	adds	r2, r7, r2
	str	r3, [r2]
	movs	r3, #160
	lsls	r3, r3, #1
	adds	r3, r7, r3
	ldr	r3, [r3]
	cmp	r3, #31
	bgt	.L9
	.loc 1 51 0 discriminator 13
	movs	r2, #1
	movs	r3, #160
	lsls	r3, r3, #1
	adds	r3, r7, r3
	ldr	r3, [r3]
	lsls	r2, r2, r3
	movs	r3, r2
	movs	r2, #158
	lsls	r2, r2, #1
	adds	r2, r7, r2
	str	r3, [r2]
	ldr	r3, .L153+12
	movs	r2, #158
	lsls	r2, r2, #1
	adds	r2, r7, r2
	ldr	r2, [r2]
	str	r2, [r3]
	b	.L10
.L9:
	.loc 1 51 0 discriminator 14
	movs	r3, #160
	lsls	r3, r3, #1
	adds	r3, r7, r3
	ldr	r3, [r3]
	cmp	r3, #63
	bgt	.L10
	.loc 1 51 0 discriminator 16
	movs	r3, #160
	lsls	r3, r3, #1
	adds	r3, r7, r3
	ldr	r3, [r3]
	subs	r3, r3, #32
	movs	r2, #1
	lsls	r2, r2, r3
	movs	r3, r2
	movs	r2, #158
	lsls	r2, r2, #1
	adds	r2, r7, r2
	str	r3, [r2]
	ldr	r3, .L153+16
	movs	r2, #158
	lsls	r2, r2, #1
	adds	r2, r7, r2
	ldr	r2, [r2]
	str	r2, [r3]
.L10:
.LBE6:
.LBB7:
	.loc 1 51 0 discriminator 18
	movs	r3, #15
	movs	r2, #156
	lsls	r2, r2, #1
	adds	r2, r7, r2
	str	r3, [r2]
	movs	r3, #156
	lsls	r3, r3, #1
	adds	r3, r7, r3
	ldr	r3, [r3]
	cmp	r3, #31
	bgt	.L11
	.loc 1 51 0 discriminator 19
	ldr	r3, .L153+20
	movs	r1, #1
	movs	r2, #156
	lsls	r2, r2, #1
	adds	r2, r7, r2
	ldr	r2, [r2]
	lsls	r1, r1, r2
	movs	r2, r1
	str	r2, [r3]
	b	.L12
.L11:
	.loc 1 51 0 discriminator 20
	movs	r3, #156
	lsls	r3, r3, #1
	adds	r3, r7, r3
	ldr	r3, [r3]
	cmp	r3, #63
	bgt	.L12
	.loc 1 51 0 discriminator 22
	ldr	r3, .L153+24
	movs	r2, #156
	lsls	r2, r2, #1
	adds	r2, r7, r2
	ldr	r2, [r2]
	subs	r2, r2, #32
	movs	r1, #1
	lsls	r1, r1, r2
	movs	r2, r1
	str	r2, [r3]
.L12:
.LBE7:
	.loc 1 51 0 discriminator 24
	movs	r0, #1
	bl	USC_Pause_us
.LBB8:
	movs	r3, #14
	movs	r2, #154
	lsls	r2, r2, #1
	adds	r2, r7, r2
	str	r3, [r2]
	movs	r3, #154
	lsls	r3, r3, #1
	adds	r3, r7, r3
	ldr	r3, [r3]
	cmp	r3, #31
	bgt	.L13
	.loc 1 51 0 discriminator 25
	movs	r2, #1
	movs	r3, #154
	lsls	r3, r3, #1
	adds	r3, r7, r3
	ldr	r3, [r3]
	lsls	r2, r2, r3
	movs	r3, r2
	movs	r2, #152
	lsls	r2, r2, #1
	adds	r2, r7, r2
	str	r3, [r2]
	ldr	r3, .L153+12
	movs	r2, #152
	lsls	r2, r2, #1
	adds	r2, r7, r2
	ldr	r2, [r2]
	str	r2, [r3]
	b	.L14
.L13:
	.loc 1 51 0 discriminator 26
	movs	r3, #154
	lsls	r3, r3, #1
	adds	r3, r7, r3
	ldr	r3, [r3]
	cmp	r3, #63
	bgt	.L14
	.loc 1 51 0 discriminator 28
	movs	r3, #154
	lsls	r3, r3, #1
	adds	r3, r7, r3
	ldr	r3, [r3]
	subs	r3, r3, #32
	movs	r2, #1
	lsls	r2, r2, r3
	movs	r3, r2
	movs	r2, #152
	lsls	r2, r2, #1
	adds	r2, r7, r2
	str	r3, [r2]
	ldr	r3, .L153+16
	movs	r2, #152
	lsls	r2, r2, #1
	adds	r2, r7, r2
	ldr	r2, [r2]
	str	r2, [r3]
.L14:
.LBE8:
.LBB9:
	.loc 1 51 0 discriminator 30
	movs	r3, #14
	movs	r2, #150
	lsls	r2, r2, #1
	adds	r2, r7, r2
	str	r3, [r2]
	movs	r3, #150
	lsls	r3, r3, #1
	adds	r3, r7, r3
	ldr	r3, [r3]
	cmp	r3, #31
	bgt	.L15
	.loc 1 51 0 discriminator 31
	ldr	r3, .L153+20
	movs	r1, #1
	movs	r2, #150
	lsls	r2, r2, #1
	adds	r2, r7, r2
	ldr	r2, [r2]
	lsls	r1, r1, r2
	movs	r2, r1
	str	r2, [r3]
	b	.L16
.L15:
	.loc 1 51 0 discriminator 32
	movs	r3, #150
	lsls	r3, r3, #1
	adds	r3, r7, r3
	ldr	r3, [r3]
	cmp	r3, #63
	bgt	.L16
	.loc 1 51 0 discriminator 34
	ldr	r3, .L153+24
	movs	r2, #150
	lsls	r2, r2, #1
	adds	r2, r7, r2
	ldr	r2, [r2]
	subs	r2, r2, #32
	movs	r1, #1
	lsls	r1, r1, r2
	movs	r2, r1
	str	r2, [r3]
.L16:
.LBE9:
	.loc 1 51 0 discriminator 36
	movs	r0, #1
	bl	USC_Pause_us
	bl	.L17	@ far jump
.L143:
.LBB10:
	.loc 1 51 0 is_stmt 1 discriminator 371
	movs	r3, #104
	adds	r3, r3, #255
	adds	r3, r7, r3
	movs	r2, #112
	strb	r2, [r3]
	movs	r3, #0
	movs	r2, #180
	lsls	r2, r2, #1
	adds	r2, r7, r2
	str	r3, [r2]
	b	.L18
.L32:
	.loc 1 51 0 is_stmt 0 discriminator 75
	movs	r3, #104
	adds	r3, r3, #255
	adds	r3, r7, r3
	ldrb	r3, [r3]
	lsls	r3, r3, #24
	asrs	r3, r3, #24
	bpl	.L19
.LBB11:
	.loc 1 51 0 discriminator 39
	movs	r3, #15
	movs	r2, #148
	lsls	r2, r2, #1
	adds	r2, r7, r2
	str	r3, [r2]
	movs	r3, #148
	lsls	r3, r3, #1
	adds	r3, r7, r3
	ldr	r3, [r3]
	cmp	r3, #31
	bgt	.L20
	.loc 1 51 0 discriminator 41
	ldr	r3, .L153+4
	movs	r1, #1
	movs	r2, #148
	lsls	r2, r2, #1
	adds	r2, r7, r2
	ldr	r2, [r2]
	lsls	r1, r1, r2
	movs	r2, r1
	str	r2, [r3]
	b	.L22
.L20:
	.loc 1 51 0 discriminator 42
	movs	r3, #148
	lsls	r3, r3, #1
	adds	r3, r7, r3
	ldr	r3, [r3]
	cmp	r3, #63
	ble	.LCB409
	b	.L22	@long jump
.LCB409:
	.loc 1 51 0 discriminator 43
	ldr	r3, .L153+8
	movs	r2, #148
	lsls	r2, r2, #1
	adds	r2, r7, r2
	ldr	r2, [r2]
	subs	r2, r2, #32
	movs	r1, #1
	lsls	r1, r1, r2
	movs	r2, r1
	str	r2, [r3]
	b	.L22
.L19:
.LBE11:
.LBB12:
	.loc 1 51 0 discriminator 40
	movs	r3, #15
	movs	r2, #146
	lsls	r2, r2, #1
	adds	r2, r7, r2
	str	r3, [r2]
	movs	r3, #146
	lsls	r3, r3, #1
	adds	r3, r7, r3
	ldr	r3, [r3]
	cmp	r3, #31
	bgt	.L23
	.loc 1 51 0 discriminator 44
	movs	r2, #1
	movs	r3, #146
	lsls	r3, r3, #1
	adds	r3, r7, r3
	ldr	r3, [r3]
	lsls	r2, r2, r3
	movs	r3, r2
	movs	r2, #144
	lsls	r2, r2, #1
	adds	r2, r7, r2
	str	r3, [r2]
	ldr	r3, .L153+12
	movs	r2, #144
	lsls	r2, r2, #1
	adds	r2, r7, r2
	ldr	r2, [r2]
	str	r2, [r3]
	b	.L24
.L23:
	.loc 1 51 0 discriminator 45
	movs	r3, #146
	lsls	r3, r3, #1
	adds	r3, r7, r3
	ldr	r3, [r3]
	cmp	r3, #63
	bgt	.L24
	.loc 1 51 0 discriminator 47
	movs	r3, #146
	lsls	r3, r3, #1
	adds	r3, r7, r3
	ldr	r3, [r3]
	subs	r3, r3, #32
	movs	r2, #1
	lsls	r2, r2, r3
	movs	r3, r2
	movs	r2, #144
	lsls	r2, r2, #1
	adds	r2, r7, r2
	str	r3, [r2]
	ldr	r3, .L153+16
	movs	r2, #144
	lsls	r2, r2, #1
	adds	r2, r7, r2
	ldr	r2, [r2]
	str	r2, [r3]
.L24:
.LBE12:
.LBB13:
	.loc 1 51 0 discriminator 49
	movs	r3, #15
	movs	r2, #142
	lsls	r2, r2, #1
	adds	r2, r7, r2
	str	r3, [r2]
	movs	r3, #142
	lsls	r3, r3, #1
	adds	r3, r7, r3
	ldr	r3, [r3]
	cmp	r3, #31
	bgt	.L25
	.loc 1 51 0 discriminator 50
	ldr	r3, .L153+20
	movs	r1, #1
	movs	r2, #142
	lsls	r2, r2, #1
	adds	r2, r7, r2
	ldr	r2, [r2]
	lsls	r1, r1, r2
	movs	r2, r1
	str	r2, [r3]
	b	.L22
.L154:
	.align	2
.L153:
	.word	-361
	.word	-1610481656
	.word	-1610481640
	.word	-1610480888
	.word	-1610480872
	.word	-1610481660
	.word	-1610481644
.L25:
	.loc 1 51 0 discriminator 51
	movs	r3, #142
	lsls	r3, r3, #1
	adds	r3, r7, r3
	ldr	r3, [r3]
	cmp	r3, #63
	bgt	.L22
	.loc 1 51 0 discriminator 53
	ldr	r3, .L155
	movs	r2, #142
	lsls	r2, r2, #1
	adds	r2, r7, r2
	ldr	r2, [r2]
	subs	r2, r2, #32
	movs	r1, #1
	lsls	r1, r1, r2
	movs	r2, r1
	str	r2, [r3]
.L22:
.LBE13:
	.loc 1 51 0 discriminator 55
	movs	r0, #1
	bl	USC_Pause_us
.LBB14:
	movs	r3, #14
	movs	r2, #140
	lsls	r2, r2, #1
	adds	r2, r7, r2
	str	r3, [r2]
	movs	r3, #140
	lsls	r3, r3, #1
	adds	r3, r7, r3
	ldr	r3, [r3]
	cmp	r3, #31
	bgt	.L26
	.loc 1 51 0 discriminator 56
	ldr	r3, .L155+4
	movs	r1, #1
	movs	r2, #140
	lsls	r2, r2, #1
	adds	r2, r7, r2
	ldr	r2, [r2]
	lsls	r1, r1, r2
	movs	r2, r1
	str	r2, [r3]
	b	.L27
.L26:
	.loc 1 51 0 discriminator 57
	movs	r3, #140
	lsls	r3, r3, #1
	adds	r3, r7, r3
	ldr	r3, [r3]
	cmp	r3, #63
	bgt	.L27
	.loc 1 51 0 discriminator 59
	ldr	r3, .L155+8
	movs	r2, #140
	lsls	r2, r2, #1
	adds	r2, r7, r2
	ldr	r2, [r2]
	subs	r2, r2, #32
	movs	r1, #1
	lsls	r1, r1, r2
	movs	r2, r1
	str	r2, [r3]
.L27:
.LBE14:
	.loc 1 51 0 discriminator 61
	movs	r0, #2
	bl	USC_Pause_us
.LBB15:
	movs	r3, #14
	movs	r2, #138
	lsls	r2, r2, #1
	adds	r2, r7, r2
	str	r3, [r2]
	movs	r3, #138
	lsls	r3, r3, #1
	adds	r3, r7, r3
	ldr	r3, [r3]
	cmp	r3, #31
	bgt	.L28
	.loc 1 51 0 discriminator 62
	movs	r2, #1
	movs	r3, #138
	lsls	r3, r3, #1
	adds	r3, r7, r3
	ldr	r3, [r3]
	lsls	r2, r2, r3
	movs	r3, r2
	movs	r2, #136
	lsls	r2, r2, #1
	adds	r2, r7, r2
	str	r3, [r2]
	ldr	r3, .L155+12
	movs	r2, #136
	lsls	r2, r2, #1
	adds	r2, r7, r2
	ldr	r2, [r2]
	str	r2, [r3]
	b	.L29
.L28:
	.loc 1 51 0 discriminator 63
	movs	r3, #138
	lsls	r3, r3, #1
	adds	r3, r7, r3
	ldr	r3, [r3]
	cmp	r3, #63
	bgt	.L29
	.loc 1 51 0 discriminator 65
	movs	r3, #138
	lsls	r3, r3, #1
	adds	r3, r7, r3
	ldr	r3, [r3]
	subs	r3, r3, #32
	movs	r2, #1
	lsls	r2, r2, r3
	movs	r3, r2
	movs	r2, #136
	lsls	r2, r2, #1
	adds	r2, r7, r2
	str	r3, [r2]
	ldr	r3, .L155+16
	movs	r2, #136
	lsls	r2, r2, #1
	adds	r2, r7, r2
	ldr	r2, [r2]
	str	r2, [r3]
.L29:
.LBE15:
.LBB16:
	.loc 1 51 0 discriminator 67
	movs	r3, #14
	movs	r2, #134
	lsls	r2, r2, #1
	adds	r2, r7, r2
	str	r3, [r2]
	movs	r3, #134
	lsls	r3, r3, #1
	adds	r3, r7, r3
	ldr	r3, [r3]
	cmp	r3, #31
	bgt	.L30
	.loc 1 51 0 discriminator 68
	ldr	r3, .L155+20
	movs	r1, #1
	movs	r2, #134
	lsls	r2, r2, #1
	adds	r2, r7, r2
	ldr	r2, [r2]
	lsls	r1, r1, r2
	movs	r2, r1
	str	r2, [r3]
	b	.L31
.L30:
	.loc 1 51 0 discriminator 69
	movs	r3, #134
	lsls	r3, r3, #1
	adds	r3, r7, r3
	ldr	r3, [r3]
	cmp	r3, #63
	bgt	.L31
	.loc 1 51 0 discriminator 71
	ldr	r3, .L155
	movs	r2, #134
	lsls	r2, r2, #1
	adds	r2, r7, r2
	ldr	r2, [r2]
	subs	r2, r2, #32
	movs	r1, #1
	lsls	r1, r1, r2
	movs	r2, r1
	str	r2, [r3]
.L31:
.LBE16:
	.loc 1 51 0 discriminator 73
	movs	r0, #1
	bl	USC_Pause_us
	movs	r3, #104
	adds	r3, r3, #255
	adds	r2, r7, r3
	movs	r3, #104
	adds	r3, r3, #255
	adds	r3, r7, r3
	ldrb	r3, [r3]
	adds	r3, r3, r3
	strb	r3, [r2]
	movs	r3, #180
	lsls	r3, r3, #1
	adds	r3, r7, r3
	ldr	r3, [r3]
	adds	r3, r3, #1
	movs	r2, #180
	lsls	r2, r2, #1
	adds	r2, r7, r2
	str	r3, [r2]
.L18:
	.loc 1 51 0 discriminator 74
	movs	r3, #180
	lsls	r3, r3, #1
	adds	r3, r7, r3
	ldr	r3, [r3]
	cmp	r3, #7
	bhi	.LCB720
	b	.L32	@long jump
.LCB720:
.LBB17:
	.loc 1 51 0 discriminator 76
	movs	r3, #15
	movs	r2, #132
	lsls	r2, r2, #1
	adds	r2, r7, r2
	str	r3, [r2]
	movs	r3, #132
	lsls	r3, r3, #1
	adds	r3, r7, r3
	ldr	r3, [r3]
	cmp	r3, #31
	bgt	.L33
	.loc 1 51 0 discriminator 77
	ldr	r3, .L155+4
	movs	r1, #1
	movs	r2, #132
	lsls	r2, r2, #1
	adds	r2, r7, r2
	ldr	r2, [r2]
	lsls	r1, r1, r2
	movs	r2, r1
	str	r2, [r3]
	b	.L34
.L33:
	.loc 1 51 0 discriminator 78
	movs	r3, #132
	lsls	r3, r3, #1
	adds	r3, r7, r3
	ldr	r3, [r3]
	cmp	r3, #63
	bgt	.L34
	.loc 1 51 0 discriminator 80
	ldr	r3, .L155+8
	movs	r2, #132
	lsls	r2, r2, #1
	adds	r2, r7, r2
	ldr	r2, [r2]
	subs	r2, r2, #32
	movs	r1, #1
	lsls	r1, r1, r2
	movs	r2, r1
	str	r2, [r3]
.L34:
.LBE17:
	.loc 1 51 0 discriminator 82
	movs	r0, #2
	bl	USC_Pause_us
.LBB18:
	movs	r3, #14
	adds	r2, r7, #5
	adds	r2, r2, #255
	str	r3, [r2]
	adds	r3, r7, #5
	adds	r3, r3, #255
	ldr	r3, [r3]
	cmp	r3, #31
	bgt	.L35
	.loc 1 51 0 discriminator 83
	ldr	r3, .L155+4
	movs	r1, #1
	adds	r2, r7, #5
	adds	r2, r2, #255
	ldr	r2, [r2]
	lsls	r1, r1, r2
	movs	r2, r1
	str	r2, [r3]
	b	.L36
.L35:
	.loc 1 51 0 discriminator 84
	adds	r3, r7, #5
	adds	r3, r3, #255
	ldr	r3, [r3]
	cmp	r3, #63
	bgt	.L36
	.loc 1 51 0 discriminator 86
	ldr	r3, .L155+8
	adds	r2, r7, #5
	adds	r2, r2, #255
	ldr	r2, [r2]
	subs	r2, r2, #32
	movs	r1, #1
	lsls	r1, r1, r2
	movs	r2, r1
	str	r2, [r3]
.L36:
.LBE18:
	.loc 1 51 0 discriminator 88
	movs	r0, #2
	bl	USC_Pause_us
.LBB19:
	movs	r3, #15
	adds	r2, r7, #1
	adds	r2, r2, #255
	str	r3, [r2]
	adds	r3, r7, #1
	adds	r3, r3, #255
	ldr	r3, [r3]
	cmp	r3, #31
	bgt	.L37
	.loc 1 51 0 discriminator 89
	ldr	r3, .L155+24
	ldr	r2, [r3]
	adds	r3, r7, #1
	adds	r3, r3, #255
	ldr	r3, [r3]
	lsrs	r2, r2, r3
	movs	r3, r2
	movs	r2, #1
	ands	r3, r2
	subs	r2, r3, #1
	sbcs	r3, r3, r2
	lsls	r3, r3, #24
	lsrs	r3, r3, #24
	b	.L38
.L37:
	.loc 1 51 0 discriminator 90
	adds	r3, r7, #1
	adds	r3, r3, #255
	ldr	r3, [r3]
	cmp	r3, #63
	bgt	.L39
	.loc 1 51 0 discriminator 92
	ldr	r3, .L155+28
	ldr	r2, [r3]
	adds	r3, r7, #1
	adds	r3, r3, #255
	ldr	r3, [r3]
	subs	r3, r3, #32
	lsrs	r2, r2, r3
	movs	r3, r2
	movs	r2, #1
	ands	r3, r2
	beq	.L39
	.loc 1 51 0 discriminator 94
	movs	r3, #1
	b	.L38
.L39:
	.loc 1 51 0 discriminator 95
	movs	r3, #0
.L38:
.LBE19:
	.loc 1 51 0 discriminator 98
	movs	r2, #180
	lsls	r2, r2, #1
	adds	r2, r7, r2
	str	r3, [r2]
.LBB20:
	movs	r3, #14
	movs	r2, #252
	adds	r2, r7, r2
	str	r3, [r2]
	movs	r3, #252
	adds	r3, r7, r3
	ldr	r3, [r3]
	cmp	r3, #31
	bgt	.L41
	.loc 1 51 0 discriminator 99
	movs	r2, #1
	movs	r3, #252
	adds	r3, r7, r3
	ldr	r3, [r3]
	lsls	r2, r2, r3
	movs	r3, r2
	movs	r2, #248
	adds	r2, r7, r2
	str	r3, [r2]
	ldr	r3, .L155+12
	movs	r2, #248
	adds	r2, r7, r2
	ldr	r2, [r2]
	str	r2, [r3]
	b	.L42
.L41:
	.loc 1 51 0 discriminator 100
	movs	r3, #252
	adds	r3, r7, r3
	ldr	r3, [r3]
	cmp	r3, #63
	bgt	.L42
	.loc 1 51 0 discriminator 102
	movs	r3, #252
	adds	r3, r7, r3
	ldr	r3, [r3]
	subs	r3, r3, #32
	movs	r2, #1
	lsls	r2, r2, r3
	movs	r3, r2
	movs	r2, #248
	adds	r2, r7, r2
	str	r3, [r2]
	ldr	r3, .L155+16
	movs	r2, #248
	adds	r2, r7, r2
	ldr	r2, [r2]
	str	r2, [r3]
.L42:
.LBE20:
.LBB21:
	.loc 1 51 0 discriminator 104
	movs	r3, #14
	movs	r2, #244
	adds	r2, r7, r2
	str	r3, [r2]
	movs	r3, #244
	adds	r3, r7, r3
	ldr	r3, [r3]
	cmp	r3, #31
	bgt	.L43
	.loc 1 51 0 discriminator 105
	ldr	r3, .L155+20
	movs	r1, #1
	movs	r2, #244
	adds	r2, r7, r2
	ldr	r2, [r2]
	lsls	r1, r1, r2
	movs	r2, r1
	str	r2, [r3]
	b	.L44
.L43:
	.loc 1 51 0 discriminator 106
	movs	r3, #244
	adds	r3, r7, r3
	ldr	r3, [r3]
	cmp	r3, #63
	bgt	.L44
	.loc 1 51 0 discriminator 108
	ldr	r3, .L155
	movs	r2, #244
	adds	r2, r7, r2
	ldr	r2, [r2]
	subs	r2, r2, #32
	movs	r1, #1
	lsls	r1, r1, r2
	movs	r2, r1
	str	r2, [r3]
.L44:
.LBE21:
	.loc 1 51 0 discriminator 110
	movs	r0, #2
	bl	USC_Pause_us
	movs	r3, #180
	lsls	r3, r3, #1
	adds	r3, r7, r3
	ldr	r3, [r3]
	subs	r2, r3, #1
	sbcs	r3, r3, r2
	lsls	r3, r3, #24
	lsrs	r2, r3, #24
	movs	r3, #120
	adds	r3, r3, #255
	adds	r3, r7, r3
	strb	r2, [r3]
.LBE10:
	movs	r3, #120
	adds	r3, r3, #255
	adds	r3, r7, r3
	ldrb	r3, [r3]
	cmp	r3, #1
	bne	.LCB973
	bl	.L152	@far jump
.LCB973:
.LBB22:
	.loc 1 51 0 discriminator 111
	movs	r3, #96
	adds	r3, r3, #255
	adds	r3, r7, r3
	ldr	r2, .L155+32
	movs	r1, #188
	lsls	r1, r1, #1
	mov	ip, r1
	add	ip, ip, r7
	add	r2, r2, ip
	ldrb	r2, [r2]
	strb	r2, [r3]
	movs	r3, #0
	movs	r2, #176
	lsls	r2, r2, #1
	adds	r2, r7, r2
	str	r3, [r2]
	b	.L47
.L61:
	.loc 1 51 0 discriminator 149
	movs	r3, #96
	adds	r3, r3, #255
	adds	r3, r7, r3
	ldrb	r3, [r3]
	lsls	r3, r3, #24
	asrs	r3, r3, #24
	bpl	.L48
.LBB23:
	.loc 1 51 0 discriminator 113
	movs	r3, #15
	movs	r2, #240
	adds	r2, r7, r2
	str	r3, [r2]
	movs	r3, #240
	adds	r3, r7, r3
	ldr	r3, [r3]
	cmp	r3, #31
	bgt	.L49
	.loc 1 51 0 discriminator 115
	ldr	r3, .L155+4
	movs	r1, #1
	movs	r2, #240
	adds	r2, r7, r2
	ldr	r2, [r2]
	lsls	r1, r1, r2
	movs	r2, r1
	str	r2, [r3]
	b	.L51
.L49:
	.loc 1 51 0 discriminator 116
	movs	r3, #240
	adds	r3, r7, r3
	ldr	r3, [r3]
	cmp	r3, #63
	bgt	.L51
	.loc 1 51 0 discriminator 117
	ldr	r3, .L155+8
	movs	r2, #240
	adds	r2, r7, r2
	ldr	r2, [r2]
	subs	r2, r2, #32
	movs	r1, #1
	lsls	r1, r1, r2
	movs	r2, r1
	str	r2, [r3]
	b	.L51
.L156:
	.align	2
.L155:
	.word	-1610481644
	.word	-1610481656
	.word	-1610481640
	.word	-1610480888
	.word	-1610480872
	.word	-1610481660
	.word	-1610480640
	.word	-1610480624
	.word	-361
.L48:
.LBE23:
.LBB24:
	.loc 1 51 0 discriminator 114
	movs	r3, #15
	movs	r2, #236
	adds	r2, r7, r2
	str	r3, [r2]
	movs	r3, #236
	adds	r3, r7, r3
	ldr	r3, [r3]
	cmp	r3, #31
	bgt	.L52
	.loc 1 51 0 discriminator 118
	movs	r2, #1
	movs	r3, #236
	adds	r3, r7, r3
	ldr	r3, [r3]
	lsls	r2, r2, r3
	movs	r3, r2
	movs	r2, #232
	adds	r2, r7, r2
	str	r3, [r2]
	ldr	r3, .L157
	movs	r2, #232
	adds	r2, r7, r2
	ldr	r2, [r2]
	str	r2, [r3]
	b	.L53
.L52:
	.loc 1 51 0 discriminator 119
	movs	r3, #236
	adds	r3, r7, r3
	ldr	r3, [r3]
	cmp	r3, #63
	bgt	.L53
	.loc 1 51 0 discriminator 121
	movs	r3, #236
	adds	r3, r7, r3
	ldr	r3, [r3]
	subs	r3, r3, #32
	movs	r2, #1
	lsls	r2, r2, r3
	movs	r3, r2
	movs	r2, #232
	adds	r2, r7, r2
	str	r3, [r2]
	ldr	r3, .L157+4
	movs	r2, #232
	adds	r2, r7, r2
	ldr	r2, [r2]
	str	r2, [r3]
.L53:
.LBE24:
.LBB25:
	.loc 1 51 0 discriminator 123
	movs	r3, #15
	movs	r2, #228
	adds	r2, r7, r2
	str	r3, [r2]
	movs	r3, #228
	adds	r3, r7, r3
	ldr	r3, [r3]
	cmp	r3, #31
	bgt	.L54
	.loc 1 51 0 discriminator 124
	ldr	r3, .L157+8
	movs	r1, #1
	movs	r2, #228
	adds	r2, r7, r2
	ldr	r2, [r2]
	lsls	r1, r1, r2
	movs	r2, r1
	str	r2, [r3]
	b	.L51
.L54:
	.loc 1 51 0 discriminator 125
	movs	r3, #228
	adds	r3, r7, r3
	ldr	r3, [r3]
	cmp	r3, #63
	bgt	.L51
	.loc 1 51 0 discriminator 127
	ldr	r3, .L157+12
	movs	r2, #228
	adds	r2, r7, r2
	ldr	r2, [r2]
	subs	r2, r2, #32
	movs	r1, #1
	lsls	r1, r1, r2
	movs	r2, r1
	str	r2, [r3]
.L51:
.LBE25:
	.loc 1 51 0 discriminator 129
	movs	r0, #1
	bl	USC_Pause_us
.LBB26:
	movs	r3, #14
	movs	r2, #224
	adds	r2, r7, r2
	str	r3, [r2]
	movs	r3, #224
	adds	r3, r7, r3
	ldr	r3, [r3]
	cmp	r3, #31
	bgt	.L55
	.loc 1 51 0 discriminator 130
	ldr	r3, .L157+16
	movs	r1, #1
	movs	r2, #224
	adds	r2, r7, r2
	ldr	r2, [r2]
	lsls	r1, r1, r2
	movs	r2, r1
	str	r2, [r3]
	b	.L56
.L55:
	.loc 1 51 0 discriminator 131
	movs	r3, #224
	adds	r3, r7, r3
	ldr	r3, [r3]
	cmp	r3, #63
	bgt	.L56
	.loc 1 51 0 discriminator 133
	ldr	r3, .L157+20
	movs	r2, #224
	adds	r2, r7, r2
	ldr	r2, [r2]
	subs	r2, r2, #32
	movs	r1, #1
	lsls	r1, r1, r2
	movs	r2, r1
	str	r2, [r3]
.L56:
.LBE26:
	.loc 1 51 0 discriminator 135
	movs	r0, #2
	bl	USC_Pause_us
.LBB27:
	movs	r3, #14
	movs	r2, #220
	adds	r2, r7, r2
	str	r3, [r2]
	movs	r3, #220
	adds	r3, r7, r3
	ldr	r3, [r3]
	cmp	r3, #31
	bgt	.L57
	.loc 1 51 0 discriminator 136
	movs	r2, #1
	movs	r3, #220
	adds	r3, r7, r3
	ldr	r3, [r3]
	lsls	r2, r2, r3
	movs	r3, r2
	movs	r2, #216
	adds	r2, r7, r2
	str	r3, [r2]
	ldr	r3, .L157
	movs	r2, #216
	adds	r2, r7, r2
	ldr	r2, [r2]
	str	r2, [r3]
	b	.L58
.L57:
	.loc 1 51 0 discriminator 137
	movs	r3, #220
	adds	r3, r7, r3
	ldr	r3, [r3]
	cmp	r3, #63
	bgt	.L58
	.loc 1 51 0 discriminator 139
	movs	r3, #220
	adds	r3, r7, r3
	ldr	r3, [r3]
	subs	r3, r3, #32
	movs	r2, #1
	lsls	r2, r2, r3
	movs	r3, r2
	movs	r2, #216
	adds	r2, r7, r2
	str	r3, [r2]
	ldr	r3, .L157+4
	movs	r2, #216
	adds	r2, r7, r2
	ldr	r2, [r2]
	str	r2, [r3]
.L58:
.LBE27:
.LBB28:
	.loc 1 51 0 discriminator 141
	movs	r3, #14
	movs	r2, #212
	adds	r2, r7, r2
	str	r3, [r2]
	movs	r3, #212
	adds	r3, r7, r3
	ldr	r3, [r3]
	cmp	r3, #31
	bgt	.L59
	.loc 1 51 0 discriminator 142
	ldr	r3, .L157+8
	movs	r1, #1
	movs	r2, #212
	adds	r2, r7, r2
	ldr	r2, [r2]
	lsls	r1, r1, r2
	movs	r2, r1
	str	r2, [r3]
	b	.L60
.L59:
	.loc 1 51 0 discriminator 143
	movs	r3, #212
	adds	r3, r7, r3
	ldr	r3, [r3]
	cmp	r3, #63
	bgt	.L60
	.loc 1 51 0 discriminator 145
	ldr	r3, .L157+12
	movs	r2, #212
	adds	r2, r7, r2
	ldr	r2, [r2]
	subs	r2, r2, #32
	movs	r1, #1
	lsls	r1, r1, r2
	movs	r2, r1
	str	r2, [r3]
.L60:
.LBE28:
	.loc 1 51 0 discriminator 147
	movs	r0, #1
	bl	USC_Pause_us
	movs	r3, #96
	adds	r3, r3, #255
	adds	r2, r7, r3
	movs	r3, #96
	adds	r3, r3, #255
	adds	r3, r7, r3
	ldrb	r3, [r3]
	adds	r3, r3, r3
	strb	r3, [r2]
	movs	r3, #176
	lsls	r3, r3, #1
	adds	r3, r7, r3
	ldr	r3, [r3]
	adds	r3, r3, #1
	movs	r2, #176
	lsls	r2, r2, #1
	adds	r2, r7, r2
	str	r3, [r2]
.L47:
	.loc 1 51 0 discriminator 148
	movs	r3, #176
	lsls	r3, r3, #1
	adds	r3, r7, r3
	ldr	r3, [r3]
	cmp	r3, #7
	bhi	.LCB1308
	b	.L61	@long jump
.LCB1308:
.LBB29:
	.loc 1 51 0 discriminator 150
	movs	r3, #15
	movs	r2, #208
	adds	r2, r7, r2
	str	r3, [r2]
	movs	r3, #208
	adds	r3, r7, r3
	ldr	r3, [r3]
	cmp	r3, #31
	bgt	.L62
	.loc 1 51 0 discriminator 151
	ldr	r3, .L157+16
	movs	r1, #1
	movs	r2, #208
	adds	r2, r7, r2
	ldr	r2, [r2]
	lsls	r1, r1, r2
	movs	r2, r1
	str	r2, [r3]
	b	.L63
.L62:
	.loc 1 51 0 discriminator 152
	movs	r3, #208
	adds	r3, r7, r3
	ldr	r3, [r3]
	cmp	r3, #63
	bgt	.L63
	.loc 1 51 0 discriminator 154
	ldr	r3, .L157+20
	movs	r2, #208
	adds	r2, r7, r2
	ldr	r2, [r2]
	subs	r2, r2, #32
	movs	r1, #1
	lsls	r1, r1, r2
	movs	r2, r1
	str	r2, [r3]
.L63:
.LBE29:
	.loc 1 51 0 discriminator 156
	movs	r0, #2
	bl	USC_Pause_us
.LBB30:
	movs	r3, #14
	movs	r2, #204
	adds	r2, r7, r2
	str	r3, [r2]
	movs	r3, #204
	adds	r3, r7, r3
	ldr	r3, [r3]
	cmp	r3, #31
	bgt	.L64
	.loc 1 51 0 discriminator 157
	ldr	r3, .L157+16
	movs	r1, #1
	movs	r2, #204
	adds	r2, r7, r2
	ldr	r2, [r2]
	lsls	r1, r1, r2
	movs	r2, r1
	str	r2, [r3]
	b	.L65
.L64:
	.loc 1 51 0 discriminator 158
	movs	r3, #204
	adds	r3, r7, r3
	ldr	r3, [r3]
	cmp	r3, #63
	bgt	.L65
	.loc 1 51 0 discriminator 160
	ldr	r3, .L157+20
	movs	r2, #204
	adds	r2, r7, r2
	ldr	r2, [r2]
	subs	r2, r2, #32
	movs	r1, #1
	lsls	r1, r1, r2
	movs	r2, r1
	str	r2, [r3]
.L65:
.LBE30:
	.loc 1 51 0 discriminator 162
	movs	r0, #2
	bl	USC_Pause_us
.LBB31:
	movs	r3, #15
	movs	r2, #200
	adds	r2, r7, r2
	str	r3, [r2]
	movs	r3, #200
	adds	r3, r7, r3
	ldr	r3, [r3]
	cmp	r3, #31
	bgt	.L66
	.loc 1 51 0 discriminator 163
	ldr	r3, .L157+24
	ldr	r2, [r3]
	movs	r3, #200
	adds	r3, r7, r3
	ldr	r3, [r3]
	lsrs	r2, r2, r3
	movs	r3, r2
	movs	r2, #1
	ands	r3, r2
	subs	r2, r3, #1
	sbcs	r3, r3, r2
	lsls	r3, r3, #24
	lsrs	r3, r3, #24
	b	.L67
.L66:
	.loc 1 51 0 discriminator 164
	movs	r3, #200
	adds	r3, r7, r3
	ldr	r3, [r3]
	cmp	r3, #63
	bgt	.L68
	.loc 1 51 0 discriminator 166
	ldr	r3, .L157+28
	ldr	r2, [r3]
	movs	r3, #200
	adds	r3, r7, r3
	ldr	r3, [r3]
	subs	r3, r3, #32
	lsrs	r2, r2, r3
	movs	r3, r2
	movs	r2, #1
	ands	r3, r2
	beq	.L68
	.loc 1 51 0 discriminator 168
	movs	r3, #1
	b	.L67
.L68:
	.loc 1 51 0 discriminator 169
	movs	r3, #0
.L67:
.LBE31:
	.loc 1 51 0 discriminator 172
	movs	r2, #176
	lsls	r2, r2, #1
	adds	r2, r7, r2
	str	r3, [r2]
.LBB32:
	movs	r3, #14
	movs	r2, #196
	adds	r2, r7, r2
	str	r3, [r2]
	movs	r3, #196
	adds	r3, r7, r3
	ldr	r3, [r3]
	cmp	r3, #31
	bgt	.L70
	.loc 1 51 0 discriminator 173
	movs	r2, #1
	movs	r3, #196
	adds	r3, r7, r3
	ldr	r3, [r3]
	lsls	r2, r2, r3
	movs	r3, r2
	movs	r2, #192
	adds	r2, r7, r2
	str	r3, [r2]
	ldr	r3, .L157
	movs	r2, #192
	adds	r2, r7, r2
	ldr	r2, [r2]
	str	r2, [r3]
	b	.L71
.L70:
	.loc 1 51 0 discriminator 174
	movs	r3, #196
	adds	r3, r7, r3
	ldr	r3, [r3]
	cmp	r3, #63
	bgt	.L71
	.loc 1 51 0 discriminator 176
	movs	r3, #196
	adds	r3, r7, r3
	ldr	r3, [r3]
	subs	r3, r3, #32
	movs	r2, #1
	lsls	r2, r2, r3
	movs	r3, r2
	movs	r2, #192
	adds	r2, r7, r2
	str	r3, [r2]
	ldr	r3, .L157+4
	movs	r2, #192
	adds	r2, r7, r2
	ldr	r2, [r2]
	str	r2, [r3]
.L71:
.LBE32:
.LBB33:
	.loc 1 51 0 discriminator 178
	movs	r3, #14
	movs	r2, #188
	adds	r2, r7, r2
	str	r3, [r2]
	movs	r3, #188
	adds	r3, r7, r3
	ldr	r3, [r3]
	cmp	r3, #31
	bgt	.L72
	.loc 1 51 0 discriminator 179
	ldr	r3, .L157+8
	movs	r1, #1
	movs	r2, #188
	adds	r2, r7, r2
	ldr	r2, [r2]
	lsls	r1, r1, r2
	movs	r2, r1
	str	r2, [r3]
	b	.L73
.L72:
	.loc 1 51 0 discriminator 180
	movs	r3, #188
	adds	r3, r7, r3
	ldr	r3, [r3]
	cmp	r3, #63
	bgt	.L73
	.loc 1 51 0 discriminator 182
	ldr	r3, .L157+12
	movs	r2, #188
	adds	r2, r7, r2
	ldr	r2, [r2]
	subs	r2, r2, #32
	movs	r1, #1
	lsls	r1, r1, r2
	movs	r2, r1
	str	r2, [r3]
.L73:
.LBE33:
	.loc 1 51 0 discriminator 184
	movs	r0, #2
	bl	USC_Pause_us
	movs	r3, #176
	lsls	r3, r3, #1
	adds	r3, r7, r3
	ldr	r3, [r3]
	subs	r2, r3, #1
	sbcs	r3, r3, r2
	lsls	r3, r3, #24
	lsrs	r2, r3, #24
	movs	r3, #120
	adds	r3, r3, #255
	adds	r3, r7, r3
	strb	r2, [r3]
.LBE22:
	movs	r3, #120
	adds	r3, r3, #255
	adds	r3, r7, r3
	ldrb	r3, [r3]
	cmp	r3, #1
	bne	.LCB1556
	bl	.L152	@far jump
.LCB1556:
.LBB34:
	.loc 1 51 0 discriminator 185
	movs	r3, #14
	movs	r2, #184
	adds	r2, r7, r2
	str	r3, [r2]
	movs	r3, #184
	adds	r3, r7, r3
	ldr	r3, [r3]
	cmp	r3, #31
	bgt	.L75
	.loc 1 51 0 discriminator 186
	ldr	r3, .L157+16
	movs	r1, #1
	movs	r2, #184
	adds	r2, r7, r2
	ldr	r2, [r2]
	lsls	r1, r1, r2
	movs	r2, r1
	str	r2, [r3]
	b	.L76
.L158:
	.align	2
.L157:
	.word	-1610480888
	.word	-1610480872
	.word	-1610481660
	.word	-1610481644
	.word	-1610481656
	.word	-1610481640
	.word	-1610480640
	.word	-1610480624
.L75:
	.loc 1 51 0 discriminator 187
	movs	r3, #184
	adds	r3, r7, r3
	ldr	r3, [r3]
	cmp	r3, #63
	bgt	.L76
	.loc 1 51 0 discriminator 189
	ldr	r3, .L159
	movs	r2, #184
	adds	r2, r7, r2
	ldr	r2, [r2]
	subs	r2, r2, #32
	movs	r1, #1
	lsls	r1, r1, r2
	movs	r2, r1
	str	r2, [r3]
.L76:
.LBE34:
	.loc 1 51 0 discriminator 191
	movs	r0, #1
	bl	USC_Pause_us
.LBB35:
	movs	r3, #15
	movs	r2, #180
	adds	r2, r7, r2
	str	r3, [r2]
	movs	r3, #180
	adds	r3, r7, r3
	ldr	r3, [r3]
	cmp	r3, #31
	bgt	.L77
	.loc 1 51 0 discriminator 192
	movs	r2, #1
	movs	r3, #180
	adds	r3, r7, r3
	ldr	r3, [r3]
	lsls	r2, r2, r3
	movs	r3, r2
	movs	r2, #176
	adds	r2, r7, r2
	str	r3, [r2]
	ldr	r3, .L159+4
	movs	r2, #176
	adds	r2, r7, r2
	ldr	r2, [r2]
	str	r2, [r3]
	b	.L78
.L77:
	.loc 1 51 0 discriminator 193
	movs	r3, #180
	adds	r3, r7, r3
	ldr	r3, [r3]
	cmp	r3, #63
	bgt	.L78
	.loc 1 51 0 discriminator 195
	movs	r3, #180
	adds	r3, r7, r3
	ldr	r3, [r3]
	subs	r3, r3, #32
	movs	r2, #1
	lsls	r2, r2, r3
	movs	r3, r2
	movs	r2, #176
	adds	r2, r7, r2
	str	r3, [r2]
	ldr	r3, .L159+8
	movs	r2, #176
	adds	r2, r7, r2
	ldr	r2, [r2]
	str	r2, [r3]
.L78:
.LBE35:
.LBB36:
	.loc 1 51 0 discriminator 197
	movs	r3, #15
	movs	r2, #172
	adds	r2, r7, r2
	str	r3, [r2]
	movs	r3, #172
	adds	r3, r7, r3
	ldr	r3, [r3]
	cmp	r3, #31
	bgt	.L79
	.loc 1 51 0 discriminator 198
	ldr	r3, .L159+12
	movs	r1, #1
	movs	r2, #172
	adds	r2, r7, r2
	ldr	r2, [r2]
	lsls	r1, r1, r2
	movs	r2, r1
	str	r2, [r3]
	b	.L80
.L79:
	.loc 1 51 0 discriminator 199
	movs	r3, #172
	adds	r3, r7, r3
	ldr	r3, [r3]
	cmp	r3, #63
	bgt	.L80
	.loc 1 51 0 discriminator 201
	ldr	r3, .L159+16
	movs	r2, #172
	adds	r2, r7, r2
	ldr	r2, [r2]
	subs	r2, r2, #32
	movs	r1, #1
	lsls	r1, r1, r2
	movs	r2, r1
	str	r2, [r3]
.L80:
.LBE36:
	.loc 1 51 0 discriminator 203
	movs	r0, #1
	bl	USC_Pause_us
.LBB37:
	movs	r3, #14
	movs	r2, #168
	adds	r2, r7, r2
	str	r3, [r2]
	movs	r3, #168
	adds	r3, r7, r3
	ldr	r3, [r3]
	cmp	r3, #31
	bgt	.L81
	.loc 1 51 0 discriminator 204
	movs	r2, #1
	movs	r3, #168
	adds	r3, r7, r3
	ldr	r3, [r3]
	lsls	r2, r2, r3
	movs	r3, r2
	movs	r2, #164
	adds	r2, r7, r2
	str	r3, [r2]
	ldr	r3, .L159+4
	movs	r2, #164
	adds	r2, r7, r2
	ldr	r2, [r2]
	str	r2, [r3]
	b	.L82
.L81:
	.loc 1 51 0 discriminator 205
	movs	r3, #168
	adds	r3, r7, r3
	ldr	r3, [r3]
	cmp	r3, #63
	bgt	.L82
	.loc 1 51 0 discriminator 207
	movs	r3, #168
	adds	r3, r7, r3
	ldr	r3, [r3]
	subs	r3, r3, #32
	movs	r2, #1
	lsls	r2, r2, r3
	movs	r3, r2
	movs	r2, #164
	adds	r2, r7, r2
	str	r3, [r2]
	ldr	r3, .L159+8
	movs	r2, #164
	adds	r2, r7, r2
	ldr	r2, [r2]
	str	r2, [r3]
.L82:
.LBE37:
.LBB38:
	.loc 1 51 0 discriminator 209
	movs	r3, #14
	movs	r2, #160
	adds	r2, r7, r2
	str	r3, [r2]
	movs	r3, #160
	adds	r3, r7, r3
	ldr	r3, [r3]
	cmp	r3, #31
	bgt	.L83
	.loc 1 51 0 discriminator 210
	ldr	r3, .L159+12
	movs	r1, #1
	movs	r2, #160
	adds	r2, r7, r2
	ldr	r2, [r2]
	lsls	r1, r1, r2
	movs	r2, r1
	str	r2, [r3]
	b	.L84
.L83:
	.loc 1 51 0 discriminator 211
	movs	r3, #160
	adds	r3, r7, r3
	ldr	r3, [r3]
	cmp	r3, #63
	bgt	.L84
	.loc 1 51 0 discriminator 213
	ldr	r3, .L159+16
	movs	r2, #160
	adds	r2, r7, r2
	ldr	r2, [r2]
	subs	r2, r2, #32
	movs	r1, #1
	lsls	r1, r1, r2
	movs	r2, r1
	str	r2, [r3]
.L84:
.LBE38:
	.loc 1 51 0 discriminator 215
	movs	r0, #1
	bl	USC_Pause_us
.LBB39:
	movs	r3, #88
	adds	r3, r3, #255
	adds	r3, r7, r3
	movs	r2, #113
	strb	r2, [r3]
	movs	r3, #0
	movs	r2, #172
	lsls	r2, r2, #1
	adds	r2, r7, r2
	str	r3, [r2]
	b	.L85
.L99:
	.loc 1 51 0 discriminator 253
	movs	r3, #88
	adds	r3, r3, #255
	adds	r3, r7, r3
	ldrb	r3, [r3]
	lsls	r3, r3, #24
	asrs	r3, r3, #24
	bpl	.L86
.LBB40:
	.loc 1 51 0 discriminator 217
	movs	r3, #15
	movs	r2, #156
	adds	r2, r7, r2
	str	r3, [r2]
	movs	r3, #156
	adds	r3, r7, r3
	ldr	r3, [r3]
	cmp	r3, #31
	bgt	.L87
	.loc 1 51 0 discriminator 219
	ldr	r3, .L159+20
	movs	r1, #1
	movs	r2, #156
	adds	r2, r7, r2
	ldr	r2, [r2]
	lsls	r1, r1, r2
	movs	r2, r1
	str	r2, [r3]
	b	.L89
.L87:
	.loc 1 51 0 discriminator 220
	movs	r3, #156
	adds	r3, r7, r3
	ldr	r3, [r3]
	cmp	r3, #63
	bgt	.L89
	.loc 1 51 0 discriminator 221
	ldr	r3, .L159
	movs	r2, #156
	adds	r2, r7, r2
	ldr	r2, [r2]
	subs	r2, r2, #32
	movs	r1, #1
	lsls	r1, r1, r2
	movs	r2, r1
	str	r2, [r3]
	b	.L89
.L86:
.LBE40:
.LBB41:
	.loc 1 51 0 discriminator 218
	movs	r3, #15
	movs	r2, #152
	adds	r2, r7, r2
	str	r3, [r2]
	movs	r3, #152
	adds	r3, r7, r3
	ldr	r3, [r3]
	cmp	r3, #31
	bgt	.L90
	.loc 1 51 0 discriminator 222
	movs	r2, #1
	movs	r3, #152
	adds	r3, r7, r3
	ldr	r3, [r3]
	lsls	r2, r2, r3
	movs	r3, r2
	movs	r2, #148
	adds	r2, r7, r2
	str	r3, [r2]
	ldr	r3, .L159+4
	movs	r2, #148
	adds	r2, r7, r2
	ldr	r2, [r2]
	str	r2, [r3]
	b	.L91
.L90:
	.loc 1 51 0 discriminator 223
	movs	r3, #152
	adds	r3, r7, r3
	ldr	r3, [r3]
	cmp	r3, #63
	bgt	.L91
	.loc 1 51 0 discriminator 225
	movs	r3, #152
	adds	r3, r7, r3
	ldr	r3, [r3]
	subs	r3, r3, #32
	movs	r2, #1
	lsls	r2, r2, r3
	movs	r3, r2
	movs	r2, #148
	adds	r2, r7, r2
	str	r3, [r2]
	ldr	r3, .L159+8
	movs	r2, #148
	adds	r2, r7, r2
	ldr	r2, [r2]
	str	r2, [r3]
.L91:
.LBE41:
.LBB42:
	.loc 1 51 0 discriminator 227
	movs	r3, #15
	movs	r2, #144
	adds	r2, r7, r2
	str	r3, [r2]
	movs	r3, #144
	adds	r3, r7, r3
	ldr	r3, [r3]
	cmp	r3, #31
	bgt	.L92
	.loc 1 51 0 discriminator 228
	ldr	r3, .L159+12
	movs	r1, #1
	movs	r2, #144
	adds	r2, r7, r2
	ldr	r2, [r2]
	lsls	r1, r1, r2
	movs	r2, r1
	str	r2, [r3]
	b	.L89
.L92:
	.loc 1 51 0 discriminator 229
	movs	r3, #144
	adds	r3, r7, r3
	ldr	r3, [r3]
	cmp	r3, #63
	bgt	.L89
	.loc 1 51 0 discriminator 231
	ldr	r3, .L159+16
	movs	r2, #144
	adds	r2, r7, r2
	ldr	r2, [r2]
	subs	r2, r2, #32
	movs	r1, #1
	lsls	r1, r1, r2
	movs	r2, r1
	str	r2, [r3]
.L89:
.LBE42:
	.loc 1 51 0 discriminator 233
	movs	r0, #1
	bl	USC_Pause_us
.LBB43:
	movs	r3, #14
	movs	r2, #140
	adds	r2, r7, r2
	str	r3, [r2]
	movs	r3, #140
	adds	r3, r7, r3
	ldr	r3, [r3]
	cmp	r3, #31
	bgt	.L93
	.loc 1 51 0 discriminator 234
	ldr	r3, .L159+20
	movs	r1, #1
	movs	r2, #140
	adds	r2, r7, r2
	ldr	r2, [r2]
	lsls	r1, r1, r2
	movs	r2, r1
	str	r2, [r3]
	b	.L94
.L93:
	.loc 1 51 0 discriminator 235
	movs	r3, #140
	adds	r3, r7, r3
	ldr	r3, [r3]
	cmp	r3, #63
	bgt	.L94
	.loc 1 51 0 discriminator 237
	ldr	r3, .L159
	movs	r2, #140
	adds	r2, r7, r2
	ldr	r2, [r2]
	subs	r2, r2, #32
	movs	r1, #1
	lsls	r1, r1, r2
	movs	r2, r1
	str	r2, [r3]
.L94:
.LBE43:
	.loc 1 51 0 discriminator 239
	movs	r0, #2
	bl	USC_Pause_us
.LBB44:
	movs	r3, #14
	movs	r2, #136
	adds	r2, r7, r2
	str	r3, [r2]
	movs	r3, #136
	adds	r3, r7, r3
	ldr	r3, [r3]
	cmp	r3, #31
	bgt	.L95
	.loc 1 51 0 discriminator 240
	movs	r2, #1
	movs	r3, #136
	adds	r3, r7, r3
	ldr	r3, [r3]
	lsls	r2, r2, r3
	movs	r3, r2
	movs	r2, #132
	adds	r2, r7, r2
	str	r3, [r2]
	ldr	r3, .L159+4
	movs	r2, #132
	adds	r2, r7, r2
	ldr	r2, [r2]
	str	r2, [r3]
	b	.L96
.L95:
	.loc 1 51 0 discriminator 241
	movs	r3, #136
	adds	r3, r7, r3
	ldr	r3, [r3]
	cmp	r3, #63
	bgt	.L96
	.loc 1 51 0 discriminator 243
	movs	r3, #136
	adds	r3, r7, r3
	ldr	r3, [r3]
	subs	r3, r3, #32
	movs	r2, #1
	lsls	r2, r2, r3
	movs	r3, r2
	movs	r2, #132
	adds	r2, r7, r2
	str	r3, [r2]
	ldr	r3, .L159+8
	movs	r2, #132
	adds	r2, r7, r2
	ldr	r2, [r2]
	str	r2, [r3]
.L96:
.LBE44:
.LBB45:
	.loc 1 51 0 discriminator 245
	movs	r3, #14
	movs	r2, #128
	adds	r2, r7, r2
	str	r3, [r2]
	movs	r3, #128
	adds	r3, r7, r3
	ldr	r3, [r3]
	cmp	r3, #31
	bgt	.L97
	.loc 1 51 0 discriminator 246
	ldr	r3, .L159+12
	movs	r1, #1
	movs	r2, #128
	adds	r2, r7, r2
	ldr	r2, [r2]
	lsls	r1, r1, r2
	movs	r2, r1
	str	r2, [r3]
	b	.L98
.L160:
	.align	2
.L159:
	.word	-1610481640
	.word	-1610480888
	.word	-1610480872
	.word	-1610481660
	.word	-1610481644
	.word	-1610481656
.L97:
	.loc 1 51 0 discriminator 247
	movs	r3, #128
	adds	r3, r7, r3
	ldr	r3, [r3]
	cmp	r3, #63
	bgt	.L98
	.loc 1 51 0 discriminator 249
	ldr	r3, .L161
	movs	r2, #128
	adds	r2, r7, r2
	ldr	r2, [r2]
	subs	r2, r2, #32
	movs	r1, #1
	lsls	r1, r1, r2
	movs	r2, r1
	str	r2, [r3]
.L98:
.LBE45:
	.loc 1 51 0 discriminator 251
	movs	r0, #1
	bl	USC_Pause_us
	movs	r3, #88
	adds	r3, r3, #255
	adds	r2, r7, r3
	movs	r3, #88
	adds	r3, r3, #255
	adds	r3, r7, r3
	ldrb	r3, [r3]
	adds	r3, r3, r3
	strb	r3, [r2]
	movs	r3, #172
	lsls	r3, r3, #1
	adds	r3, r7, r3
	ldr	r3, [r3]
	adds	r3, r3, #1
	movs	r2, #172
	lsls	r2, r2, #1
	adds	r2, r7, r2
	str	r3, [r2]
.L85:
	.loc 1 51 0 discriminator 252
	movs	r3, #172
	lsls	r3, r3, #1
	adds	r3, r7, r3
	ldr	r3, [r3]
	cmp	r3, #7
	bhi	.LCB2120
	b	.L99	@long jump
.LCB2120:
.LBB46:
	.loc 1 51 0 discriminator 254
	movs	r3, #15
	str	r3, [r7, #124]
	ldr	r3, [r7, #124]
	cmp	r3, #31
	bgt	.L100
	.loc 1 51 0 discriminator 255
	ldr	r3, .L161+4
	movs	r1, #1
	ldr	r2, [r7, #124]
	lsls	r1, r1, r2
	movs	r2, r1
	str	r2, [r3]
	b	.L101
.L100:
	.loc 1 51 0 discriminator 256
	ldr	r3, [r7, #124]
	cmp	r3, #63
	bgt	.L101
	.loc 1 51 0 discriminator 258
	ldr	r3, .L161+8
	ldr	r2, [r7, #124]
	subs	r2, r2, #32
	movs	r1, #1
	lsls	r1, r1, r2
	movs	r2, r1
	str	r2, [r3]
.L101:
.LBE46:
	.loc 1 51 0 discriminator 260
	movs	r0, #2
	bl	USC_Pause_us
.LBB47:
	movs	r3, #14
	str	r3, [r7, #120]
	ldr	r3, [r7, #120]
	cmp	r3, #31
	bgt	.L102
	.loc 1 51 0 discriminator 261
	ldr	r3, .L161+4
	movs	r1, #1
	ldr	r2, [r7, #120]
	lsls	r1, r1, r2
	movs	r2, r1
	str	r2, [r3]
	b	.L103
.L102:
	.loc 1 51 0 discriminator 262
	ldr	r3, [r7, #120]
	cmp	r3, #63
	bgt	.L103
	.loc 1 51 0 discriminator 264
	ldr	r3, .L161+8
	ldr	r2, [r7, #120]
	subs	r2, r2, #32
	movs	r1, #1
	lsls	r1, r1, r2
	movs	r2, r1
	str	r2, [r3]
.L103:
.LBE47:
	.loc 1 51 0 discriminator 266
	movs	r0, #2
	bl	USC_Pause_us
.LBB48:
	movs	r3, #15
	str	r3, [r7, #116]
	ldr	r3, [r7, #116]
	cmp	r3, #31
	bgt	.L104
	.loc 1 51 0 discriminator 267
	ldr	r3, .L161+12
	ldr	r2, [r3]
	ldr	r3, [r7, #116]
	lsrs	r2, r2, r3
	movs	r3, r2
	movs	r2, #1
	ands	r3, r2
	subs	r2, r3, #1
	sbcs	r3, r3, r2
	lsls	r3, r3, #24
	lsrs	r3, r3, #24
	b	.L105
.L104:
	.loc 1 51 0 discriminator 268
	ldr	r3, [r7, #116]
	cmp	r3, #63
	bgt	.L106
	.loc 1 51 0 discriminator 270
	ldr	r3, .L161+16
	ldr	r2, [r3]
	ldr	r3, [r7, #116]
	subs	r3, r3, #32
	lsrs	r2, r2, r3
	movs	r3, r2
	movs	r2, #1
	ands	r3, r2
	beq	.L106
	.loc 1 51 0 discriminator 272
	movs	r3, #1
	b	.L105
.L106:
	.loc 1 51 0 discriminator 273
	movs	r3, #0
.L105:
.LBE48:
	.loc 1 51 0 discriminator 276
	movs	r2, #172
	lsls	r2, r2, #1
	adds	r2, r7, r2
	str	r3, [r2]
.LBB49:
	movs	r3, #14
	str	r3, [r7, #112]
	ldr	r3, [r7, #112]
	cmp	r3, #31
	bgt	.L108
	.loc 1 51 0 discriminator 277
	movs	r2, #1
	ldr	r3, [r7, #112]
	lsls	r2, r2, r3
	movs	r3, r2
	str	r3, [r7, #108]
	ldr	r3, .L161+20
	ldr	r2, [r7, #108]
	str	r2, [r3]
	b	.L109
.L108:
	.loc 1 51 0 discriminator 278
	ldr	r3, [r7, #112]
	cmp	r3, #63
	bgt	.L109
	.loc 1 51 0 discriminator 280
	ldr	r3, [r7, #112]
	subs	r3, r3, #32
	movs	r2, #1
	lsls	r2, r2, r3
	movs	r3, r2
	str	r3, [r7, #108]
	ldr	r3, .L161+24
	ldr	r2, [r7, #108]
	str	r2, [r3]
.L109:
.LBE49:
.LBB50:
	.loc 1 51 0 discriminator 282
	movs	r3, #14
	str	r3, [r7, #104]
	ldr	r3, [r7, #104]
	cmp	r3, #31
	bgt	.L110
	.loc 1 51 0 discriminator 283
	ldr	r3, .L161+28
	movs	r1, #1
	ldr	r2, [r7, #104]
	lsls	r1, r1, r2
	movs	r2, r1
	str	r2, [r3]
	b	.L111
.L110:
	.loc 1 51 0 discriminator 284
	ldr	r3, [r7, #104]
	cmp	r3, #63
	bgt	.L111
	.loc 1 51 0 discriminator 286
	ldr	r3, .L161
	ldr	r2, [r7, #104]
	subs	r2, r2, #32
	movs	r1, #1
	lsls	r1, r1, r2
	movs	r2, r1
	str	r2, [r3]
.L111:
.LBE50:
	.loc 1 51 0 discriminator 288
	movs	r0, #2
	bl	USC_Pause_us
	movs	r3, #172
	lsls	r3, r3, #1
	adds	r3, r7, r3
	ldr	r3, [r3]
	subs	r2, r3, #1
	sbcs	r3, r3, r2
	lsls	r3, r3, #24
	lsrs	r2, r3, #24
	movs	r3, #120
	adds	r3, r3, #255
	adds	r3, r7, r3
	strb	r2, [r3]
.LBE39:
	movs	r3, #120
	adds	r3, r3, #255
	adds	r3, r7, r3
	ldrb	r3, [r3]
	cmp	r3, #1
	bne	.LCB2310
	b	.L152	@long jump
.LCB2310:
	.loc 1 51 0
	b	.L113
.L142:
	.loc 1 51 0 discriminator 366
	movs	r3, #112
	adds	r3, r3, #255
	adds	r3, r7, r3
	ldrb	r3, [r3]
	movs	r2, #112
	adds	r2, r2, #255
	adds	r2, r7, r2
	subs	r1, r3, #1
	strb	r1, [r2]
	rsbs	r2, r3, #0
	adcs	r3, r3, r2
	lsls	r3, r3, #24
	lsrs	r2, r3, #24
	movs	r3, #120
	adds	r3, r3, #255
	adds	r3, r7, r3
	strb	r2, [r3]
.LBB51:
	movs	r3, #0
	movs	r2, #166
	lsls	r2, r2, #1
	adds	r2, r7, r2
	str	r3, [r2]
.LBB52:
	movs	r3, #15
	str	r3, [r7, #100]
	ldr	r3, [r7, #100]
	cmp	r3, #31
	bgt	.L114
	.loc 1 51 0 discriminator 289
	ldr	r3, .L161+4
	movs	r1, #1
	ldr	r2, [r7, #100]
	lsls	r1, r1, r2
	movs	r2, r1
	str	r2, [r3]
	b	.L115
.L114:
	.loc 1 51 0 discriminator 290
	ldr	r3, [r7, #100]
	cmp	r3, #63
	bgt	.L115
	.loc 1 51 0 discriminator 292
	ldr	r3, .L161+8
	ldr	r2, [r7, #100]
	subs	r2, r2, #32
	movs	r1, #1
	lsls	r1, r1, r2
	movs	r2, r1
	str	r2, [r3]
.L115:
.LBE52:
	.loc 1 51 0 discriminator 294
	movs	r3, #0
	movs	r2, #168
	lsls	r2, r2, #1
	adds	r2, r7, r2
	str	r3, [r2]
	b	.L116
.L128:
	.loc 1 51 0 discriminator 328
	movs	r3, #166
	lsls	r3, r3, #1
	adds	r3, r7, r3
	ldr	r3, [r3]
	lsls	r3, r3, #1
	movs	r2, #166
	lsls	r2, r2, #1
	adds	r2, r7, r2
	str	r3, [r2]
.LBB53:
	movs	r3, #14
	str	r3, [r7, #96]
	ldr	r3, [r7, #96]
	cmp	r3, #31
	bgt	.L117
	.loc 1 51 0 discriminator 296
	ldr	r3, .L161+4
	movs	r1, #1
	ldr	r2, [r7, #96]
	lsls	r1, r1, r2
	movs	r2, r1
	str	r2, [r3]
	b	.L118
.L117:
	.loc 1 51 0 discriminator 297
	ldr	r3, [r7, #96]
	cmp	r3, #63
	bgt	.L118
	.loc 1 51 0 discriminator 299
	ldr	r3, .L161+8
	ldr	r2, [r7, #96]
	subs	r2, r2, #32
	movs	r1, #1
	lsls	r1, r1, r2
	movs	r2, r1
	str	r2, [r3]
.L118:
.LBE53:
	.loc 1 51 0 discriminator 301
	movs	r0, #2
	bl	USC_Pause_us
.LBB54:
	movs	r3, #15
	str	r3, [r7, #92]
	ldr	r3, [r7, #92]
	cmp	r3, #31
	bgt	.L119
	.loc 1 51 0 discriminator 302
	ldr	r3, .L161+12
	ldr	r2, [r3]
	ldr	r3, [r7, #92]
	lsrs	r2, r2, r3
	movs	r3, r2
	movs	r2, #1
	ands	r3, r2
	subs	r2, r3, #1
	sbcs	r3, r3, r2
	lsls	r3, r3, #24
	lsrs	r3, r3, #24
	b	.L120
.L119:
	.loc 1 51 0 discriminator 303
	ldr	r3, [r7, #92]
	cmp	r3, #63
	bgt	.L121
	.loc 1 51 0 discriminator 305
	ldr	r3, .L161+16
	ldr	r2, [r3]
	ldr	r3, [r7, #92]
	subs	r3, r3, #32
	lsrs	r2, r2, r3
	movs	r3, r2
	movs	r2, #1
	ands	r3, r2
	beq	.L121
	.loc 1 51 0 discriminator 307
	movs	r3, #1
	b	.L120
.L121:
	.loc 1 51 0 discriminator 308
	movs	r3, #0
.L120:
.LBE54:
	.loc 1 51 0 discriminator 311
	str	r3, [r7, #88]
.LBB55:
	movs	r3, #14
	str	r3, [r7, #84]
	ldr	r3, [r7, #84]
	cmp	r3, #31
	bgt	.L123
	.loc 1 51 0 discriminator 312
	movs	r2, #1
	ldr	r3, [r7, #84]
	lsls	r2, r2, r3
	movs	r3, r2
	str	r3, [r7, #80]
	ldr	r3, .L161+20
	ldr	r2, [r7, #80]
	str	r2, [r3]
	b	.L124
.L123:
	.loc 1 51 0 discriminator 313
	ldr	r3, [r7, #84]
	cmp	r3, #63
	bgt	.L124
	.loc 1 51 0 discriminator 315
	ldr	r3, [r7, #84]
	subs	r3, r3, #32
	movs	r2, #1
	lsls	r2, r2, r3
	movs	r3, r2
	str	r3, [r7, #80]
	ldr	r3, .L161+24
	ldr	r2, [r7, #80]
	str	r2, [r3]
.L124:
.LBE55:
.LBB56:
	.loc 1 51 0 discriminator 317
	movs	r3, #14
	str	r3, [r7, #76]
	ldr	r3, [r7, #76]
	cmp	r3, #31
	bgt	.L125
	.loc 1 51 0 discriminator 318
	ldr	r3, .L161+28
	movs	r1, #1
	ldr	r2, [r7, #76]
	lsls	r1, r1, r2
	movs	r2, r1
	str	r2, [r3]
	b	.L126
.L125:
	.loc 1 51 0 discriminator 319
	ldr	r3, [r7, #76]
	cmp	r3, #63
	bgt	.L126
	.loc 1 51 0 discriminator 321
	ldr	r3, .L161
	ldr	r2, [r7, #76]
	subs	r2, r2, #32
	movs	r1, #1
	lsls	r1, r1, r2
	movs	r2, r1
	str	r2, [r3]
.L126:
.LBE56:
	.loc 1 51 0 discriminator 323
	movs	r0, #2
	bl	USC_Pause_us
	ldr	r3, [r7, #88]
	cmp	r3, #0
	beq	.L127
	.loc 1 51 0 discriminator 324
	movs	r3, #166
	lsls	r3, r3, #1
	adds	r3, r7, r3
	ldr	r3, [r3]
	movs	r2, #1
	orrs	r3, r2
	movs	r2, #166
	lsls	r2, r2, #1
	adds	r2, r7, r2
	str	r3, [r2]
.L127:
	.loc 1 51 0 discriminator 326
	movs	r3, #168
	lsls	r3, r3, #1
	adds	r3, r7, r3
	ldr	r3, [r3]
	adds	r3, r3, #1
	movs	r2, #168
	lsls	r2, r2, #1
	adds	r2, r7, r2
	str	r3, [r2]
.L116:
	.loc 1 51 0 discriminator 327
	movs	r3, #168
	lsls	r3, r3, #1
	adds	r3, r7, r3
	ldr	r3, [r3]
	cmp	r3, #7
	bhi	.LCB2553
	b	.L128	@long jump
.LCB2553:
	.loc 1 51 0 discriminator 329
	movs	r3, #120
	adds	r3, r3, #255
	adds	r3, r7, r3
	ldrb	r3, [r3]
	cmp	r3, #0
	beq	.L129
.LBB57:
	.loc 1 51 0 discriminator 330
	movs	r3, #15
	str	r3, [r7, #72]
	ldr	r3, [r7, #72]
	cmp	r3, #31
	bgt	.L130
	.loc 1 51 0 discriminator 332
	ldr	r3, .L161+4
	movs	r1, #1
	ldr	r2, [r7, #72]
	lsls	r1, r1, r2
	movs	r2, r1
	str	r2, [r3]
	b	.L132
.L130:
	.loc 1 51 0 discriminator 333
	ldr	r3, [r7, #72]
	cmp	r3, #63
	bgt	.L132
	.loc 1 51 0 discriminator 334
	ldr	r3, .L161+8
	ldr	r2, [r7, #72]
	subs	r2, r2, #32
	movs	r1, #1
	lsls	r1, r1, r2
	movs	r2, r1
	str	r2, [r3]
	b	.L132
.L162:
	.align	2
.L161:
	.word	-1610481644
	.word	-1610481656
	.word	-1610481640
	.word	-1610480640
	.word	-1610480624
	.word	-1610480888
	.word	-1610480872
	.word	-1610481660
.L129:
.LBE57:
.LBB58:
	.loc 1 51 0 discriminator 331
	movs	r3, #15
	str	r3, [r7, #68]
	ldr	r3, [r7, #68]
	cmp	r3, #31
	bgt	.L133
	.loc 1 51 0 discriminator 335
	movs	r2, #1
	ldr	r3, [r7, #68]
	lsls	r2, r2, r3
	movs	r3, r2
	str	r3, [r7, #64]
	ldr	r3, .L163
	ldr	r2, [r7, #64]
	str	r2, [r3]
	b	.L134
.L133:
	.loc 1 51 0 discriminator 336
	ldr	r3, [r7, #68]
	cmp	r3, #63
	bgt	.L134
	.loc 1 51 0 discriminator 338
	ldr	r3, [r7, #68]
	subs	r3, r3, #32
	movs	r2, #1
	lsls	r2, r2, r3
	movs	r3, r2
	str	r3, [r7, #64]
	ldr	r3, .L163+4
	ldr	r2, [r7, #64]
	str	r2, [r3]
.L134:
.LBE58:
.LBB59:
	.loc 1 51 0 discriminator 340
	movs	r3, #15
	str	r3, [r7, #60]
	ldr	r3, [r7, #60]
	cmp	r3, #31
	bgt	.L135
	.loc 1 51 0 discriminator 341
	ldr	r3, .L163+8
	movs	r1, #1
	ldr	r2, [r7, #60]
	lsls	r1, r1, r2
	movs	r2, r1
	str	r2, [r3]
	b	.L132
.L135:
	.loc 1 51 0 discriminator 342
	ldr	r3, [r7, #60]
	cmp	r3, #63
	bgt	.L132
	.loc 1 51 0 discriminator 344
	ldr	r3, .L163+12
	ldr	r2, [r7, #60]
	subs	r2, r2, #32
	movs	r1, #1
	lsls	r1, r1, r2
	movs	r2, r1
	str	r2, [r3]
.L132:
.LBE59:
.LBB60:
	.loc 1 51 0 discriminator 346
	movs	r3, #14
	str	r3, [r7, #56]
	ldr	r3, [r7, #56]
	cmp	r3, #31
	bgt	.L136
	.loc 1 51 0 discriminator 347
	ldr	r3, .L163+16
	movs	r1, #1
	ldr	r2, [r7, #56]
	lsls	r1, r1, r2
	movs	r2, r1
	str	r2, [r3]
	b	.L137
.L136:
	.loc 1 51 0 discriminator 348
	ldr	r3, [r7, #56]
	cmp	r3, #63
	bgt	.L137
	.loc 1 51 0 discriminator 350
	ldr	r3, .L163+20
	ldr	r2, [r7, #56]
	subs	r2, r2, #32
	movs	r1, #1
	lsls	r1, r1, r2
	movs	r2, r1
	str	r2, [r3]
.L137:
.LBE60:
	.loc 1 51 0 discriminator 352
	movs	r0, #2
	bl	USC_Pause_us
.LBB61:
	movs	r3, #14
	str	r3, [r7, #52]
	ldr	r3, [r7, #52]
	cmp	r3, #31
	bgt	.L138
	.loc 1 51 0 discriminator 353
	movs	r2, #1
	ldr	r3, [r7, #52]
	lsls	r2, r2, r3
	movs	r3, r2
	str	r3, [r7, #48]
	ldr	r3, .L163
	ldr	r2, [r7, #48]
	str	r2, [r3]
	b	.L139
.L138:
	.loc 1 51 0 discriminator 354
	ldr	r3, [r7, #52]
	cmp	r3, #63
	bgt	.L139
	.loc 1 51 0 discriminator 356
	ldr	r3, [r7, #52]
	subs	r3, r3, #32
	movs	r2, #1
	lsls	r2, r2, r3
	movs	r3, r2
	str	r3, [r7, #48]
	ldr	r3, .L163+4
	ldr	r2, [r7, #48]
	str	r2, [r3]
.L139:
.LBE61:
.LBB62:
	.loc 1 51 0 discriminator 358
	movs	r3, #14
	str	r3, [r7, #44]
	ldr	r3, [r7, #44]
	cmp	r3, #31
	bgt	.L140
	.loc 1 51 0 discriminator 359
	ldr	r3, .L163+8
	movs	r1, #1
	ldr	r2, [r7, #44]
	lsls	r1, r1, r2
	movs	r2, r1
	str	r2, [r3]
	b	.L141
.L140:
	.loc 1 51 0 discriminator 360
	ldr	r3, [r7, #44]
	cmp	r3, #63
	bgt	.L141
	.loc 1 51 0 discriminator 362
	ldr	r3, .L163+12
	ldr	r2, [r7, #44]
	subs	r2, r2, #32
	movs	r1, #1
	lsls	r1, r1, r2
	movs	r2, r1
	str	r2, [r3]
.L141:
.LBE62:
	.loc 1 51 0 discriminator 364
	movs	r0, #2
	bl	USC_Pause_us
	movs	r3, #184
	lsls	r3, r3, #1
	adds	r3, r7, r3
	ldr	r3, [r3]
	adds	r2, r3, #1
	movs	r1, #184
	lsls	r1, r1, #1
	adds	r1, r7, r1
	str	r2, [r1]
	movs	r2, #166
	lsls	r2, r2, #1
	adds	r2, r7, r2
	ldr	r2, [r2]
	lsls	r2, r2, #24
	lsrs	r2, r2, #24
	strb	r2, [r3]
.L113:
.LBE51:
	.loc 1 51 0 discriminator 365
	movs	r3, #112
	adds	r3, r3, #255
	adds	r3, r7, r3
	ldrb	r3, [r3]
	cmp	r3, #0
	beq	.LCB2785
	b	.L142	@long jump
.LCB2785:
	.loc 1 51 0 discriminator 367
	movs	r3, #120
	adds	r3, r3, #255
	adds	r3, r7, r3
	movs	r2, #0
	strb	r2, [r3]
.L17:
	.loc 1 51 0 is_stmt 1 discriminator 368
	movs	r3, #112
	adds	r3, r3, #255
	adds	r3, r7, r3
	ldrb	r3, [r3]
	cmp	r3, #0
	beq	.L46
	.loc 1 51 0 is_stmt 0 discriminator 369
	movs	r3, #184
	lsls	r3, r3, #1
	adds	r3, r7, r3
	ldr	r3, [r3]
	cmp	r3, #0
	beq	.LCB2804
	bl	.L143	@far jump
.LCB2804:
	b	.L46
.L152:
	.loc 1 51 0 is_stmt 1
	nop
.L46:
	.loc 1 51 0 is_stmt 0 discriminator 372
	movs	r3, #120
	adds	r3, r3, #255
	adds	r3, r7, r3
	ldrb	r3, [r3]
	rsbs	r2, r3, #0
	adcs	r3, r3, r2
	lsls	r3, r3, #24
	lsrs	r2, r3, #24
	ldr	r3, .L163+24
	movs	r1, #188
	lsls	r1, r1, #1
	mov	ip, r1
	add	ip, ip, r7
	add	r3, r3, ip
	strb	r2, [r3]
.LBB63:
	movs	r3, #15
	str	r3, [r7, #36]
	ldr	r3, [r7, #36]
	cmp	r3, #31
	bgt	.L144
	.loc 1 51 0 discriminator 373
	movs	r2, #1
	ldr	r3, [r7, #36]
	lsls	r2, r2, r3
	movs	r3, r2
	str	r3, [r7, #32]
	ldr	r3, .L163
	ldr	r2, [r7, #32]
	str	r2, [r3]
	b	.L145
.L144:
	.loc 1 51 0 discriminator 374
	ldr	r3, [r7, #36]
	cmp	r3, #63
	bgt	.L145
	.loc 1 51 0 discriminator 376
	ldr	r3, [r7, #36]
	subs	r3, r3, #32
	movs	r2, #1
	lsls	r2, r2, r3
	movs	r3, r2
	str	r3, [r7, #32]
	ldr	r3, .L163+4
	ldr	r2, [r7, #32]
	str	r2, [r3]
.L145:
.LBE63:
.LBB64:
	.loc 1 51 0 discriminator 378
	movs	r3, #15
	str	r3, [r7, #28]
	ldr	r3, [r7, #28]
	cmp	r3, #31
	bgt	.L146
	.loc 1 51 0 discriminator 379
	ldr	r3, .L163+8
	movs	r1, #1
	ldr	r2, [r7, #28]
	lsls	r1, r1, r2
	movs	r2, r1
	str	r2, [r3]
	b	.L147
.L146:
	.loc 1 51 0 discriminator 380
	ldr	r3, [r7, #28]
	cmp	r3, #63
	bgt	.L147
	.loc 1 51 0 discriminator 382
	ldr	r3, .L163+12
	ldr	r2, [r7, #28]
	subs	r2, r2, #32
	movs	r1, #1
	lsls	r1, r1, r2
	movs	r2, r1
	str	r2, [r3]
.L147:
.LBE64:
	.loc 1 51 0 discriminator 384
	movs	r0, #1
	bl	USC_Pause_us
.LBB65:
	movs	r3, #14
	str	r3, [r7, #24]
	ldr	r3, [r7, #24]
	cmp	r3, #31
	bgt	.L148
	.loc 1 51 0 discriminator 385
	ldr	r3, .L163+16
	movs	r1, #1
	ldr	r2, [r7, #24]
	lsls	r1, r1, r2
	movs	r2, r1
	str	r2, [r3]
	b	.L149
.L148:
	.loc 1 51 0 discriminator 386
	ldr	r3, [r7, #24]
	cmp	r3, #63
	bgt	.L149
	.loc 1 51 0 discriminator 388
	ldr	r3, .L163+20
	ldr	r2, [r7, #24]
	subs	r2, r2, #32
	movs	r1, #1
	lsls	r1, r1, r2
	movs	r2, r1
	str	r2, [r3]
.L149:
.LBE65:
	.loc 1 51 0 discriminator 390
	movs	r0, #1
	bl	USC_Pause_us
.LBB66:
	movs	r3, #15
	str	r3, [r7, #20]
	ldr	r3, [r7, #20]
	cmp	r3, #31
	bgt	.L150
	.loc 1 51 0 discriminator 391
	ldr	r3, .L163+16
	movs	r1, #1
	ldr	r2, [r7, #20]
	lsls	r1, r1, r2
	movs	r2, r1
	str	r2, [r3]
	b	.L151
.L150:
	.loc 1 51 0 discriminator 392
	ldr	r3, [r7, #20]
	cmp	r3, #63
	bgt	.L151
	.loc 1 51 0 discriminator 394
	ldr	r3, .L163+20
	ldr	r2, [r7, #20]
	subs	r2, r2, #32
	movs	r1, #1
	lsls	r1, r1, r2
	movs	r2, r1
	str	r2, [r3]
.L151:
.LBE66:
	.loc 1 51 0 discriminator 396
	movs	r0, #1
	bl	USC_Pause_us
.LBE3:
	.loc 1 52 0 is_stmt 1 discriminator 396
	ldr	r3, .L163+24
	movs	r2, #188
	lsls	r2, r2, #1
	mov	ip, r2
	add	ip, ip, r7
	add	r3, r3, ip
	ldrb	r3, [r3]
	b	.L3
.L4:
.LBE2:
	.loc 1 54 0
	movs	r3, #1
.L3:
	.loc 1 55 0
	movs	r0, r3
	mov	sp, r7
	add	sp, sp, #376
	@ sp needed
	pop	{r7, pc}
.L164:
	.align	2
.L163:
	.word	-1610480888
	.word	-1610480872
	.word	-1610481660
	.word	-1610481644
	.word	-1610481656
	.word	-1610481640
	.word	-333
	.cfi_endproc
.LFE1:
	.size	FT6236_ReadData, .-FT6236_ReadData
	.section	.text.FT6236_WriteData,"ax",%progbits
	.align	2
	.global	FT6236_WriteData
	.code	16
	.thumb_func
	.type	FT6236_WriteData, %function
FT6236_WriteData:
.LFB2:
	.loc 1 58 0
	.cfi_startproc
	@ args = 0, pretend = 0, frame = 280
	@ frame_needed = 1, uses_anonymous_args = 0
	push	{r7, lr}
	.cfi_def_cfa_offset 8
	.cfi_offset 7, -8
	.cfi_offset 14, -4
	sub	sp, sp, #280
	.cfi_def_cfa_offset 288
	add	r7, sp, #0
	.cfi_def_cfa_register 7
	str	r1, [r7, #8]
	str	r2, [r7, #4]
	ldr	r3, .L277
	movs	r2, #140
	lsls	r2, r2, #1
	mov	ip, r2
	add	ip, ip, r7
	add	r3, r3, ip
	adds	r2, r0, #0
	strb	r2, [r3]
	.loc 1 59 0
	ldr	r3, [r7, #8]
	cmp	r3, #0
	bne	.L166
	.loc 1 59 0 discriminator 1
	movs	r3, #0
	bl	.L167	@ far jump
.L166:
	.loc 1 60 0
	ldr	r3, [r7, #4]
	cmp	r3, #0
	bne	.LCB3023
	bl	.L168	@far jump
.LCB3023:
.LBB67:
.LBB68:
	.loc 1 64 0
	movs	r3, #24
	adds	r3, r3, #255
	adds	r3, r7, r3
	movs	r2, #1
	strb	r2, [r3]
	ldr	r3, [r7, #8]
	movs	r2, #136
	lsls	r2, r2, #1
	adds	r2, r7, r2
	str	r3, [r2]
	movs	r3, #16
	adds	r3, r3, #255
	adds	r3, r7, r3
	ldr	r2, [r7, #4]
	strb	r2, [r3]
.LBB69:
	movs	r3, #15
	movs	r2, #240
	adds	r2, r7, r2
	str	r3, [r2]
	movs	r3, #240
	adds	r3, r7, r3
	ldr	r3, [r3]
	cmp	r3, #31
	bgt	.L169
	.loc 1 64 0 is_stmt 0 discriminator 1
	ldr	r3, .L277+4
	movs	r1, #1
	movs	r2, #240
	adds	r2, r7, r2
	ldr	r2, [r2]
	lsls	r1, r1, r2
	movs	r2, r1
	str	r2, [r3]
	b	.L170
.L169:
	.loc 1 64 0 discriminator 2
	movs	r3, #240
	adds	r3, r7, r3
	ldr	r3, [r3]
	cmp	r3, #63
	bgt	.L170
	.loc 1 64 0 discriminator 4
	ldr	r3, .L277+8
	movs	r2, #240
	adds	r2, r7, r2
	ldr	r2, [r2]
	subs	r2, r2, #32
	movs	r1, #1
	lsls	r1, r1, r2
	movs	r2, r1
	str	r2, [r3]
.L170:
.LBE69:
.LBB70:
	.loc 1 64 0 discriminator 6
	movs	r3, #14
	movs	r2, #236
	adds	r2, r7, r2
	str	r3, [r2]
	movs	r3, #236
	adds	r3, r7, r3
	ldr	r3, [r3]
	cmp	r3, #31
	bgt	.L171
	.loc 1 64 0 discriminator 7
	ldr	r3, .L277+4
	movs	r1, #1
	movs	r2, #236
	adds	r2, r7, r2
	ldr	r2, [r2]
	lsls	r1, r1, r2
	movs	r2, r1
	str	r2, [r3]
	b	.L172
.L171:
	.loc 1 64 0 discriminator 8
	movs	r3, #236
	adds	r3, r7, r3
	ldr	r3, [r3]
	cmp	r3, #63
	bgt	.L172
	.loc 1 64 0 discriminator 10
	ldr	r3, .L277+8
	movs	r2, #236
	adds	r2, r7, r2
	ldr	r2, [r2]
	subs	r2, r2, #32
	movs	r1, #1
	lsls	r1, r1, r2
	movs	r2, r1
	str	r2, [r3]
.L172:
.LBE70:
	.loc 1 64 0 discriminator 12
	movs	r0, #1
	bl	USC_Pause_us
.LBB71:
	movs	r3, #15
	movs	r2, #232
	adds	r2, r7, r2
	str	r3, [r2]
	movs	r3, #232
	adds	r3, r7, r3
	ldr	r3, [r3]
	cmp	r3, #31
	bgt	.L173
	.loc 1 64 0 discriminator 13
	movs	r2, #1
	movs	r3, #232
	adds	r3, r7, r3
	ldr	r3, [r3]
	lsls	r2, r2, r3
	movs	r3, r2
	movs	r2, #228
	adds	r2, r7, r2
	str	r3, [r2]
	ldr	r3, .L277+12
	movs	r2, #228
	adds	r2, r7, r2
	ldr	r2, [r2]
	str	r2, [r3]
	b	.L174
.L173:
	.loc 1 64 0 discriminator 14
	movs	r3, #232
	adds	r3, r7, r3
	ldr	r3, [r3]
	cmp	r3, #63
	bgt	.L174
	.loc 1 64 0 discriminator 16
	movs	r3, #232
	adds	r3, r7, r3
	ldr	r3, [r3]
	subs	r3, r3, #32
	movs	r2, #1
	lsls	r2, r2, r3
	movs	r3, r2
	movs	r2, #228
	adds	r2, r7, r2
	str	r3, [r2]
	ldr	r3, .L277+16
	movs	r2, #228
	adds	r2, r7, r2
	ldr	r2, [r2]
	str	r2, [r3]
.L174:
.LBE71:
.LBB72:
	.loc 1 64 0 discriminator 18
	movs	r3, #15
	movs	r2, #224
	adds	r2, r7, r2
	str	r3, [r2]
	movs	r3, #224
	adds	r3, r7, r3
	ldr	r3, [r3]
	cmp	r3, #31
	bgt	.L175
	.loc 1 64 0 discriminator 19
	ldr	r3, .L277+20
	movs	r1, #1
	movs	r2, #224
	adds	r2, r7, r2
	ldr	r2, [r2]
	lsls	r1, r1, r2
	movs	r2, r1
	str	r2, [r3]
	b	.L176
.L175:
	.loc 1 64 0 discriminator 20
	movs	r3, #224
	adds	r3, r7, r3
	ldr	r3, [r3]
	cmp	r3, #63
	bgt	.L176
	.loc 1 64 0 discriminator 22
	ldr	r3, .L277+24
	movs	r2, #224
	adds	r2, r7, r2
	ldr	r2, [r2]
	subs	r2, r2, #32
	movs	r1, #1
	lsls	r1, r1, r2
	movs	r2, r1
	str	r2, [r3]
.L176:
.LBE72:
	.loc 1 64 0 discriminator 24
	movs	r0, #1
	bl	USC_Pause_us
.LBB73:
	movs	r3, #14
	movs	r2, #220
	adds	r2, r7, r2
	str	r3, [r2]
	movs	r3, #220
	adds	r3, r7, r3
	ldr	r3, [r3]
	cmp	r3, #31
	bgt	.L177
	.loc 1 64 0 discriminator 25
	movs	r2, #1
	movs	r3, #220
	adds	r3, r7, r3
	ldr	r3, [r3]
	lsls	r2, r2, r3
	movs	r3, r2
	movs	r2, #216
	adds	r2, r7, r2
	str	r3, [r2]
	ldr	r3, .L277+12
	movs	r2, #216
	adds	r2, r7, r2
	ldr	r2, [r2]
	str	r2, [r3]
	b	.L178
.L177:
	.loc 1 64 0 discriminator 26
	movs	r3, #220
	adds	r3, r7, r3
	ldr	r3, [r3]
	cmp	r3, #63
	bgt	.L178
	.loc 1 64 0 discriminator 28
	movs	r3, #220
	adds	r3, r7, r3
	ldr	r3, [r3]
	subs	r3, r3, #32
	movs	r2, #1
	lsls	r2, r2, r3
	movs	r3, r2
	movs	r2, #216
	adds	r2, r7, r2
	str	r3, [r2]
	ldr	r3, .L277+16
	movs	r2, #216
	adds	r2, r7, r2
	ldr	r2, [r2]
	str	r2, [r3]
.L178:
.LBE73:
.LBB74:
	.loc 1 64 0 discriminator 30
	movs	r3, #14
	movs	r2, #212
	adds	r2, r7, r2
	str	r3, [r2]
	movs	r3, #212
	adds	r3, r7, r3
	ldr	r3, [r3]
	cmp	r3, #31
	bgt	.L179
	.loc 1 64 0 discriminator 31
	ldr	r3, .L277+20
	movs	r1, #1
	movs	r2, #212
	adds	r2, r7, r2
	ldr	r2, [r2]
	lsls	r1, r1, r2
	movs	r2, r1
	str	r2, [r3]
	b	.L180
.L179:
	.loc 1 64 0 discriminator 32
	movs	r3, #212
	adds	r3, r7, r3
	ldr	r3, [r3]
	cmp	r3, #63
	bgt	.L180
	.loc 1 64 0 discriminator 34
	ldr	r3, .L277+24
	movs	r2, #212
	adds	r2, r7, r2
	ldr	r2, [r2]
	subs	r2, r2, #32
	movs	r1, #1
	lsls	r1, r1, r2
	movs	r2, r1
	str	r2, [r3]
.L180:
.LBE74:
	.loc 1 64 0 discriminator 36
	movs	r0, #1
	bl	USC_Pause_us
.LBB75:
	movs	r3, #8
	adds	r3, r3, #255
	adds	r3, r7, r3
	movs	r2, #112
	strb	r2, [r3]
	movs	r3, #0
	movs	r2, #132
	lsls	r2, r2, #1
	adds	r2, r7, r2
	str	r3, [r2]
	b	.L181
.L195:
	.loc 1 64 0 discriminator 75
	movs	r3, #8
	adds	r3, r3, #255
	adds	r3, r7, r3
	ldrb	r3, [r3]
	lsls	r3, r3, #24
	asrs	r3, r3, #24
	bpl	.L182
.LBB76:
	.loc 1 64 0 discriminator 39
	movs	r3, #15
	movs	r2, #208
	adds	r2, r7, r2
	str	r3, [r2]
	movs	r3, #208
	adds	r3, r7, r3
	ldr	r3, [r3]
	cmp	r3, #31
	bgt	.L183
	.loc 1 64 0 discriminator 41
	ldr	r3, .L277+4
	movs	r1, #1
	movs	r2, #208
	adds	r2, r7, r2
	ldr	r2, [r2]
	lsls	r1, r1, r2
	movs	r2, r1
	str	r2, [r3]
	b	.L185
.L183:
	.loc 1 64 0 discriminator 42
	movs	r3, #208
	adds	r3, r7, r3
	ldr	r3, [r3]
	cmp	r3, #63
	bgt	.L185
	.loc 1 64 0 discriminator 43
	ldr	r3, .L277+8
	movs	r2, #208
	adds	r2, r7, r2
	ldr	r2, [r2]
	subs	r2, r2, #32
	movs	r1, #1
	lsls	r1, r1, r2
	movs	r2, r1
	str	r2, [r3]
	b	.L185
.L182:
.LBE76:
.LBB77:
	.loc 1 64 0 discriminator 40
	movs	r3, #15
	movs	r2, #204
	adds	r2, r7, r2
	str	r3, [r2]
	movs	r3, #204
	adds	r3, r7, r3
	ldr	r3, [r3]
	cmp	r3, #31
	bgt	.L186
	.loc 1 64 0 discriminator 44
	movs	r2, #1
	movs	r3, #204
	adds	r3, r7, r3
	ldr	r3, [r3]
	lsls	r2, r2, r3
	movs	r3, r2
	movs	r2, #200
	adds	r2, r7, r2
	str	r3, [r2]
	ldr	r3, .L277+12
	movs	r2, #200
	adds	r2, r7, r2
	ldr	r2, [r2]
	str	r2, [r3]
	b	.L187
.L186:
	.loc 1 64 0 discriminator 45
	movs	r3, #204
	adds	r3, r7, r3
	ldr	r3, [r3]
	cmp	r3, #63
	bgt	.L187
	.loc 1 64 0 discriminator 47
	movs	r3, #204
	adds	r3, r7, r3
	ldr	r3, [r3]
	subs	r3, r3, #32
	movs	r2, #1
	lsls	r2, r2, r3
	movs	r3, r2
	movs	r2, #200
	adds	r2, r7, r2
	str	r3, [r2]
	ldr	r3, .L277+16
	movs	r2, #200
	adds	r2, r7, r2
	ldr	r2, [r2]
	str	r2, [r3]
.L187:
.LBE77:
.LBB78:
	.loc 1 64 0 discriminator 49
	movs	r3, #15
	movs	r2, #196
	adds	r2, r7, r2
	str	r3, [r2]
	movs	r3, #196
	adds	r3, r7, r3
	ldr	r3, [r3]
	cmp	r3, #31
	bgt	.L188
	.loc 1 64 0 discriminator 50
	ldr	r3, .L277+20
	movs	r1, #1
	movs	r2, #196
	adds	r2, r7, r2
	ldr	r2, [r2]
	lsls	r1, r1, r2
	movs	r2, r1
	str	r2, [r3]
	b	.L185
.L188:
	.loc 1 64 0 discriminator 51
	movs	r3, #196
	adds	r3, r7, r3
	ldr	r3, [r3]
	cmp	r3, #63
	bgt	.L185
	.loc 1 64 0 discriminator 53
	ldr	r3, .L277+24
	movs	r2, #196
	adds	r2, r7, r2
	ldr	r2, [r2]
	subs	r2, r2, #32
	movs	r1, #1
	lsls	r1, r1, r2
	movs	r2, r1
	str	r2, [r3]
.L185:
.LBE78:
	.loc 1 64 0 discriminator 55
	movs	r0, #1
	bl	USC_Pause_us
.LBB79:
	movs	r3, #14
	movs	r2, #192
	adds	r2, r7, r2
	str	r3, [r2]
	movs	r3, #192
	adds	r3, r7, r3
	ldr	r3, [r3]
	cmp	r3, #31
	bgt	.L189
	.loc 1 64 0 discriminator 56
	ldr	r3, .L277+4
	movs	r1, #1
	movs	r2, #192
	adds	r2, r7, r2
	ldr	r2, [r2]
	lsls	r1, r1, r2
	movs	r2, r1
	str	r2, [r3]
	b	.L190
.L189:
	.loc 1 64 0 discriminator 57
	movs	r3, #192
	adds	r3, r7, r3
	ldr	r3, [r3]
	cmp	r3, #63
	bgt	.L190
	.loc 1 64 0 discriminator 59
	ldr	r3, .L277+8
	movs	r2, #192
	adds	r2, r7, r2
	ldr	r2, [r2]
	subs	r2, r2, #32
	movs	r1, #1
	lsls	r1, r1, r2
	movs	r2, r1
	str	r2, [r3]
.L190:
.LBE79:
	.loc 1 64 0 discriminator 61
	movs	r0, #2
	bl	USC_Pause_us
.LBB80:
	movs	r3, #14
	movs	r2, #188
	adds	r2, r7, r2
	str	r3, [r2]
	movs	r3, #188
	adds	r3, r7, r3
	ldr	r3, [r3]
	cmp	r3, #31
	bgt	.L191
	.loc 1 64 0 discriminator 62
	movs	r2, #1
	movs	r3, #188
	adds	r3, r7, r3
	ldr	r3, [r3]
	lsls	r2, r2, r3
	movs	r3, r2
	movs	r2, #184
	adds	r2, r7, r2
	str	r3, [r2]
	ldr	r3, .L277+12
	movs	r2, #184
	adds	r2, r7, r2
	ldr	r2, [r2]
	str	r2, [r3]
	b	.L192
.L278:
	.align	2
.L277:
	.word	-265
	.word	-1610481656
	.word	-1610481640
	.word	-1610480888
	.word	-1610480872
	.word	-1610481660
	.word	-1610481644
.L191:
	.loc 1 64 0 discriminator 63
	movs	r3, #188
	adds	r3, r7, r3
	ldr	r3, [r3]
	cmp	r3, #63
	bgt	.L192
	.loc 1 64 0 discriminator 65
	movs	r3, #188
	adds	r3, r7, r3
	ldr	r3, [r3]
	subs	r3, r3, #32
	movs	r2, #1
	lsls	r2, r2, r3
	movs	r3, r2
	movs	r2, #184
	adds	r2, r7, r2
	str	r3, [r2]
	ldr	r3, .L279
	movs	r2, #184
	adds	r2, r7, r2
	ldr	r2, [r2]
	str	r2, [r3]
.L192:
.LBE80:
.LBB81:
	.loc 1 64 0 discriminator 67
	movs	r3, #14
	movs	r2, #180
	adds	r2, r7, r2
	str	r3, [r2]
	movs	r3, #180
	adds	r3, r7, r3
	ldr	r3, [r3]
	cmp	r3, #31
	bgt	.L193
	.loc 1 64 0 discriminator 68
	ldr	r3, .L279+4
	movs	r1, #1
	movs	r2, #180
	adds	r2, r7, r2
	ldr	r2, [r2]
	lsls	r1, r1, r2
	movs	r2, r1
	str	r2, [r3]
	b	.L194
.L193:
	.loc 1 64 0 discriminator 69
	movs	r3, #180
	adds	r3, r7, r3
	ldr	r3, [r3]
	cmp	r3, #63
	bgt	.L194
	.loc 1 64 0 discriminator 71
	ldr	r3, .L279+8
	movs	r2, #180
	adds	r2, r7, r2
	ldr	r2, [r2]
	subs	r2, r2, #32
	movs	r1, #1
	lsls	r1, r1, r2
	movs	r2, r1
	str	r2, [r3]
.L194:
.LBE81:
	.loc 1 64 0 discriminator 73
	movs	r0, #1
	bl	USC_Pause_us
	movs	r3, #8
	adds	r3, r3, #255
	adds	r2, r7, r3
	movs	r3, #8
	adds	r3, r3, #255
	adds	r3, r7, r3
	ldrb	r3, [r3]
	adds	r3, r3, r3
	strb	r3, [r2]
	movs	r3, #132
	lsls	r3, r3, #1
	adds	r3, r7, r3
	ldr	r3, [r3]
	adds	r3, r3, #1
	movs	r2, #132
	lsls	r2, r2, #1
	adds	r2, r7, r2
	str	r3, [r2]
.L181:
	.loc 1 64 0 discriminator 74
	movs	r3, #132
	lsls	r3, r3, #1
	adds	r3, r7, r3
	ldr	r3, [r3]
	cmp	r3, #7
	bhi	.LCB3631
	b	.L195	@long jump
.LCB3631:
.LBB82:
	.loc 1 64 0 discriminator 76
	movs	r3, #15
	movs	r2, #176
	adds	r2, r7, r2
	str	r3, [r2]
	movs	r3, #176
	adds	r3, r7, r3
	ldr	r3, [r3]
	cmp	r3, #31
	bgt	.L196
	.loc 1 64 0 discriminator 77
	ldr	r3, .L279+12
	movs	r1, #1
	movs	r2, #176
	adds	r2, r7, r2
	ldr	r2, [r2]
	lsls	r1, r1, r2
	movs	r2, r1
	str	r2, [r3]
	b	.L197
.L196:
	.loc 1 64 0 discriminator 78
	movs	r3, #176
	adds	r3, r7, r3
	ldr	r3, [r3]
	cmp	r3, #63
	bgt	.L197
	.loc 1 64 0 discriminator 80
	ldr	r3, .L279+16
	movs	r2, #176
	adds	r2, r7, r2
	ldr	r2, [r2]
	subs	r2, r2, #32
	movs	r1, #1
	lsls	r1, r1, r2
	movs	r2, r1
	str	r2, [r3]
.L197:
.LBE82:
	.loc 1 64 0 discriminator 82
	movs	r0, #2
	bl	USC_Pause_us
.LBB83:
	movs	r3, #14
	movs	r2, #172
	adds	r2, r7, r2
	str	r3, [r2]
	movs	r3, #172
	adds	r3, r7, r3
	ldr	r3, [r3]
	cmp	r3, #31
	bgt	.L198
	.loc 1 64 0 discriminator 83
	ldr	r3, .L279+12
	movs	r1, #1
	movs	r2, #172
	adds	r2, r7, r2
	ldr	r2, [r2]
	lsls	r1, r1, r2
	movs	r2, r1
	str	r2, [r3]
	b	.L199
.L198:
	.loc 1 64 0 discriminator 84
	movs	r3, #172
	adds	r3, r7, r3
	ldr	r3, [r3]
	cmp	r3, #63
	bgt	.L199
	.loc 1 64 0 discriminator 86
	ldr	r3, .L279+16
	movs	r2, #172
	adds	r2, r7, r2
	ldr	r2, [r2]
	subs	r2, r2, #32
	movs	r1, #1
	lsls	r1, r1, r2
	movs	r2, r1
	str	r2, [r3]
.L199:
.LBE83:
	.loc 1 64 0 discriminator 88
	movs	r0, #2
	bl	USC_Pause_us
.LBB84:
	movs	r3, #15
	movs	r2, #168
	adds	r2, r7, r2
	str	r3, [r2]
	movs	r3, #168
	adds	r3, r7, r3
	ldr	r3, [r3]
	cmp	r3, #31
	bgt	.L200
	.loc 1 64 0 discriminator 89
	ldr	r3, .L279+20
	ldr	r2, [r3]
	movs	r3, #168
	adds	r3, r7, r3
	ldr	r3, [r3]
	lsrs	r2, r2, r3
	movs	r3, r2
	movs	r2, #1
	ands	r3, r2
	subs	r2, r3, #1
	sbcs	r3, r3, r2
	lsls	r3, r3, #24
	lsrs	r3, r3, #24
	b	.L201
.L200:
	.loc 1 64 0 discriminator 90
	movs	r3, #168
	adds	r3, r7, r3
	ldr	r3, [r3]
	cmp	r3, #63
	bgt	.L202
	.loc 1 64 0 discriminator 92
	ldr	r3, .L279+24
	ldr	r2, [r3]
	movs	r3, #168
	adds	r3, r7, r3
	ldr	r3, [r3]
	subs	r3, r3, #32
	lsrs	r2, r2, r3
	movs	r3, r2
	movs	r2, #1
	ands	r3, r2
	beq	.L202
	.loc 1 64 0 discriminator 94
	movs	r3, #1
	b	.L201
.L202:
	.loc 1 64 0 discriminator 95
	movs	r3, #0
.L201:
.LBE84:
	.loc 1 64 0 discriminator 98
	movs	r2, #132
	lsls	r2, r2, #1
	adds	r2, r7, r2
	str	r3, [r2]
.LBB85:
	movs	r3, #14
	movs	r2, #164
	adds	r2, r7, r2
	str	r3, [r2]
	movs	r3, #164
	adds	r3, r7, r3
	ldr	r3, [r3]
	cmp	r3, #31
	bgt	.L204
	.loc 1 64 0 discriminator 99
	movs	r2, #1
	movs	r3, #164
	adds	r3, r7, r3
	ldr	r3, [r3]
	lsls	r2, r2, r3
	movs	r3, r2
	movs	r2, #160
	adds	r2, r7, r2
	str	r3, [r2]
	ldr	r3, .L279+28
	movs	r2, #160
	adds	r2, r7, r2
	ldr	r2, [r2]
	str	r2, [r3]
	b	.L205
.L204:
	.loc 1 64 0 discriminator 100
	movs	r3, #164
	adds	r3, r7, r3
	ldr	r3, [r3]
	cmp	r3, #63
	bgt	.L205
	.loc 1 64 0 discriminator 102
	movs	r3, #164
	adds	r3, r7, r3
	ldr	r3, [r3]
	subs	r3, r3, #32
	movs	r2, #1
	lsls	r2, r2, r3
	movs	r3, r2
	movs	r2, #160
	adds	r2, r7, r2
	str	r3, [r2]
	ldr	r3, .L279
	movs	r2, #160
	adds	r2, r7, r2
	ldr	r2, [r2]
	str	r2, [r3]
.L205:
.LBE85:
.LBB86:
	.loc 1 64 0 discriminator 104
	movs	r3, #14
	movs	r2, #156
	adds	r2, r7, r2
	str	r3, [r2]
	movs	r3, #156
	adds	r3, r7, r3
	ldr	r3, [r3]
	cmp	r3, #31
	bgt	.L206
	.loc 1 64 0 discriminator 105
	ldr	r3, .L279+4
	movs	r1, #1
	movs	r2, #156
	adds	r2, r7, r2
	ldr	r2, [r2]
	lsls	r1, r1, r2
	movs	r2, r1
	str	r2, [r3]
	b	.L207
.L206:
	.loc 1 64 0 discriminator 106
	movs	r3, #156
	adds	r3, r7, r3
	ldr	r3, [r3]
	cmp	r3, #63
	bgt	.L207
	.loc 1 64 0 discriminator 108
	ldr	r3, .L279+8
	movs	r2, #156
	adds	r2, r7, r2
	ldr	r2, [r2]
	subs	r2, r2, #32
	movs	r1, #1
	lsls	r1, r1, r2
	movs	r2, r1
	str	r2, [r3]
.L207:
.LBE86:
	.loc 1 64 0 discriminator 110
	movs	r0, #2
	bl	USC_Pause_us
	movs	r3, #132
	lsls	r3, r3, #1
	adds	r3, r7, r3
	ldr	r3, [r3]
	subs	r2, r3, #1
	sbcs	r3, r3, r2
	lsls	r3, r3, #24
	lsrs	r2, r3, #24
	movs	r3, #24
	adds	r3, r3, #255
	adds	r3, r7, r3
	strb	r2, [r3]
.LBE75:
	movs	r3, #24
	adds	r3, r3, #255
	adds	r3, r7, r3
	ldrb	r3, [r3]
	cmp	r3, #1
	bne	.LCB3879
	b	.L275	@long jump
.LCB3879:
.LBB87:
	.loc 1 64 0 discriminator 111
	movs	r3, #255
	adds	r3, r7, r3
	ldr	r2, .L279+32
	movs	r1, #140
	lsls	r1, r1, #1
	mov	ip, r1
	add	ip, ip, r7
	add	r2, r2, ip
	ldrb	r2, [r2]
	strb	r2, [r3]
	movs	r3, #0
	adds	r2, r7, #1
	adds	r2, r2, #255
	str	r3, [r2]
	b	.L210
.L224:
	.loc 1 64 0 discriminator 149
	movs	r3, #255
	adds	r3, r7, r3
	ldrb	r3, [r3]
	lsls	r3, r3, #24
	asrs	r3, r3, #24
	bpl	.L211
.LBB88:
	.loc 1 64 0 discriminator 113
	movs	r3, #15
	movs	r2, #152
	adds	r2, r7, r2
	str	r3, [r2]
	movs	r3, #152
	adds	r3, r7, r3
	ldr	r3, [r3]
	cmp	r3, #31
	bgt	.L212
	.loc 1 64 0 discriminator 115
	ldr	r3, .L279+12
	movs	r1, #1
	movs	r2, #152
	adds	r2, r7, r2
	ldr	r2, [r2]
	lsls	r1, r1, r2
	movs	r2, r1
	str	r2, [r3]
	b	.L214
.L212:
	.loc 1 64 0 discriminator 116
	movs	r3, #152
	adds	r3, r7, r3
	ldr	r3, [r3]
	cmp	r3, #63
	bgt	.L214
	.loc 1 64 0 discriminator 117
	ldr	r3, .L279+16
	movs	r2, #152
	adds	r2, r7, r2
	ldr	r2, [r2]
	subs	r2, r2, #32
	movs	r1, #1
	lsls	r1, r1, r2
	movs	r2, r1
	str	r2, [r3]
	b	.L214
.L211:
.LBE88:
.LBB89:
	.loc 1 64 0 discriminator 114
	movs	r3, #15
	movs	r2, #148
	adds	r2, r7, r2
	str	r3, [r2]
	movs	r3, #148
	adds	r3, r7, r3
	ldr	r3, [r3]
	cmp	r3, #31
	bgt	.L215
	.loc 1 64 0 discriminator 118
	movs	r2, #1
	movs	r3, #148
	adds	r3, r7, r3
	ldr	r3, [r3]
	lsls	r2, r2, r3
	movs	r3, r2
	movs	r2, #144
	adds	r2, r7, r2
	str	r3, [r2]
	ldr	r3, .L279+28
	movs	r2, #144
	adds	r2, r7, r2
	ldr	r2, [r2]
	str	r2, [r3]
	b	.L216
.L215:
	.loc 1 64 0 discriminator 119
	movs	r3, #148
	adds	r3, r7, r3
	ldr	r3, [r3]
	cmp	r3, #63
	bgt	.L216
	.loc 1 64 0 discriminator 121
	movs	r3, #148
	adds	r3, r7, r3
	ldr	r3, [r3]
	subs	r3, r3, #32
	movs	r2, #1
	lsls	r2, r2, r3
	movs	r3, r2
	movs	r2, #144
	adds	r2, r7, r2
	str	r3, [r2]
	ldr	r3, .L279
	movs	r2, #144
	adds	r2, r7, r2
	ldr	r2, [r2]
	str	r2, [r3]
.L216:
.LBE89:
.LBB90:
	.loc 1 64 0 discriminator 123
	movs	r3, #15
	movs	r2, #140
	adds	r2, r7, r2
	str	r3, [r2]
	movs	r3, #140
	adds	r3, r7, r3
	ldr	r3, [r3]
	cmp	r3, #31
	bgt	.L217
	.loc 1 64 0 discriminator 124
	ldr	r3, .L279+4
	movs	r1, #1
	movs	r2, #140
	adds	r2, r7, r2
	ldr	r2, [r2]
	lsls	r1, r1, r2
	movs	r2, r1
	str	r2, [r3]
	b	.L214
.L217:
	.loc 1 64 0 discriminator 125
	movs	r3, #140
	adds	r3, r7, r3
	ldr	r3, [r3]
	cmp	r3, #63
	bgt	.L214
	.loc 1 64 0 discriminator 127
	ldr	r3, .L279+8
	movs	r2, #140
	adds	r2, r7, r2
	ldr	r2, [r2]
	subs	r2, r2, #32
	movs	r1, #1
	lsls	r1, r1, r2
	movs	r2, r1
	str	r2, [r3]
.L214:
.LBE90:
	.loc 1 64 0 discriminator 129
	movs	r0, #1
	bl	USC_Pause_us
.LBB91:
	movs	r3, #14
	movs	r2, #136
	adds	r2, r7, r2
	str	r3, [r2]
	movs	r3, #136
	adds	r3, r7, r3
	ldr	r3, [r3]
	cmp	r3, #31
	bgt	.L218
	.loc 1 64 0 discriminator 130
	ldr	r3, .L279+12
	movs	r1, #1
	movs	r2, #136
	adds	r2, r7, r2
	ldr	r2, [r2]
	lsls	r1, r1, r2
	movs	r2, r1
	str	r2, [r3]
	b	.L219
.L280:
	.align	2
.L279:
	.word	-1610480872
	.word	-1610481660
	.word	-1610481644
	.word	-1610481656
	.word	-1610481640
	.word	-1610480640
	.word	-1610480624
	.word	-1610480888
	.word	-265
.L218:
	.loc 1 64 0 discriminator 131
	movs	r3, #136
	adds	r3, r7, r3
	ldr	r3, [r3]
	cmp	r3, #63
	bgt	.L219
	.loc 1 64 0 discriminator 133
	ldr	r3, .L281
	movs	r2, #136
	adds	r2, r7, r2
	ldr	r2, [r2]
	subs	r2, r2, #32
	movs	r1, #1
	lsls	r1, r1, r2
	movs	r2, r1
	str	r2, [r3]
.L219:
.LBE91:
	.loc 1 64 0 discriminator 135
	movs	r0, #2
	bl	USC_Pause_us
.LBB92:
	movs	r3, #14
	movs	r2, #132
	adds	r2, r7, r2
	str	r3, [r2]
	movs	r3, #132
	adds	r3, r7, r3
	ldr	r3, [r3]
	cmp	r3, #31
	bgt	.L220
	.loc 1 64 0 discriminator 136
	movs	r2, #1
	movs	r3, #132
	adds	r3, r7, r3
	ldr	r3, [r3]
	lsls	r2, r2, r3
	movs	r3, r2
	movs	r2, #128
	adds	r2, r7, r2
	str	r3, [r2]
	ldr	r3, .L281+4
	movs	r2, #128
	adds	r2, r7, r2
	ldr	r2, [r2]
	str	r2, [r3]
	b	.L221
.L220:
	.loc 1 64 0 discriminator 137
	movs	r3, #132
	adds	r3, r7, r3
	ldr	r3, [r3]
	cmp	r3, #63
	bgt	.L221
	.loc 1 64 0 discriminator 139
	movs	r3, #132
	adds	r3, r7, r3
	ldr	r3, [r3]
	subs	r3, r3, #32
	movs	r2, #1
	lsls	r2, r2, r3
	movs	r3, r2
	movs	r2, #128
	adds	r2, r7, r2
	str	r3, [r2]
	ldr	r3, .L281+8
	movs	r2, #128
	adds	r2, r7, r2
	ldr	r2, [r2]
	str	r2, [r3]
.L221:
.LBE92:
.LBB93:
	.loc 1 64 0 discriminator 141
	movs	r3, #14
	str	r3, [r7, #124]
	ldr	r3, [r7, #124]
	cmp	r3, #31
	bgt	.L222
	.loc 1 64 0 discriminator 142
	ldr	r3, .L281+12
	movs	r1, #1
	ldr	r2, [r7, #124]
	lsls	r1, r1, r2
	movs	r2, r1
	str	r2, [r3]
	b	.L223
.L222:
	.loc 1 64 0 discriminator 143
	ldr	r3, [r7, #124]
	cmp	r3, #63
	bgt	.L223
	.loc 1 64 0 discriminator 145
	ldr	r3, .L281+16
	ldr	r2, [r7, #124]
	subs	r2, r2, #32
	movs	r1, #1
	lsls	r1, r1, r2
	movs	r2, r1
	str	r2, [r3]
.L223:
.LBE93:
	.loc 1 64 0 discriminator 147
	movs	r0, #1
	bl	USC_Pause_us
	movs	r3, #255
	adds	r2, r7, r3
	movs	r3, #255
	adds	r3, r7, r3
	ldrb	r3, [r3]
	adds	r3, r3, r3
	strb	r3, [r2]
	adds	r3, r7, #1
	adds	r3, r3, #255
	ldr	r3, [r3]
	adds	r3, r3, #1
	adds	r2, r7, #1
	adds	r2, r2, #255
	str	r3, [r2]
.L210:
	.loc 1 64 0 discriminator 148
	adds	r3, r7, #1
	adds	r3, r3, #255
	ldr	r3, [r3]
	cmp	r3, #7
	bhi	.LCB4196
	b	.L224	@long jump
.LCB4196:
.LBB94:
	.loc 1 64 0 discriminator 150
	movs	r3, #15
	str	r3, [r7, #120]
	ldr	r3, [r7, #120]
	cmp	r3, #31
	bgt	.L225
	.loc 1 64 0 discriminator 151
	ldr	r3, .L281+20
	movs	r1, #1
	ldr	r2, [r7, #120]
	lsls	r1, r1, r2
	movs	r2, r1
	str	r2, [r3]
	b	.L226
.L225:
	.loc 1 64 0 discriminator 152
	ldr	r3, [r7, #120]
	cmp	r3, #63
	bgt	.L226
	.loc 1 64 0 discriminator 154
	ldr	r3, .L281
	ldr	r2, [r7, #120]
	subs	r2, r2, #32
	movs	r1, #1
	lsls	r1, r1, r2
	movs	r2, r1
	str	r2, [r3]
.L226:
.LBE94:
	.loc 1 64 0 discriminator 156
	movs	r0, #2
	bl	USC_Pause_us
.LBB95:
	movs	r3, #14
	str	r3, [r7, #116]
	ldr	r3, [r7, #116]
	cmp	r3, #31
	bgt	.L227
	.loc 1 64 0 discriminator 157
	ldr	r3, .L281+20
	movs	r1, #1
	ldr	r2, [r7, #116]
	lsls	r1, r1, r2
	movs	r2, r1
	str	r2, [r3]
	b	.L228
.L227:
	.loc 1 64 0 discriminator 158
	ldr	r3, [r7, #116]
	cmp	r3, #63
	bgt	.L228
	.loc 1 64 0 discriminator 160
	ldr	r3, .L281
	ldr	r2, [r7, #116]
	subs	r2, r2, #32
	movs	r1, #1
	lsls	r1, r1, r2
	movs	r2, r1
	str	r2, [r3]
.L228:
.LBE95:
	.loc 1 64 0 discriminator 162
	movs	r0, #2
	bl	USC_Pause_us
.LBB96:
	movs	r3, #15
	str	r3, [r7, #112]
	ldr	r3, [r7, #112]
	cmp	r3, #31
	bgt	.L229
	.loc 1 64 0 discriminator 163
	ldr	r3, .L281+24
	ldr	r2, [r3]
	ldr	r3, [r7, #112]
	lsrs	r2, r2, r3
	movs	r3, r2
	movs	r2, #1
	ands	r3, r2
	subs	r2, r3, #1
	sbcs	r3, r3, r2
	lsls	r3, r3, #24
	lsrs	r3, r3, #24
	b	.L230
.L229:
	.loc 1 64 0 discriminator 164
	ldr	r3, [r7, #112]
	cmp	r3, #63
	bgt	.L231
	.loc 1 64 0 discriminator 166
	ldr	r3, .L281+28
	ldr	r2, [r3]
	ldr	r3, [r7, #112]
	subs	r3, r3, #32
	lsrs	r2, r2, r3
	movs	r3, r2
	movs	r2, #1
	ands	r3, r2
	beq	.L231
	.loc 1 64 0 discriminator 168
	movs	r3, #1
	b	.L230
.L231:
	.loc 1 64 0 discriminator 169
	movs	r3, #0
.L230:
.LBE96:
	.loc 1 64 0 discriminator 172
	adds	r2, r7, #1
	adds	r2, r2, #255
	str	r3, [r2]
.LBB97:
	movs	r3, #14
	str	r3, [r7, #108]
	ldr	r3, [r7, #108]
	cmp	r3, #31
	bgt	.L233
	.loc 1 64 0 discriminator 173
	movs	r2, #1
	ldr	r3, [r7, #108]
	lsls	r2, r2, r3
	movs	r3, r2
	str	r3, [r7, #104]
	ldr	r3, .L281+4
	ldr	r2, [r7, #104]
	str	r2, [r3]
	b	.L234
.L233:
	.loc 1 64 0 discriminator 174
	ldr	r3, [r7, #108]
	cmp	r3, #63
	bgt	.L234
	.loc 1 64 0 discriminator 176
	ldr	r3, [r7, #108]
	subs	r3, r3, #32
	movs	r2, #1
	lsls	r2, r2, r3
	movs	r3, r2
	str	r3, [r7, #104]
	ldr	r3, .L281+8
	ldr	r2, [r7, #104]
	str	r2, [r3]
.L234:
.LBE97:
.LBB98:
	.loc 1 64 0 discriminator 178
	movs	r3, #14
	str	r3, [r7, #100]
	ldr	r3, [r7, #100]
	cmp	r3, #31
	bgt	.L235
	.loc 1 64 0 discriminator 179
	ldr	r3, .L281+12
	movs	r1, #1
	ldr	r2, [r7, #100]
	lsls	r1, r1, r2
	movs	r2, r1
	str	r2, [r3]
	b	.L236
.L235:
	.loc 1 64 0 discriminator 180
	ldr	r3, [r7, #100]
	cmp	r3, #63
	bgt	.L236
	.loc 1 64 0 discriminator 182
	ldr	r3, .L281+16
	ldr	r2, [r7, #100]
	subs	r2, r2, #32
	movs	r1, #1
	lsls	r1, r1, r2
	movs	r2, r1
	str	r2, [r3]
.L236:
.LBE98:
	.loc 1 64 0 discriminator 184
	movs	r0, #2
	bl	USC_Pause_us
	adds	r3, r7, #1
	adds	r3, r3, #255
	ldr	r3, [r3]
	subs	r2, r3, #1
	sbcs	r3, r3, r2
	lsls	r3, r3, #24
	lsrs	r2, r3, #24
	movs	r3, #24
	adds	r3, r3, #255
	adds	r3, r7, r3
	strb	r2, [r3]
.LBE87:
	movs	r3, #136
	lsls	r3, r3, #1
	adds	r3, r7, r3
	ldr	r3, [r3]
	cmp	r3, #0
	bne	.LCB4384
	b	.L276	@long jump
.LCB4384:
	.loc 1 64 0 is_stmt 1
	b	.L238
.L266:
.LBB99:
	.loc 1 64 0 is_stmt 0 discriminator 260
	movs	r3, #136
	lsls	r3, r3, #1
	adds	r3, r7, r3
	ldr	r3, [r3]
	adds	r2, r3, #1
	movs	r1, #136
	lsls	r1, r1, #1
	adds	r1, r7, r1
	str	r2, [r1]
	movs	r2, #247
	adds	r2, r7, r2
	ldrb	r3, [r3]
	strb	r3, [r2]
	movs	r3, #0
	movs	r2, #248
	adds	r2, r7, r2
	str	r3, [r2]
	b	.L239
.L253:
	.loc 1 64 0 discriminator 222
	movs	r3, #247
	adds	r3, r7, r3
	ldrb	r3, [r3]
	lsls	r3, r3, #24
	asrs	r3, r3, #24
	bpl	.L240
.LBB100:
	.loc 1 64 0 discriminator 186
	movs	r3, #15
	str	r3, [r7, #96]
	ldr	r3, [r7, #96]
	cmp	r3, #31
	bgt	.L241
	.loc 1 64 0 discriminator 188
	ldr	r3, .L281+20
	movs	r1, #1
	ldr	r2, [r7, #96]
	lsls	r1, r1, r2
	movs	r2, r1
	str	r2, [r3]
	b	.L243
.L241:
	.loc 1 64 0 discriminator 189
	ldr	r3, [r7, #96]
	cmp	r3, #63
	bgt	.L243
	.loc 1 64 0 discriminator 190
	ldr	r3, .L281
	ldr	r2, [r7, #96]
	subs	r2, r2, #32
	movs	r1, #1
	lsls	r1, r1, r2
	movs	r2, r1
	str	r2, [r3]
	b	.L243
.L240:
.LBE100:
.LBB101:
	.loc 1 64 0 discriminator 187
	movs	r3, #15
	str	r3, [r7, #92]
	ldr	r3, [r7, #92]
	cmp	r3, #31
	bgt	.L244
	.loc 1 64 0 discriminator 191
	movs	r2, #1
	ldr	r3, [r7, #92]
	lsls	r2, r2, r3
	movs	r3, r2
	str	r3, [r7, #88]
	ldr	r3, .L281+4
	ldr	r2, [r7, #88]
	str	r2, [r3]
	b	.L245
.L244:
	.loc 1 64 0 discriminator 192
	ldr	r3, [r7, #92]
	cmp	r3, #63
	bgt	.L245
	.loc 1 64 0 discriminator 194
	ldr	r3, [r7, #92]
	subs	r3, r3, #32
	movs	r2, #1
	lsls	r2, r2, r3
	movs	r3, r2
	str	r3, [r7, #88]
	ldr	r3, .L281+8
	ldr	r2, [r7, #88]
	str	r2, [r3]
.L245:
.LBE101:
.LBB102:
	.loc 1 64 0 discriminator 196
	movs	r3, #15
	str	r3, [r7, #84]
	ldr	r3, [r7, #84]
	cmp	r3, #31
	bgt	.L246
	.loc 1 64 0 discriminator 197
	ldr	r3, .L281+12
	movs	r1, #1
	ldr	r2, [r7, #84]
	lsls	r1, r1, r2
	movs	r2, r1
	str	r2, [r3]
	b	.L243
.L246:
	.loc 1 64 0 discriminator 198
	ldr	r3, [r7, #84]
	cmp	r3, #63
	bgt	.L243
	.loc 1 64 0 discriminator 200
	ldr	r3, .L281+16
	ldr	r2, [r7, #84]
	subs	r2, r2, #32
	movs	r1, #1
	lsls	r1, r1, r2
	movs	r2, r1
	str	r2, [r3]
.L243:
.LBE102:
	.loc 1 64 0 discriminator 202
	movs	r0, #1
	bl	USC_Pause_us
.LBB103:
	movs	r3, #14
	str	r3, [r7, #80]
	ldr	r3, [r7, #80]
	cmp	r3, #31
	bgt	.L247
	.loc 1 64 0 discriminator 203
	ldr	r3, .L281+20
	movs	r1, #1
	ldr	r2, [r7, #80]
	lsls	r1, r1, r2
	movs	r2, r1
	str	r2, [r3]
	b	.L248
.L247:
	.loc 1 64 0 discriminator 204
	ldr	r3, [r7, #80]
	cmp	r3, #63
	bgt	.L248
	.loc 1 64 0 discriminator 206
	ldr	r3, .L281
	ldr	r2, [r7, #80]
	subs	r2, r2, #32
	movs	r1, #1
	lsls	r1, r1, r2
	movs	r2, r1
	str	r2, [r3]
.L248:
.LBE103:
	.loc 1 64 0 discriminator 208
	movs	r0, #2
	bl	USC_Pause_us
.LBB104:
	movs	r3, #14
	str	r3, [r7, #76]
	ldr	r3, [r7, #76]
	cmp	r3, #31
	bgt	.L249
	.loc 1 64 0 discriminator 209
	movs	r2, #1
	ldr	r3, [r7, #76]
	lsls	r2, r2, r3
	movs	r3, r2
	str	r3, [r7, #72]
	ldr	r3, .L281+4
	ldr	r2, [r7, #72]
	str	r2, [r3]
	b	.L250
.L249:
	.loc 1 64 0 discriminator 210
	ldr	r3, [r7, #76]
	cmp	r3, #63
	bgt	.L250
	.loc 1 64 0 discriminator 212
	ldr	r3, [r7, #76]
	subs	r3, r3, #32
	movs	r2, #1
	lsls	r2, r2, r3
	movs	r3, r2
	str	r3, [r7, #72]
	ldr	r3, .L281+8
	ldr	r2, [r7, #72]
	str	r2, [r3]
.L250:
.LBE104:
.LBB105:
	.loc 1 64 0 discriminator 214
	movs	r3, #14
	str	r3, [r7, #68]
	ldr	r3, [r7, #68]
	cmp	r3, #31
	bgt	.L251
	.loc 1 64 0 discriminator 215
	ldr	r3, .L281+12
	movs	r1, #1
	ldr	r2, [r7, #68]
	lsls	r1, r1, r2
	movs	r2, r1
	str	r2, [r3]
	b	.L252
.L282:
	.align	2
.L281:
	.word	-1610481640
	.word	-1610480888
	.word	-1610480872
	.word	-1610481660
	.word	-1610481644
	.word	-1610481656
	.word	-1610480640
	.word	-1610480624
.L251:
	.loc 1 64 0 discriminator 216
	ldr	r3, [r7, #68]
	cmp	r3, #63
	bgt	.L252
	.loc 1 64 0 discriminator 218
	ldr	r3, .L283
	ldr	r2, [r7, #68]
	subs	r2, r2, #32
	movs	r1, #1
	lsls	r1, r1, r2
	movs	r2, r1
	str	r2, [r3]
.L252:
.LBE105:
	.loc 1 64 0 discriminator 220
	movs	r0, #1
	bl	USC_Pause_us
	movs	r3, #247
	adds	r2, r7, r3
	movs	r3, #247
	adds	r3, r7, r3
	ldrb	r3, [r3]
	adds	r3, r3, r3
	strb	r3, [r2]
	movs	r3, #248
	adds	r3, r7, r3
	ldr	r3, [r3]
	adds	r3, r3, #1
	movs	r2, #248
	adds	r2, r7, r2
	str	r3, [r2]
.L239:
	.loc 1 64 0 discriminator 221
	movs	r3, #248
	adds	r3, r7, r3
	ldr	r3, [r3]
	cmp	r3, #7
	bhi	.LCB4641
	b	.L253	@long jump
.LCB4641:
.LBB106:
	.loc 1 64 0 discriminator 223
	movs	r3, #15
	str	r3, [r7, #64]
	ldr	r3, [r7, #64]
	cmp	r3, #31
	bgt	.L254
	.loc 1 64 0 discriminator 224
	ldr	r3, .L283+4
	movs	r1, #1
	ldr	r2, [r7, #64]
	lsls	r1, r1, r2
	movs	r2, r1
	str	r2, [r3]
	b	.L255
.L254:
	.loc 1 64 0 discriminator 225
	ldr	r3, [r7, #64]
	cmp	r3, #63
	bgt	.L255
	.loc 1 64 0 discriminator 227
	ldr	r3, .L283+8
	ldr	r2, [r7, #64]
	subs	r2, r2, #32
	movs	r1, #1
	lsls	r1, r1, r2
	movs	r2, r1
	str	r2, [r3]
.L255:
.LBE106:
	.loc 1 64 0 discriminator 229
	movs	r0, #2
	bl	USC_Pause_us
.LBB107:
	movs	r3, #14
	str	r3, [r7, #60]
	ldr	r3, [r7, #60]
	cmp	r3, #31
	bgt	.L256
	.loc 1 64 0 discriminator 230
	ldr	r3, .L283+4
	movs	r1, #1
	ldr	r2, [r7, #60]
	lsls	r1, r1, r2
	movs	r2, r1
	str	r2, [r3]
	b	.L257
.L256:
	.loc 1 64 0 discriminator 231
	ldr	r3, [r7, #60]
	cmp	r3, #63
	bgt	.L257
	.loc 1 64 0 discriminator 233
	ldr	r3, .L283+8
	ldr	r2, [r7, #60]
	subs	r2, r2, #32
	movs	r1, #1
	lsls	r1, r1, r2
	movs	r2, r1
	str	r2, [r3]
.L257:
.LBE107:
	.loc 1 64 0 discriminator 235
	movs	r0, #2
	bl	USC_Pause_us
.LBB108:
	movs	r3, #15
	str	r3, [r7, #56]
	ldr	r3, [r7, #56]
	cmp	r3, #31
	bgt	.L258
	.loc 1 64 0 discriminator 236
	ldr	r3, .L283+12
	ldr	r2, [r3]
	ldr	r3, [r7, #56]
	lsrs	r2, r2, r3
	movs	r3, r2
	movs	r2, #1
	ands	r3, r2
	subs	r2, r3, #1
	sbcs	r3, r3, r2
	lsls	r3, r3, #24
	lsrs	r3, r3, #24
	b	.L259
.L258:
	.loc 1 64 0 discriminator 237
	ldr	r3, [r7, #56]
	cmp	r3, #63
	bgt	.L260
	.loc 1 64 0 discriminator 239
	ldr	r3, .L283+16
	ldr	r2, [r3]
	ldr	r3, [r7, #56]
	subs	r3, r3, #32
	lsrs	r2, r2, r3
	movs	r3, r2
	movs	r2, #1
	ands	r3, r2
	beq	.L260
	.loc 1 64 0 discriminator 241
	movs	r3, #1
	b	.L259
.L260:
	.loc 1 64 0 discriminator 242
	movs	r3, #0
.L259:
.LBE108:
	.loc 1 64 0 discriminator 245
	movs	r2, #248
	adds	r2, r7, r2
	str	r3, [r2]
.LBB109:
	movs	r3, #14
	str	r3, [r7, #52]
	ldr	r3, [r7, #52]
	cmp	r3, #31
	bgt	.L262
	.loc 1 64 0 discriminator 246
	movs	r2, #1
	ldr	r3, [r7, #52]
	lsls	r2, r2, r3
	movs	r3, r2
	str	r3, [r7, #48]
	ldr	r3, .L283+20
	ldr	r2, [r7, #48]
	str	r2, [r3]
	b	.L263
.L262:
	.loc 1 64 0 discriminator 247
	ldr	r3, [r7, #52]
	cmp	r3, #63
	bgt	.L263
	.loc 1 64 0 discriminator 249
	ldr	r3, [r7, #52]
	subs	r3, r3, #32
	movs	r2, #1
	lsls	r2, r2, r3
	movs	r3, r2
	str	r3, [r7, #48]
	ldr	r3, .L283+24
	ldr	r2, [r7, #48]
	str	r2, [r3]
.L263:
.LBE109:
.LBB110:
	.loc 1 64 0 discriminator 251
	movs	r3, #14
	str	r3, [r7, #44]
	ldr	r3, [r7, #44]
	cmp	r3, #31
	bgt	.L264
	.loc 1 64 0 discriminator 252
	ldr	r3, .L283+28
	movs	r1, #1
	ldr	r2, [r7, #44]
	lsls	r1, r1, r2
	movs	r2, r1
	str	r2, [r3]
	b	.L265
.L264:
	.loc 1 64 0 discriminator 253
	ldr	r3, [r7, #44]
	cmp	r3, #63
	bgt	.L265
	.loc 1 64 0 discriminator 255
	ldr	r3, .L283
	ldr	r2, [r7, #44]
	subs	r2, r2, #32
	movs	r1, #1
	lsls	r1, r1, r2
	movs	r2, r1
	str	r2, [r3]
.L265:
.LBE110:
	.loc 1 64 0 discriminator 257
	movs	r0, #2
	bl	USC_Pause_us
	movs	r3, #248
	adds	r3, r7, r3
	ldr	r3, [r3]
	subs	r2, r3, #1
	sbcs	r3, r3, r2
	lsls	r3, r3, #24
	lsrs	r2, r3, #24
	movs	r3, #24
	adds	r3, r3, #255
	adds	r3, r7, r3
	strb	r2, [r3]
.L238:
.LBE99:
	.loc 1 64 0 discriminator 258
	movs	r3, #16
	adds	r3, r3, #255
	adds	r3, r7, r3
	ldrb	r3, [r3]
	movs	r2, #16
	adds	r2, r2, #255
	adds	r2, r7, r2
	subs	r1, r3, #1
	strb	r1, [r2]
	cmp	r3, #0
	beq	.L276
	.loc 1 64 0 discriminator 259
	movs	r3, #24
	adds	r3, r3, #255
	adds	r3, r7, r3
	ldrb	r3, [r3]
	cmp	r3, #0
	bne	.LCB4842
	b	.L266	@long jump
.LCB4842:
	.loc 1 64 0
	b	.L276
.L275:
	.loc 1 64 0 is_stmt 1
	nop
	b	.L209
.L276:
	.loc 1 64 0
	nop
.L209:
.LBB111:
	movs	r3, #15
	str	r3, [r7, #40]
	ldr	r3, [r7, #40]
	cmp	r3, #31
	bgt	.L267
	.loc 1 64 0 is_stmt 0 discriminator 261
	movs	r2, #1
	ldr	r3, [r7, #40]
	lsls	r2, r2, r3
	movs	r3, r2
	str	r3, [r7, #36]
	ldr	r3, .L283+20
	ldr	r2, [r7, #36]
	str	r2, [r3]
	b	.L268
.L267:
	.loc 1 64 0 discriminator 262
	ldr	r3, [r7, #40]
	cmp	r3, #63
	bgt	.L268
	.loc 1 64 0 discriminator 264
	ldr	r3, [r7, #40]
	subs	r3, r3, #32
	movs	r2, #1
	lsls	r2, r2, r3
	movs	r3, r2
	str	r3, [r7, #36]
	ldr	r3, .L283+24
	ldr	r2, [r7, #36]
	str	r2, [r3]
.L268:
.LBE111:
.LBB112:
	.loc 1 64 0 discriminator 266
	movs	r3, #15
	str	r3, [r7, #32]
	ldr	r3, [r7, #32]
	cmp	r3, #31
	bgt	.L269
	.loc 1 64 0 discriminator 267
	ldr	r3, .L283+28
	movs	r1, #1
	ldr	r2, [r7, #32]
	lsls	r1, r1, r2
	movs	r2, r1
	str	r2, [r3]
	b	.L270
.L269:
	.loc 1 64 0 discriminator 268
	ldr	r3, [r7, #32]
	cmp	r3, #63
	bgt	.L270
	.loc 1 64 0 discriminator 270
	ldr	r3, .L283
	ldr	r2, [r7, #32]
	subs	r2, r2, #32
	movs	r1, #1
	lsls	r1, r1, r2
	movs	r2, r1
	str	r2, [r3]
.L270:
.LBE112:
	.loc 1 64 0 discriminator 272
	movs	r0, #1
	bl	USC_Pause_us
.LBB113:
	movs	r3, #14
	str	r3, [r7, #28]
	ldr	r3, [r7, #28]
	cmp	r3, #31
	bgt	.L271
	.loc 1 64 0 discriminator 273
	ldr	r3, .L283+4
	movs	r1, #1
	ldr	r2, [r7, #28]
	lsls	r1, r1, r2
	movs	r2, r1
	str	r2, [r3]
	b	.L272
.L271:
	.loc 1 64 0 discriminator 274
	ldr	r3, [r7, #28]
	cmp	r3, #63
	bgt	.L272
	.loc 1 64 0 discriminator 276
	ldr	r3, .L283+8
	ldr	r2, [r7, #28]
	subs	r2, r2, #32
	movs	r1, #1
	lsls	r1, r1, r2
	movs	r2, r1
	str	r2, [r3]
.L272:
.LBE113:
	.loc 1 64 0 discriminator 278
	movs	r0, #1
	bl	USC_Pause_us
.LBB114:
	movs	r3, #15
	str	r3, [r7, #24]
	ldr	r3, [r7, #24]
	cmp	r3, #31
	bgt	.L273
	.loc 1 64 0 discriminator 279
	ldr	r3, .L283+4
	movs	r1, #1
	ldr	r2, [r7, #24]
	lsls	r1, r1, r2
	movs	r2, r1
	str	r2, [r3]
	b	.L274
.L273:
	.loc 1 64 0 discriminator 280
	ldr	r3, [r7, #24]
	cmp	r3, #63
	bgt	.L274
	.loc 1 64 0 discriminator 282
	ldr	r3, .L283+8
	ldr	r2, [r7, #24]
	subs	r2, r2, #32
	movs	r1, #1
	lsls	r1, r1, r2
	movs	r2, r1
	str	r2, [r3]
.L274:
.LBE114:
	.loc 1 64 0 discriminator 284
	movs	r0, #1
	bl	USC_Pause_us
	movs	r3, #24
	adds	r3, r3, #255
	adds	r3, r7, r3
	ldrb	r3, [r3]
	rsbs	r2, r3, #0
	adcs	r3, r3, r2
	lsls	r3, r3, #24
	lsrs	r2, r3, #24
	ldr	r3, .L283+32
	movs	r1, #140
	lsls	r1, r1, #1
	mov	ip, r1
	add	ip, ip, r7
	add	r3, r3, ip
	strb	r2, [r3]
.LBE68:
	.loc 1 65 0 is_stmt 1 discriminator 284
	ldr	r3, .L283+32
	movs	r2, #140
	lsls	r2, r2, #1
	mov	ip, r2
	add	ip, ip, r7
	add	r3, r3, ip
	ldrb	r3, [r3]
	b	.L167
.L168:
.LBE67:
	.loc 1 67 0
	movs	r3, #1
.L167:
	.loc 1 68 0
	movs	r0, r3
	mov	sp, r7
	add	sp, sp, #280
	@ sp needed
	pop	{r7, pc}
.L284:
	.align	2
.L283:
	.word	-1610481644
	.word	-1610481656
	.word	-1610481640
	.word	-1610480640
	.word	-1610480624
	.word	-1610480888
	.word	-1610480872
	.word	-1610481660
	.word	-257
	.cfi_endproc
.LFE2:
	.size	FT6236_WriteData, .-FT6236_WriteData
	.section	.text.FT6236_ISR,"ax",%progbits
	.align	2
	.global	FT6236_ISR
	.code	16
	.thumb_func
	.type	FT6236_ISR, %function
FT6236_ISR:
.LFB3:
	.loc 1 71 0
	.cfi_startproc
	@ args = 0, pretend = 0, frame = 32
	@ frame_needed = 1, uses_anonymous_args = 0
	push	{r7, lr}
	.cfi_def_cfa_offset 8
	.cfi_offset 7, -8
	.cfi_offset 14, -4
	sub	sp, sp, #32
	.cfi_def_cfa_offset 40
	add	r7, sp, #0
	.cfi_def_cfa_register 7
	.loc 1 75 0
	movs	r3, #8
	adds	r3, r7, r3
	movs	r2, #13
	movs	r1, r3
	movs	r0, #2
	bl	FT6236_ReadData
	subs	r3, r0, #0
	bne	.LCB5056
	b	.L299	@long jump
.LCB5056:
	.loc 1 77 0
	movs	r3, #0
	str	r3, [r7, #28]
	b	.L287
.L298:
.LBB115:
	.loc 1 81 0
	ldr	r2, [r7, #28]
	movs	r3, r2
	lsls	r3, r3, #1
	adds	r3, r3, r2
	lsls	r3, r3, #1
	adds	r3, r3, #1
	str	r3, [r7, #24]
	.loc 1 82 0
	ldr	r3, [r7, #24]
	adds	r3, r3, #2
	movs	r2, #8
	adds	r2, r7, r2
	ldrb	r3, [r2, r3]
	lsrs	r3, r3, #4
	lsls	r3, r3, #24
	lsrs	r3, r3, #24
	movs	r2, r3
	movs	r3, r7
	str	r2, [r3]
	.loc 1 83 0
	movs	r3, r7
	ldr	r3, [r3]
	cmp	r3, #1
	bls	.LCB5085
	b	.L300	@long jump
.LCB5085:
	.loc 1 85 0
	movs	r3, #8
	adds	r2, r7, r3
	ldr	r3, [r7, #24]
	adds	r3, r2, r3
	ldrb	r3, [r3]
	lsls	r3, r3, #8
	lsls	r3, r3, #16
	asrs	r3, r3, #16
	movs	r2, #240
	lsls	r2, r2, #4
	ands	r3, r2
	lsls	r2, r3, #16
	asrs	r2, r2, #16
	ldr	r3, [r7, #24]
	adds	r3, r3, #1
	movs	r1, #8
	adds	r1, r7, r1
	ldrb	r3, [r1, r3]
	lsls	r3, r3, #16
	asrs	r3, r3, #16
	orrs	r3, r2
	lsls	r3, r3, #16
	asrs	r3, r3, #16
	movs	r2, r7
	strh	r3, [r2, #4]
	.loc 1 86 0
	ldr	r3, [r7, #24]
	adds	r3, r3, #2
	movs	r2, #8
	adds	r2, r7, r2
	ldrb	r3, [r2, r3]
	lsls	r3, r3, #8
	lsls	r3, r3, #16
	asrs	r3, r3, #16
	movs	r2, #240
	lsls	r2, r2, #4
	ands	r3, r2
	lsls	r2, r3, #16
	asrs	r2, r2, #16
	ldr	r3, [r7, #24]
	adds	r3, r3, #3
	movs	r1, #8
	adds	r1, r7, r1
	ldrb	r3, [r1, r3]
	lsls	r3, r3, #16
	asrs	r3, r3, #16
	orrs	r3, r2
	lsls	r3, r3, #16
	asrs	r3, r3, #16
	movs	r2, r7
	strh	r3, [r2, #6]
	.loc 1 88 0
	movs	r3, #8
	adds	r2, r7, r3
	ldr	r3, [r7, #24]
	adds	r3, r2, r3
	ldrb	r3, [r3]
	lsrs	r3, r3, #6
	lsls	r3, r3, #24
	lsrs	r3, r3, #24
	cmp	r3, #1
	beq	.L291
	bgt	.L292
	cmp	r3, #0
	beq	.L293
	b	.L289
.L292:
	cmp	r3, #2
	beq	.L294
	.loc 1 110 0
	b	.L289
.L293:
	.loc 1 91 0
	movs	r3, r7
	ldr	r3, [r3]
	ldr	r1, .L302
	lsls	r2, r3, #2
	movs	r3, r7
	adds	r0, r1, r2
	adds	r3, r3, #4
	movs	r2, #4
	movs	r1, r3
	bl	memcpy
	.loc 1 92 0
	movs	r3, r7
	ldr	r3, [r3]
	ldr	r2, .L302+4
	movs	r1, #1
	strb	r1, [r2, r3]
	.loc 1 93 0
	movs	r2, r7
	movs	r3, #8
	movs	r1, #0
	movs	r0, #1
	bl	EM_PostEvent
	.loc 1 94 0
	b	.L289
.L291:
	.loc 1 96 0
	movs	r3, r7
	ldr	r3, [r3]
	ldr	r2, .L302+4
	ldrb	r3, [r2, r3]
	cmp	r3, #0
	beq	.L296
	.loc 1 97 0
	movs	r2, r7
	movs	r3, #8
	movs	r1, #0
	movs	r0, #2
	bl	EM_PostEvent
.L296:
	.loc 1 98 0
	movs	r3, r7
	ldr	r3, [r3]
	ldr	r2, .L302+4
	movs	r1, #0
	strb	r1, [r2, r3]
	.loc 1 99 0
	b	.L289
.L294:
	.loc 1 101 0
	movs	r3, r7
	ldr	r3, [r3]
	ldr	r2, .L302+4
	ldrb	r3, [r2, r3]
	cmp	r3, #0
	beq	.L301
	.loc 1 102 0 discriminator 1
	movs	r3, r7
	ldr	r2, [r3]
	ldr	r3, .L302
	lsls	r2, r2, #2
	ldrsh	r2, [r2, r3]
	movs	r3, r7
	movs	r1, #4
	ldrsh	r3, [r3, r1]
	.loc 1 101 0 discriminator 1
	cmp	r2, r3
	beq	.L301
	.loc 1 103 0
	movs	r3, r7
	ldr	r3, [r3]
	ldr	r2, .L302
	lsls	r3, r3, #2
	adds	r3, r2, r3
	adds	r3, r3, #2
	movs	r2, #0
	ldrsh	r2, [r3, r2]
	movs	r3, r7
	movs	r1, #6
	ldrsh	r3, [r3, r1]
	.loc 1 102 0
	cmp	r2, r3
	beq	.L301
	.loc 1 105 0
	movs	r3, r7
	ldr	r3, [r3]
	ldr	r1, .L302
	lsls	r2, r3, #2
	movs	r3, r7
	adds	r0, r1, r2
	adds	r3, r3, #4
	movs	r2, #4
	movs	r1, r3
	bl	memcpy
	.loc 1 106 0
	movs	r2, r7
	movs	r3, #8
	movs	r1, #0
	movs	r0, #3
	bl	EM_PostEvent
	.loc 1 108 0
	b	.L301
.L300:
	.loc 1 83 0
	nop
	b	.L289
.L301:
	.loc 1 108 0
	nop
.L289:
.LBE115:
	.loc 1 77 0 discriminator 2
	ldr	r3, [r7, #28]
	adds	r3, r3, #1
	str	r3, [r7, #28]
.L287:
	.loc 1 77 0 is_stmt 0 discriminator 1
	ldr	r3, [r7, #28]
	cmp	r3, #1
	bhi	.LCB5267
	b	.L298	@long jump
.LCB5267:
.L299:
	.loc 1 114 0 is_stmt 1
	nop
	mov	sp, r7
	add	sp, sp, #32
	@ sp needed
	pop	{r7, pc}
.L303:
	.align	2
.L302:
	.word	FT6326_PenCoordinates
	.word	FT6236_PenPressed
	.cfi_endproc
.LFE3:
	.size	FT6236_ISR, .-FT6236_ISR
	.section	.text.FT6236_RegisterISR,"ax",%progbits
	.align	2
	.global	FT6236_RegisterISR
	.code	16
	.thumb_func
	.type	FT6236_RegisterISR, %function
FT6236_RegisterISR:
.LFB4:
	.loc 1 117 0
	.cfi_startproc
	@ args = 0, pretend = 0, frame = 0
	@ frame_needed = 1, uses_anonymous_args = 0
	push	{r7, lr}
	.cfi_def_cfa_offset 8
	.cfi_offset 7, -8
	.cfi_offset 14, -4
	sub	sp, sp, #8
	.cfi_def_cfa_offset 16
	add	r7, sp, #8
	.cfi_def_cfa 7, 8
	.loc 1 118 0
	ldr	r1, .L306
	movs	r3, #0
	str	r3, [sp, #4]
	movs	r3, #0
	str	r3, [sp]
	movs	r3, #0
	movs	r2, #0
	movs	r0, #23
	bl	NVIC_RegisterEINT
	movs	r3, r0
	.loc 1 119 0
	movs	r0, r3
	mov	sp, r7
	@ sp needed
	pop	{r7, pc}
.L307:
	.align	2
.L306:
	.word	FT6236_ISR
	.cfi_endproc
.LFE4:
	.size	FT6236_RegisterISR, .-FT6236_RegisterISR
	.section	.text.FT6236_UnregisterISR,"ax",%progbits
	.align	2
	.global	FT6236_UnregisterISR
	.code	16
	.thumb_func
	.type	FT6236_UnregisterISR, %function
FT6236_UnregisterISR:
.LFB5:
	.loc 1 122 0
	.cfi_startproc
	@ args = 0, pretend = 0, frame = 0
	@ frame_needed = 1, uses_anonymous_args = 0
	push	{r7, lr}
	.cfi_def_cfa_offset 8
	.cfi_offset 7, -8
	.cfi_offset 14, -4
	add	r7, sp, #0
	.cfi_def_cfa_register 7
	.loc 1 123 0
	movs	r0, #23
	bl	NVIC_UnregisterEINT
	movs	r3, r0
	.loc 1 124 0
	movs	r0, r3
	mov	sp, r7
	@ sp needed
	pop	{r7, pc}
	.cfi_endproc
.LFE5:
	.size	FT6236_UnregisterISR, .-FT6236_UnregisterISR
	.section	.rodata
	.align	2
.LC3:
	.ascii	" TS driver initialization...\000"
	.align	2
.LC6:
	.ascii	"found at address 0x%02X - Complete.\015\012\000"
	.align	2
.LC8:
	.ascii	"Failed!\015\000"
	.section	.text.FT6236_Initialize,"ax",%progbits
	.align	2
	.global	FT6236_Initialize
	.code	16
	.thumb_func
	.type	FT6236_Initialize, %function
FT6236_Initialize:
.LFB6:
	.loc 1 127 0
	.cfi_startproc
	@ args = 0, pretend = 0, frame = 240
	@ frame_needed = 1, uses_anonymous_args = 0
	push	{r7, lr}
	.cfi_def_cfa_offset 8
	.cfi_offset 7, -8
	.cfi_offset 14, -4
	sub	sp, sp, #240
	.cfi_def_cfa_offset 248
	add	r7, sp, #0
	.cfi_def_cfa_register 7
	.loc 1 130 0
	ldr	r3, .L425
	movs	r0, r3
	bl	printf
	.loc 1 130 0
	ldr	r3, .L425+4
	ldr	r3, [r3]
	ldr	r3, [r3, #8]
	.loc 1 130 0
	movs	r0, r3
	bl	fflush
.LBB116:
	.loc 1 132 0
	movs	r3, #14
	movs	r2, #224
	adds	r2, r7, r2
	str	r3, [r2]
	movs	r3, #224
	adds	r3, r7, r3
	ldr	r3, [r3]
	cmp	r3, #55
	ble	.LCB5374
	b	.L311	@long jump
.LCB5374:
.LBB117:
	.loc 1 132 0 is_stmt 0 discriminator 1
	movs	r3, #224
	adds	r3, r7, r3
	ldr	r3, [r3]
	asrs	r3, r3, #3
	lsls	r3, r3, #24
	lsrs	r2, r3, #24
	movs	r3, #223
	adds	r3, r7, r3
	movs	r1, #7
	ands	r2, r1
	strb	r2, [r3]
	movs	r3, #224
	adds	r3, r7, r3
	ldr	r3, [r3]
	lsls	r3, r3, #2
	lsls	r3, r3, #24
	lsrs	r2, r3, #24
	movs	r3, #222
	adds	r3, r7, r3
	movs	r1, #28
	ands	r2, r1
	strb	r2, [r3]
	movs	r3, #0
	movs	r2, #216
	adds	r2, r7, r2
	str	r3, [r2]
	movs	r3, #224
	adds	r3, r7, r3
	ldr	r3, [r3]
	cmp	r3, #7
	bgt	.L312
	.loc 1 132 0 discriminator 3
	ldr	r3, .L425+8
	movs	r2, #216
	adds	r2, r7, r2
	str	r3, [r2]
	b	.L313
.L312:
	.loc 1 132 0 discriminator 4
	movs	r3, #224
	adds	r3, r7, r3
	ldr	r3, [r3]
	cmp	r3, #15
	bgt	.L314
	.loc 1 132 0 discriminator 6
	ldr	r3, .L425+12
	movs	r2, #216
	adds	r2, r7, r2
	str	r3, [r2]
	b	.L313
.L314:
	.loc 1 132 0 discriminator 7
	movs	r3, #224
	adds	r3, r7, r3
	ldr	r3, [r3]
	cmp	r3, #23
	bgt	.L315
	.loc 1 132 0 discriminator 9
	ldr	r3, .L425+12
	movs	r2, #216
	adds	r2, r7, r2
	str	r3, [r2]
	b	.L313
.L315:
	.loc 1 132 0 discriminator 10
	movs	r3, #224
	adds	r3, r7, r3
	ldr	r3, [r3]
	cmp	r3, #31
	bgt	.L316
	.loc 1 132 0 discriminator 12
	ldr	r3, .L425+16
	movs	r2, #216
	adds	r2, r7, r2
	str	r3, [r2]
	b	.L313
.L316:
	.loc 1 132 0 discriminator 13
	movs	r3, #224
	adds	r3, r7, r3
	ldr	r3, [r3]
	cmp	r3, #39
	bgt	.L317
	.loc 1 132 0 discriminator 15
	ldr	r3, .L425+12
	movs	r2, #216
	adds	r2, r7, r2
	str	r3, [r2]
	b	.L313
.L317:
	.loc 1 132 0 discriminator 16
	movs	r3, #224
	adds	r3, r7, r3
	ldr	r3, [r3]
	cmp	r3, #47
	bgt	.L318
	.loc 1 132 0 discriminator 18
	ldr	r3, .L425+12
	movs	r2, #216
	adds	r2, r7, r2
	str	r3, [r2]
	b	.L313
.L318:
	.loc 1 132 0 discriminator 19
	movs	r3, #224
	adds	r3, r7, r3
	ldr	r3, [r3]
	cmp	r3, #55
	bgt	.L313
	.loc 1 132 0 discriminator 21
	ldr	r3, .L425+20
	movs	r2, #216
	adds	r2, r7, r2
	str	r3, [r2]
.L313:
	.loc 1 132 0 discriminator 23
	movs	r3, #223
	adds	r3, r7, r3
	ldrb	r3, [r3]
	lsls	r3, r3, #4
	ldr	r2, .L425+24
	mov	ip, r2
	add	r3, r3, ip
	movs	r2, #223
	adds	r2, r7, r2
	ldrb	r2, [r2]
	lsls	r2, r2, #4
	ldr	r1, .L425+24
	mov	ip, r1
	add	r2, r2, ip
	ldr	r2, [r2]
	movs	r1, #222
	adds	r1, r7, r1
	ldrb	r1, [r1]
	movs	r0, #15
	lsls	r0, r0, r1
	movs	r1, r0
	mvns	r1, r1
	ands	r2, r1
	str	r2, [r3]
.L311:
.LBE117:
.LBE116:
.LBB118:
	.loc 1 132 0 discriminator 24
	movs	r3, #14
	movs	r2, #212
	adds	r2, r7, r2
	str	r3, [r2]
	movs	r3, #212
	adds	r3, r7, r3
	ldr	r3, [r3]
	cmp	r3, #31
	bgt	.L319
	.loc 1 132 0 discriminator 25
	ldr	r3, .L425+28
	movs	r1, #1
	movs	r2, #212
	adds	r2, r7, r2
	ldr	r2, [r2]
	lsls	r1, r1, r2
	movs	r2, r1
	str	r2, [r3]
	b	.L320
.L319:
	.loc 1 132 0 discriminator 26
	movs	r3, #212
	adds	r3, r7, r3
	ldr	r3, [r3]
	cmp	r3, #63
	bgt	.L320
	.loc 1 132 0 discriminator 28
	ldr	r3, .L425+32
	movs	r2, #212
	adds	r2, r7, r2
	ldr	r2, [r2]
	subs	r2, r2, #32
	movs	r1, #1
	lsls	r1, r1, r2
	movs	r2, r1
	str	r2, [r3]
.L320:
.LBE118:
.LBB119:
	.loc 1 132 0 discriminator 30
	movs	r3, #14
	movs	r2, #208
	adds	r2, r7, r2
	str	r3, [r2]
	movs	r3, #208
	adds	r3, r7, r3
	ldr	r3, [r3]
	cmp	r3, #31
	bgt	.L321
	.loc 1 132 0 discriminator 31
	movs	r2, #1
	movs	r3, #208
	adds	r3, r7, r3
	ldr	r3, [r3]
	lsls	r2, r2, r3
	movs	r3, r2
	movs	r2, #204
	adds	r2, r7, r2
	str	r3, [r2]
	movs	r3, #204
	adds	r3, r7, r3
	ldr	r3, [r3]
	ldr	r2, .L425+36
	ands	r3, r2
	beq	.L322
	.loc 1 132 0 discriminator 33
	ldr	r3, .L425+40
	movs	r2, #204
	adds	r2, r7, r2
	ldr	r2, [r2]
	str	r2, [r3]
	b	.L324
.L322:
	.loc 1 132 0 discriminator 34
	movs	r3, #204
	adds	r3, r7, r3
	ldr	r3, [r3]
	ldr	r2, .L425+44
	ands	r3, r2
	beq	.L324
	.loc 1 132 0 discriminator 35
	ldr	r3, .L425+48
	movs	r2, #204
	adds	r2, r7, r2
	ldr	r2, [r2]
	str	r2, [r3]
	b	.L324
.L321:
	.loc 1 132 0 discriminator 32
	movs	r3, #208
	adds	r3, r7, r3
	ldr	r3, [r3]
	cmp	r3, #63
	bgt	.L324
	.loc 1 132 0 discriminator 36
	movs	r3, #208
	adds	r3, r7, r3
	ldr	r3, [r3]
	subs	r3, r3, #32
	movs	r2, #1
	lsls	r2, r2, r3
	movs	r3, r2
	movs	r2, #204
	adds	r2, r7, r2
	str	r3, [r2]
	movs	r3, #204
	adds	r3, r7, r3
	ldr	r3, [r3]
	ldr	r2, .L425+52
	ands	r3, r2
	beq	.L325
	.loc 1 132 0 discriminator 38
	ldr	r3, .L425+56
	movs	r2, #204
	adds	r2, r7, r2
	ldr	r2, [r2]
	str	r2, [r3]
	b	.L324
.L325:
	.loc 1 132 0 discriminator 39
	movs	r3, #204
	adds	r3, r7, r3
	ldr	r3, [r3]
	ldr	r2, .L425+60
	ands	r3, r2
	beq	.L324
	.loc 1 132 0 discriminator 41
	ldr	r3, .L425+64
	movs	r2, #204
	adds	r2, r7, r2
	ldr	r2, [r2]
	str	r2, [r3]
.L324:
.LBE119:
.LBB120:
	.loc 1 132 0 discriminator 43
	movs	r3, #14
	movs	r2, #200
	adds	r2, r7, r2
	str	r3, [r2]
	movs	r3, #200
	adds	r3, r7, r3
	ldr	r3, [r3]
	cmp	r3, #31
	bgt	.L326
	.loc 1 132 0 discriminator 44
	movs	r2, #1
	movs	r3, #200
	adds	r3, r7, r3
	ldr	r3, [r3]
	lsls	r2, r2, r3
	movs	r3, r2
	movs	r2, #196
	adds	r2, r7, r2
	str	r3, [r2]
	movs	r3, #196
	adds	r3, r7, r3
	ldr	r3, [r3]
	ldr	r2, .L425+36
	ands	r3, r2
	beq	.L327
	.loc 1 132 0 discriminator 46
	ldr	r3, .L425+68
	movs	r2, #196
	adds	r2, r7, r2
	ldr	r2, [r2]
	str	r2, [r3]
	b	.L329
.L327:
	.loc 1 132 0 discriminator 47
	movs	r3, #196
	adds	r3, r7, r3
	ldr	r3, [r3]
	ldr	r2, .L425+44
	ands	r3, r2
	beq	.L329
	.loc 1 132 0 discriminator 48
	ldr	r3, .L425+72
	movs	r2, #196
	adds	r2, r7, r2
	ldr	r2, [r2]
	str	r2, [r3]
	b	.L329
.L326:
	.loc 1 132 0 discriminator 45
	movs	r3, #200
	adds	r3, r7, r3
	ldr	r3, [r3]
	cmp	r3, #63
	bgt	.L329
	.loc 1 132 0 discriminator 49
	movs	r3, #200
	adds	r3, r7, r3
	ldr	r3, [r3]
	subs	r3, r3, #32
	movs	r2, #1
	lsls	r2, r2, r3
	movs	r3, r2
	movs	r2, #196
	adds	r2, r7, r2
	str	r3, [r2]
	movs	r3, #196
	adds	r3, r7, r3
	ldr	r3, [r3]
	ldr	r2, .L425+52
	ands	r3, r2
	beq	.L330
	.loc 1 132 0 discriminator 50
	ldr	r3, .L425+76
	movs	r2, #196
	adds	r2, r7, r2
	ldr	r2, [r2]
	str	r2, [r3]
	b	.L329
.L330:
	.loc 1 132 0 discriminator 51
	movs	r3, #196
	adds	r3, r7, r3
	ldr	r3, [r3]
	ldr	r2, .L425+60
	ands	r3, r2
	beq	.L329
	.loc 1 132 0 discriminator 52
	ldr	r3, .L425+80
	movs	r2, #196
	adds	r2, r7, r2
	ldr	r2, [r2]
	str	r2, [r3]
.L329:
.LBE120:
.LBB121:
	.loc 1 133 0 is_stmt 1
	movs	r3, #15
	movs	r2, #192
	adds	r2, r7, r2
	str	r3, [r2]
	movs	r3, #192
	adds	r3, r7, r3
	ldr	r3, [r3]
	cmp	r3, #55
	ble	.LCB5761
	b	.L331	@long jump
.LCB5761:
.LBB122:
	.loc 1 133 0 is_stmt 0 discriminator 1
	movs	r3, #192
	adds	r3, r7, r3
	ldr	r3, [r3]
	asrs	r3, r3, #3
	lsls	r3, r3, #24
	lsrs	r2, r3, #24
	movs	r3, #191
	adds	r3, r7, r3
	movs	r1, #7
	ands	r2, r1
	strb	r2, [r3]
	movs	r3, #192
	adds	r3, r7, r3
	ldr	r3, [r3]
	lsls	r3, r3, #2
	lsls	r3, r3, #24
	lsrs	r2, r3, #24
	movs	r3, #190
	adds	r3, r7, r3
	movs	r1, #28
	ands	r2, r1
	strb	r2, [r3]
	movs	r3, #0
	movs	r2, #184
	adds	r2, r7, r2
	str	r3, [r2]
	movs	r3, #192
	adds	r3, r7, r3
	ldr	r3, [r3]
	cmp	r3, #7
	bgt	.L332
	.loc 1 133 0 discriminator 3
	ldr	r3, .L425+8
	movs	r2, #184
	adds	r2, r7, r2
	str	r3, [r2]
	b	.L333
.L332:
	.loc 1 133 0 discriminator 4
	movs	r3, #192
	adds	r3, r7, r3
	ldr	r3, [r3]
	cmp	r3, #15
	bgt	.L334
	.loc 1 133 0 discriminator 6
	ldr	r3, .L425+12
	movs	r2, #184
	adds	r2, r7, r2
	str	r3, [r2]
	b	.L333
.L334:
	.loc 1 133 0 discriminator 7
	movs	r3, #192
	adds	r3, r7, r3
	ldr	r3, [r3]
	cmp	r3, #23
	bgt	.L335
	.loc 1 133 0 discriminator 9
	ldr	r3, .L425+12
	movs	r2, #184
	adds	r2, r7, r2
	str	r3, [r2]
	b	.L333
.L335:
	.loc 1 133 0 discriminator 10
	movs	r3, #192
	adds	r3, r7, r3
	ldr	r3, [r3]
	cmp	r3, #31
	bgt	.L336
	.loc 1 133 0 discriminator 12
	ldr	r3, .L425+16
	movs	r2, #184
	adds	r2, r7, r2
	str	r3, [r2]
	b	.L333
.L336:
	.loc 1 133 0 discriminator 13
	movs	r3, #192
	adds	r3, r7, r3
	ldr	r3, [r3]
	cmp	r3, #39
	bgt	.L337
	.loc 1 133 0 discriminator 15
	ldr	r3, .L425+12
	movs	r2, #184
	adds	r2, r7, r2
	str	r3, [r2]
	b	.L333
.L426:
	.align	2
.L425:
	.word	.LC3
	.word	_impure_ptr
	.word	2004353023
	.word	2004318071
	.word	2013263735
	.word	2004320119
	.word	-1610478592
	.word	-1610481656
	.word	-1610481640
	.word	1136659455
	.word	-1610480380
	.word	-1136659456
	.word	-1610479096
	.word	15734784
	.word	-1610480364
	.word	1042431
	.word	-1610479080
	.word	-1610481404
	.word	-1610478844
	.word	-1610481388
	.word	-1610478828
.L337:
	.loc 1 133 0 discriminator 16
	movs	r3, #192
	adds	r3, r7, r3
	ldr	r3, [r3]
	cmp	r3, #47
	bgt	.L338
	.loc 1 133 0 discriminator 18
	ldr	r3, .L427
	movs	r2, #184
	adds	r2, r7, r2
	str	r3, [r2]
	b	.L333
.L338:
	.loc 1 133 0 discriminator 19
	movs	r3, #192
	adds	r3, r7, r3
	ldr	r3, [r3]
	cmp	r3, #55
	bgt	.L333
	.loc 1 133 0 discriminator 21
	ldr	r3, .L427+4
	movs	r2, #184
	adds	r2, r7, r2
	str	r3, [r2]
.L333:
	.loc 1 133 0 discriminator 23
	movs	r3, #191
	adds	r3, r7, r3
	ldrb	r3, [r3]
	lsls	r3, r3, #4
	ldr	r2, .L427+8
	mov	ip, r2
	add	r3, r3, ip
	movs	r2, #191
	adds	r2, r7, r2
	ldrb	r2, [r2]
	lsls	r2, r2, #4
	ldr	r1, .L427+8
	mov	ip, r1
	add	r2, r2, ip
	ldr	r2, [r2]
	movs	r1, #190
	adds	r1, r7, r1
	ldrb	r1, [r1]
	movs	r0, #15
	lsls	r0, r0, r1
	movs	r1, r0
	mvns	r1, r1
	ands	r2, r1
	str	r2, [r3]
.L331:
.LBE122:
.LBE121:
.LBB123:
	.loc 1 133 0 discriminator 24
	movs	r3, #15
	movs	r2, #180
	adds	r2, r7, r2
	str	r3, [r2]
	movs	r3, #180
	adds	r3, r7, r3
	ldr	r3, [r3]
	cmp	r3, #31
	bgt	.L339
	.loc 1 133 0 discriminator 25
	ldr	r3, .L427+12
	movs	r1, #1
	movs	r2, #180
	adds	r2, r7, r2
	ldr	r2, [r2]
	lsls	r1, r1, r2
	movs	r2, r1
	str	r2, [r3]
	b	.L340
.L339:
	.loc 1 133 0 discriminator 26
	movs	r3, #180
	adds	r3, r7, r3
	ldr	r3, [r3]
	cmp	r3, #63
	bgt	.L340
	.loc 1 133 0 discriminator 28
	ldr	r3, .L427+16
	movs	r2, #180
	adds	r2, r7, r2
	ldr	r2, [r2]
	subs	r2, r2, #32
	movs	r1, #1
	lsls	r1, r1, r2
	movs	r2, r1
	str	r2, [r3]
.L340:
.LBE123:
.LBB124:
	.loc 1 133 0 discriminator 30
	movs	r3, #15
	movs	r2, #176
	adds	r2, r7, r2
	str	r3, [r2]
	movs	r3, #176
	adds	r3, r7, r3
	ldr	r3, [r3]
	cmp	r3, #31
	bgt	.L341
	.loc 1 133 0 discriminator 31
	movs	r2, #1
	movs	r3, #176
	adds	r3, r7, r3
	ldr	r3, [r3]
	lsls	r2, r2, r3
	movs	r3, r2
	movs	r2, #172
	adds	r2, r7, r2
	str	r3, [r2]
	movs	r3, #172
	adds	r3, r7, r3
	ldr	r3, [r3]
	ldr	r2, .L427+20
	ands	r3, r2
	beq	.L342
	.loc 1 133 0 discriminator 33
	ldr	r3, .L427+24
	movs	r2, #172
	adds	r2, r7, r2
	ldr	r2, [r2]
	str	r2, [r3]
	b	.L344
.L342:
	.loc 1 133 0 discriminator 34
	movs	r3, #172
	adds	r3, r7, r3
	ldr	r3, [r3]
	ldr	r2, .L427+28
	ands	r3, r2
	beq	.L344
	.loc 1 133 0 discriminator 35
	ldr	r3, .L427+32
	movs	r2, #172
	adds	r2, r7, r2
	ldr	r2, [r2]
	str	r2, [r3]
	b	.L344
.L341:
	.loc 1 133 0 discriminator 32
	movs	r3, #176
	adds	r3, r7, r3
	ldr	r3, [r3]
	cmp	r3, #63
	bgt	.L344
	.loc 1 133 0 discriminator 36
	movs	r3, #176
	adds	r3, r7, r3
	ldr	r3, [r3]
	subs	r3, r3, #32
	movs	r2, #1
	lsls	r2, r2, r3
	movs	r3, r2
	movs	r2, #172
	adds	r2, r7, r2
	str	r3, [r2]
	movs	r3, #172
	adds	r3, r7, r3
	ldr	r3, [r3]
	ldr	r2, .L427+36
	ands	r3, r2
	beq	.L345
	.loc 1 133 0 discriminator 38
	ldr	r3, .L427+40
	movs	r2, #172
	adds	r2, r7, r2
	ldr	r2, [r2]
	str	r2, [r3]
	b	.L344
.L345:
	.loc 1 133 0 discriminator 39
	movs	r3, #172
	adds	r3, r7, r3
	ldr	r3, [r3]
	ldr	r2, .L427+44
	ands	r3, r2
	beq	.L344
	.loc 1 133 0 discriminator 41
	ldr	r3, .L427+48
	movs	r2, #172
	adds	r2, r7, r2
	ldr	r2, [r2]
	str	r2, [r3]
.L344:
.LBE124:
.LBB125:
	.loc 1 133 0 discriminator 43
	movs	r3, #15
	movs	r2, #168
	adds	r2, r7, r2
	str	r3, [r2]
	movs	r3, #168
	adds	r3, r7, r3
	ldr	r3, [r3]
	cmp	r3, #31
	bgt	.L346
	.loc 1 133 0 discriminator 44
	movs	r2, #1
	movs	r3, #168
	adds	r3, r7, r3
	ldr	r3, [r3]
	lsls	r2, r2, r3
	movs	r3, r2
	movs	r2, #164
	adds	r2, r7, r2
	str	r3, [r2]
	movs	r3, #164
	adds	r3, r7, r3
	ldr	r3, [r3]
	ldr	r2, .L427+20
	ands	r3, r2
	beq	.L347
	.loc 1 133 0 discriminator 46
	ldr	r3, .L427+52
	movs	r2, #164
	adds	r2, r7, r2
	ldr	r2, [r2]
	str	r2, [r3]
	b	.L349
.L347:
	.loc 1 133 0 discriminator 47
	movs	r3, #164
	adds	r3, r7, r3
	ldr	r3, [r3]
	ldr	r2, .L427+28
	ands	r3, r2
	beq	.L349
	.loc 1 133 0 discriminator 48
	ldr	r3, .L427+56
	movs	r2, #164
	adds	r2, r7, r2
	ldr	r2, [r2]
	str	r2, [r3]
	b	.L349
.L346:
	.loc 1 133 0 discriminator 45
	movs	r3, #168
	adds	r3, r7, r3
	ldr	r3, [r3]
	cmp	r3, #63
	bgt	.L349
	.loc 1 133 0 discriminator 49
	movs	r3, #168
	adds	r3, r7, r3
	ldr	r3, [r3]
	subs	r3, r3, #32
	movs	r2, #1
	lsls	r2, r2, r3
	movs	r3, r2
	movs	r2, #164
	adds	r2, r7, r2
	str	r3, [r2]
	movs	r3, #164
	adds	r3, r7, r3
	ldr	r3, [r3]
	ldr	r2, .L427+36
	ands	r3, r2
	beq	.L350
	.loc 1 133 0 discriminator 51
	ldr	r3, .L427+60
	movs	r2, #164
	adds	r2, r7, r2
	ldr	r2, [r2]
	str	r2, [r3]
	b	.L349
.L350:
	.loc 1 133 0 discriminator 52
	movs	r3, #164
	adds	r3, r7, r3
	ldr	r3, [r3]
	ldr	r2, .L427+44
	ands	r3, r2
	beq	.L349
	.loc 1 133 0 discriminator 54
	ldr	r3, .L427+64
	movs	r2, #164
	adds	r2, r7, r2
	ldr	r2, [r2]
	str	r2, [r3]
.L349:
.LBE125:
.LBB126:
	.loc 1 133 0 discriminator 56
	movs	r3, #15
	movs	r2, #160
	adds	r2, r7, r2
	str	r3, [r2]
	movs	r3, #160
	adds	r3, r7, r3
	ldr	r3, [r3]
	cmp	r3, #31
	bgt	.L351
	.loc 1 133 0 discriminator 57
	movs	r2, #1
	movs	r3, #160
	adds	r3, r7, r3
	ldr	r3, [r3]
	lsls	r2, r2, r3
	movs	r3, r2
	movs	r2, #156
	adds	r2, r7, r2
	str	r3, [r2]
	movs	r3, #156
	adds	r3, r7, r3
	ldr	r3, [r3]
	ldr	r2, .L427+20
	ands	r3, r2
	beq	.L353
	.loc 1 133 0 discriminator 59
	ldr	r3, .L427+68
	movs	r1, #1
	movs	r2, #160
	adds	r2, r7, r2
	ldr	r2, [r2]
	lsls	r1, r1, r2
	movs	r2, r1
	str	r2, [r3]
	b	.L353
.L351:
	.loc 1 133 0 discriminator 58
	movs	r3, #160
	adds	r3, r7, r3
	ldr	r3, [r3]
	cmp	r3, #63
	bgt	.L353
	.loc 1 133 0 discriminator 60
	movs	r3, #160
	adds	r3, r7, r3
	ldr	r3, [r3]
	subs	r3, r3, #32
	movs	r2, #1
	lsls	r2, r2, r3
	movs	r3, r2
	movs	r2, #156
	adds	r2, r7, r2
	str	r3, [r2]
	movs	r3, #156
	adds	r3, r7, r3
	ldr	r2, [r3]
	movs	r3, #255
	lsls	r3, r3, #5
	ands	r3, r2
	beq	.L353
	.loc 1 133 0 discriminator 61
	ldr	r3, .L427+72
	movs	r2, #160
	adds	r2, r7, r2
	ldr	r2, [r2]
	subs	r2, r2, #32
	movs	r1, #1
	lsls	r1, r1, r2
	movs	r2, r1
	str	r2, [r3]
.L353:
.LBE126:
.LBB127:
	.loc 1 135 0 is_stmt 1
	movs	r3, #20
	movs	r2, #152
	adds	r2, r7, r2
	str	r3, [r2]
	movs	r3, #152
	adds	r3, r7, r3
	ldr	r3, [r3]
	cmp	r3, #55
	ble	.LCB6247
	b	.L354	@long jump
.LCB6247:
.LBB128:
	.loc 1 135 0 is_stmt 0 discriminator 1
	movs	r3, #152
	adds	r3, r7, r3
	ldr	r3, [r3]
	asrs	r3, r3, #3
	lsls	r3, r3, #24
	lsrs	r2, r3, #24
	movs	r3, #151
	adds	r3, r7, r3
	movs	r1, #7
	ands	r2, r1
	strb	r2, [r3]
	movs	r3, #152
	adds	r3, r7, r3
	ldr	r3, [r3]
	lsls	r3, r3, #2
	lsls	r3, r3, #24
	lsrs	r2, r3, #24
	movs	r3, #150
	adds	r3, r7, r3
	movs	r1, #28
	ands	r2, r1
	strb	r2, [r3]
	movs	r3, #0
	movs	r2, #144
	adds	r2, r7, r2
	str	r3, [r2]
	movs	r3, #152
	adds	r3, r7, r3
	ldr	r3, [r3]
	cmp	r3, #7
	bgt	.L355
	.loc 1 135 0 discriminator 2
	ldr	r3, .L427+76
	movs	r2, #144
	adds	r2, r7, r2
	str	r3, [r2]
	b	.L356
.L355:
	.loc 1 135 0 discriminator 3
	movs	r3, #152
	adds	r3, r7, r3
	ldr	r3, [r3]
	cmp	r3, #15
	bgt	.L357
	.loc 1 135 0 discriminator 5
	ldr	r3, .L427
	movs	r2, #144
	adds	r2, r7, r2
	str	r3, [r2]
	b	.L356
.L357:
	.loc 1 135 0 discriminator 6
	movs	r3, #152
	adds	r3, r7, r3
	ldr	r3, [r3]
	cmp	r3, #23
	bgt	.L358
	.loc 1 135 0 discriminator 8
	ldr	r3, .L427
	movs	r2, #144
	adds	r2, r7, r2
	str	r3, [r2]
	b	.L356
.L358:
	.loc 1 135 0 discriminator 9
	movs	r3, #152
	adds	r3, r7, r3
	ldr	r3, [r3]
	cmp	r3, #31
	bgt	.L359
	.loc 1 135 0 discriminator 11
	ldr	r3, .L427+80
	movs	r2, #144
	adds	r2, r7, r2
	str	r3, [r2]
	b	.L356
.L359:
	.loc 1 135 0 discriminator 12
	movs	r3, #152
	adds	r3, r7, r3
	ldr	r3, [r3]
	cmp	r3, #39
	bgt	.L360
	.loc 1 135 0 discriminator 14
	ldr	r3, .L427
	movs	r2, #144
	adds	r2, r7, r2
	str	r3, [r2]
	b	.L356
.L360:
	.loc 1 135 0 discriminator 15
	movs	r3, #152
	adds	r3, r7, r3
	ldr	r3, [r3]
	cmp	r3, #47
	bgt	.L361
	.loc 1 135 0 discriminator 17
	ldr	r3, .L427
	movs	r2, #144
	adds	r2, r7, r2
	str	r3, [r2]
	b	.L356
.L428:
	.align	2
.L427:
	.word	2004318071
	.word	2004320119
	.word	-1610478592
	.word	-1610481656
	.word	-1610481640
	.word	1136659455
	.word	-1610480380
	.word	-1136659456
	.word	-1610479096
	.word	15734784
	.word	-1610480364
	.word	1042431
	.word	-1610479080
	.word	-1610481404
	.word	-1610478844
	.word	-1610481388
	.word	-1610478828
	.word	-1610479356
	.word	-1610479340
	.word	2004353023
	.word	2013263735
.L361:
	.loc 1 135 0 discriminator 18
	movs	r3, #152
	adds	r3, r7, r3
	ldr	r3, [r3]
	cmp	r3, #55
	bgt	.L356
	.loc 1 135 0 discriminator 20
	ldr	r3, .L429
	movs	r2, #144
	adds	r2, r7, r2
	str	r3, [r2]
.L356:
	.loc 1 135 0 discriminator 22
	movs	r3, #151
	adds	r3, r7, r3
	ldrb	r3, [r3]
	lsls	r3, r3, #4
	ldr	r2, .L429+4
	mov	ip, r2
	add	r3, r3, ip
	movs	r2, #151
	adds	r2, r7, r2
	ldrb	r2, [r2]
	lsls	r2, r2, #4
	ldr	r1, .L429+4
	mov	ip, r1
	add	r2, r2, ip
	ldr	r2, [r2]
	movs	r1, #150
	adds	r1, r7, r1
	ldrb	r1, [r1]
	movs	r0, #15
	lsls	r0, r0, r1
	movs	r1, r0
	mvns	r1, r1
	ands	r2, r1
	str	r2, [r3]
.L354:
.LBE128:
.LBE127:
.LBB129:
	.loc 1 136 0 is_stmt 1
	movs	r3, #20
	movs	r2, #140
	adds	r2, r7, r2
	str	r3, [r2]
	movs	r3, #140
	adds	r3, r7, r3
	ldr	r3, [r3]
	cmp	r3, #31
	bgt	.L362
	.loc 1 136 0 is_stmt 0 discriminator 1
	ldr	r3, .L429+8
	movs	r1, #1
	movs	r2, #140
	adds	r2, r7, r2
	ldr	r2, [r2]
	lsls	r1, r1, r2
	movs	r2, r1
	str	r2, [r3]
	b	.L363
.L362:
	.loc 1 136 0 discriminator 2
	movs	r3, #140
	adds	r3, r7, r3
	ldr	r3, [r3]
	cmp	r3, #63
	bgt	.L363
	.loc 1 136 0 discriminator 3
	ldr	r3, .L429+12
	movs	r2, #140
	adds	r2, r7, r2
	ldr	r2, [r2]
	subs	r2, r2, #32
	movs	r1, #1
	lsls	r1, r1, r2
	movs	r2, r1
	str	r2, [r3]
.L363:
.LBE129:
.LBB130:
	.loc 1 138 0 is_stmt 1
	movs	r3, #52
	movs	r2, #136
	adds	r2, r7, r2
	str	r3, [r2]
	movs	r3, #136
	adds	r3, r7, r3
	ldr	r3, [r3]
	cmp	r3, #55
	ble	.LCB6466
	b	.L364	@long jump
.LCB6466:
.LBB131:
	.loc 1 138 0 is_stmt 0 discriminator 1
	movs	r3, #136
	adds	r3, r7, r3
	ldr	r3, [r3]
	asrs	r3, r3, #3
	lsls	r3, r3, #24
	lsrs	r2, r3, #24
	movs	r3, #135
	adds	r3, r7, r3
	movs	r1, #7
	ands	r2, r1
	strb	r2, [r3]
	movs	r3, #136
	adds	r3, r7, r3
	ldr	r3, [r3]
	lsls	r3, r3, #2
	lsls	r3, r3, #24
	lsrs	r2, r3, #24
	movs	r3, #134
	adds	r3, r7, r3
	movs	r1, #28
	ands	r2, r1
	strb	r2, [r3]
	movs	r3, #0
	movs	r2, #236
	adds	r2, r7, r2
	str	r3, [r2]
	movs	r3, #136
	adds	r3, r7, r3
	ldr	r3, [r3]
	cmp	r3, #7
	bgt	.L365
	.loc 1 138 0 discriminator 2
	ldr	r3, .L429+16
	movs	r2, #236
	adds	r2, r7, r2
	str	r3, [r2]
	b	.L366
.L365:
	.loc 1 138 0 discriminator 3
	movs	r3, #136
	adds	r3, r7, r3
	ldr	r3, [r3]
	cmp	r3, #15
	bgt	.L367
	.loc 1 138 0 discriminator 5
	ldr	r3, .L429+20
	movs	r2, #236
	adds	r2, r7, r2
	str	r3, [r2]
	b	.L366
.L367:
	.loc 1 138 0 discriminator 6
	movs	r3, #136
	adds	r3, r7, r3
	ldr	r3, [r3]
	cmp	r3, #23
	bgt	.L368
	.loc 1 138 0 discriminator 8
	ldr	r3, .L429+20
	movs	r2, #236
	adds	r2, r7, r2
	str	r3, [r2]
	b	.L366
.L368:
	.loc 1 138 0 discriminator 9
	movs	r3, #136
	adds	r3, r7, r3
	ldr	r3, [r3]
	cmp	r3, #31
	bgt	.L369
	.loc 1 138 0 discriminator 11
	ldr	r3, .L429+24
	movs	r2, #236
	adds	r2, r7, r2
	str	r3, [r2]
	b	.L366
.L369:
	.loc 1 138 0 discriminator 12
	movs	r3, #136
	adds	r3, r7, r3
	ldr	r3, [r3]
	cmp	r3, #39
	bgt	.L370
	.loc 1 138 0 discriminator 14
	ldr	r3, .L429+20
	movs	r2, #236
	adds	r2, r7, r2
	str	r3, [r2]
	b	.L366
.L370:
	.loc 1 138 0 discriminator 15
	movs	r3, #136
	adds	r3, r7, r3
	ldr	r3, [r3]
	cmp	r3, #47
	bgt	.L371
	.loc 1 138 0 discriminator 17
	ldr	r3, .L429+20
	movs	r2, #236
	adds	r2, r7, r2
	str	r3, [r2]
	b	.L366
.L371:
	.loc 1 138 0 discriminator 18
	movs	r3, #136
	adds	r3, r7, r3
	ldr	r3, [r3]
	cmp	r3, #55
	bgt	.L366
	.loc 1 138 0 discriminator 20
	ldr	r3, .L429
	movs	r2, #236
	adds	r2, r7, r2
	str	r3, [r2]
.L366:
	.loc 1 138 0 discriminator 22
	movs	r3, #135
	adds	r3, r7, r3
	ldrb	r3, [r3]
	lsls	r3, r3, #4
	ldr	r2, .L429+4
	mov	ip, r2
	add	r3, r3, ip
	movs	r2, #135
	adds	r2, r7, r2
	ldrb	r2, [r2]
	lsls	r2, r2, #4
	ldr	r1, .L429+4
	mov	ip, r1
	add	r2, r2, ip
	ldr	r2, [r2]
	movs	r1, #134
	adds	r1, r7, r1
	ldrb	r1, [r1]
	movs	r0, #15
	lsls	r0, r0, r1
	movs	r1, r0
	mvns	r1, r1
	ands	r1, r2
	movs	r2, #236
	adds	r2, r7, r2
	ldr	r2, [r2]
	movs	r0, #2
	ands	r0, r2
	movs	r2, #134
	adds	r2, r7, r2
	ldrb	r2, [r2]
	lsls	r0, r0, r2
	movs	r2, r0
	orrs	r2, r1
	str	r2, [r3]
.L364:
.LBE131:
.LBE130:
.LBB132:
	.loc 1 140 0 is_stmt 1
	movs	r3, #20
	movs	r2, #128
	adds	r2, r7, r2
	str	r3, [r2]
	movs	r3, #128
	adds	r3, r7, r3
	ldr	r3, [r3]
	cmp	r3, #31
	bgt	.L372
	.loc 1 140 0 is_stmt 0 discriminator 1
	movs	r2, #1
	movs	r3, #128
	adds	r3, r7, r3
	ldr	r3, [r3]
	lsls	r2, r2, r3
	movs	r3, r2
	str	r3, [r7, #124]
	ldr	r3, .L429+28
	ldr	r2, [r7, #124]
	str	r2, [r3]
	b	.L373
.L372:
	.loc 1 140 0 discriminator 2
	movs	r3, #128
	adds	r3, r7, r3
	ldr	r3, [r3]
	cmp	r3, #63
	bgt	.L373
	.loc 1 140 0 discriminator 3
	movs	r3, #128
	adds	r3, r7, r3
	ldr	r3, [r3]
	subs	r3, r3, #32
	movs	r2, #1
	lsls	r2, r2, r3
	movs	r3, r2
	str	r3, [r7, #124]
	ldr	r3, .L429+32
	ldr	r2, [r7, #124]
	str	r2, [r3]
.L373:
.LBE132:
	.loc 1 141 0 is_stmt 1
	ldr	r3, .L429+36
	movs	r0, r3
	bl	USC_Pause_us
.LBB133:
	.loc 1 142 0
	movs	r3, #20
	str	r3, [r7, #120]
	ldr	r3, [r7, #120]
	cmp	r3, #31
	bgt	.L374
	.loc 1 142 0 is_stmt 0 discriminator 1
	movs	r2, #1
	ldr	r3, [r7, #120]
	lsls	r2, r2, r3
	movs	r3, r2
	str	r3, [r7, #116]
	ldr	r3, .L429+40
	ldr	r2, [r7, #116]
	str	r2, [r3]
	b	.L375
.L374:
	.loc 1 142 0 discriminator 2
	ldr	r3, [r7, #120]
	cmp	r3, #63
	bgt	.L375
	.loc 1 142 0 discriminator 3
	ldr	r3, [r7, #120]
	subs	r3, r3, #32
	movs	r2, #1
	lsls	r2, r2, r3
	movs	r3, r2
	str	r3, [r7, #116]
	ldr	r3, .L429+44
	ldr	r2, [r7, #116]
	str	r2, [r3]
.L375:
.LBE133:
.LBB134:
.LBB135:
	.loc 1 144 0 is_stmt 1
	movs	r3, #15
	str	r3, [r7, #112]
	ldr	r3, [r7, #112]
	cmp	r3, #31
	bgt	.L376
	.loc 1 144 0 is_stmt 0 discriminator 1
	ldr	r3, .L429+48
	movs	r1, #1
	ldr	r2, [r7, #112]
	lsls	r1, r1, r2
	movs	r2, r1
	str	r2, [r3]
	b	.L377
.L376:
	.loc 1 144 0 discriminator 2
	ldr	r3, [r7, #112]
	cmp	r3, #63
	bgt	.L377
	.loc 1 144 0 discriminator 4
	ldr	r3, .L429+52
	ldr	r2, [r7, #112]
	subs	r2, r2, #32
	movs	r1, #1
	lsls	r1, r1, r2
	movs	r2, r1
	str	r2, [r3]
.L377:
.LBE135:
.LBB136:
	.loc 1 144 0 discriminator 6
	movs	r3, #14
	str	r3, [r7, #108]
	ldr	r3, [r7, #108]
	cmp	r3, #31
	bgt	.L378
	.loc 1 144 0 discriminator 7
	ldr	r3, .L429+48
	movs	r1, #1
	ldr	r2, [r7, #108]
	lsls	r1, r1, r2
	movs	r2, r1
	str	r2, [r3]
	b	.L379
.L378:
	.loc 1 144 0 discriminator 8
	ldr	r3, [r7, #108]
	cmp	r3, #63
	bgt	.L379
	.loc 1 144 0 discriminator 10
	ldr	r3, .L429+52
	ldr	r2, [r7, #108]
	subs	r2, r2, #32
	movs	r1, #1
	lsls	r1, r1, r2
	movs	r2, r1
	str	r2, [r3]
.L379:
.LBE136:
	.loc 1 144 0 discriminator 12
	movs	r0, #1
	bl	USC_Pause_us
.LBB137:
	movs	r3, #15
	str	r3, [r7, #104]
	ldr	r3, [r7, #104]
	cmp	r3, #31
	bgt	.L380
	.loc 1 144 0 discriminator 13
	movs	r2, #1
	ldr	r3, [r7, #104]
	lsls	r2, r2, r3
	movs	r3, r2
	str	r3, [r7, #100]
	ldr	r3, .L429+28
	ldr	r2, [r7, #100]
	str	r2, [r3]
	b	.L381
.L380:
	.loc 1 144 0 discriminator 14
	ldr	r3, [r7, #104]
	cmp	r3, #63
	bgt	.L381
	.loc 1 144 0 discriminator 16
	ldr	r3, [r7, #104]
	subs	r3, r3, #32
	movs	r2, #1
	lsls	r2, r2, r3
	movs	r3, r2
	str	r3, [r7, #100]
	ldr	r3, .L429+32
	ldr	r2, [r7, #100]
	str	r2, [r3]
.L381:
.LBE137:
.LBB138:
	.loc 1 144 0 discriminator 18
	movs	r3, #15
	str	r3, [r7, #96]
	ldr	r3, [r7, #96]
	cmp	r3, #31
	bgt	.L382
	.loc 1 144 0 discriminator 19
	ldr	r3, .L429+8
	movs	r1, #1
	ldr	r2, [r7, #96]
	lsls	r1, r1, r2
	movs	r2, r1
	str	r2, [r3]
	b	.L383
.L382:
	.loc 1 144 0 discriminator 20
	ldr	r3, [r7, #96]
	cmp	r3, #63
	bgt	.L383
	.loc 1 144 0 discriminator 22
	ldr	r3, .L429+12
	ldr	r2, [r7, #96]
	subs	r2, r2, #32
	movs	r1, #1
	lsls	r1, r1, r2
	movs	r2, r1
	str	r2, [r3]
.L383:
.LBE138:
	.loc 1 144 0 discriminator 24
	movs	r0, #1
	bl	USC_Pause_us
.LBB139:
	movs	r3, #14
	str	r3, [r7, #92]
	ldr	r3, [r7, #92]
	cmp	r3, #31
	bgt	.L384
	.loc 1 144 0 discriminator 25
	movs	r2, #1
	ldr	r3, [r7, #92]
	lsls	r2, r2, r3
	movs	r3, r2
	str	r3, [r7, #88]
	ldr	r3, .L429+28
	ldr	r2, [r7, #88]
	str	r2, [r3]
	b	.L385
.L384:
	.loc 1 144 0 discriminator 26
	ldr	r3, [r7, #92]
	cmp	r3, #63
	bgt	.L385
	.loc 1 144 0 discriminator 28
	ldr	r3, [r7, #92]
	subs	r3, r3, #32
	movs	r2, #1
	lsls	r2, r2, r3
	movs	r3, r2
	str	r3, [r7, #88]
	ldr	r3, .L429+32
	ldr	r2, [r7, #88]
	str	r2, [r3]
.L385:
.LBE139:
.LBB140:
	.loc 1 144 0 discriminator 30
	movs	r3, #14
	str	r3, [r7, #84]
	ldr	r3, [r7, #84]
	cmp	r3, #31
	bgt	.L386
	.loc 1 144 0 discriminator 31
	ldr	r3, .L429+8
	movs	r1, #1
	ldr	r2, [r7, #84]
	lsls	r1, r1, r2
	movs	r2, r1
	str	r2, [r3]
	b	.L387
.L386:
	.loc 1 144 0 discriminator 32
	ldr	r3, [r7, #84]
	cmp	r3, #63
	bgt	.L387
	.loc 1 144 0 discriminator 34
	ldr	r3, .L429+12
	ldr	r2, [r7, #84]
	subs	r2, r2, #32
	movs	r1, #1
	lsls	r1, r1, r2
	movs	r2, r1
	str	r2, [r3]
.L387:
.LBE140:
	.loc 1 144 0 discriminator 36
	movs	r0, #1
	bl	USC_Pause_us
.LBB141:
	movs	r3, #231
	adds	r3, r7, r3
	movs	r2, #112
	strb	r2, [r3]
	movs	r3, #0
	movs	r2, #232
	adds	r2, r7, r2
	str	r3, [r2]
	b	.L388
.L430:
	.align	2
.L429:
	.word	2004320119
	.word	-1610478592
	.word	-1610481660
	.word	-1610481644
	.word	2004353023
	.word	2004318071
	.word	2013263735
	.word	-1610480888
	.word	-1610480872
	.word	10000
	.word	-1610480892
	.word	-1610480876
	.word	-1610481656
	.word	-1610481640
.L402:
	.loc 1 144 0 discriminator 74
	movs	r3, #231
	adds	r3, r7, r3
	ldrb	r3, [r3]
	lsls	r3, r3, #24
	asrs	r3, r3, #24
	bpl	.L389
.LBB142:
	.loc 1 144 0 discriminator 38
	movs	r3, #15
	str	r3, [r7, #80]
	ldr	r3, [r7, #80]
	cmp	r3, #31
	bgt	.L390
	.loc 1 144 0 discriminator 40
	ldr	r3, .L431
	movs	r1, #1
	ldr	r2, [r7, #80]
	lsls	r1, r1, r2
	movs	r2, r1
	str	r2, [r3]
	b	.L392
.L390:
	.loc 1 144 0 discriminator 41
	ldr	r3, [r7, #80]
	cmp	r3, #63
	bgt	.L392
	.loc 1 144 0 discriminator 42
	ldr	r3, .L431+4
	ldr	r2, [r7, #80]
	subs	r2, r2, #32
	movs	r1, #1
	lsls	r1, r1, r2
	movs	r2, r1
	str	r2, [r3]
	b	.L392
.L389:
.LBE142:
.LBB143:
	.loc 1 144 0 discriminator 39
	movs	r3, #15
	str	r3, [r7, #76]
	ldr	r3, [r7, #76]
	cmp	r3, #31
	bgt	.L393
	.loc 1 144 0 discriminator 43
	movs	r2, #1
	ldr	r3, [r7, #76]
	lsls	r2, r2, r3
	movs	r3, r2
	str	r3, [r7, #72]
	ldr	r3, .L431+8
	ldr	r2, [r7, #72]
	str	r2, [r3]
	b	.L394
.L393:
	.loc 1 144 0 discriminator 44
	ldr	r3, [r7, #76]
	cmp	r3, #63
	bgt	.L394
	.loc 1 144 0 discriminator 46
	ldr	r3, [r7, #76]
	subs	r3, r3, #32
	movs	r2, #1
	lsls	r2, r2, r3
	movs	r3, r2
	str	r3, [r7, #72]
	ldr	r3, .L431+12
	ldr	r2, [r7, #72]
	str	r2, [r3]
.L394:
.LBE143:
.LBB144:
	.loc 1 144 0 discriminator 48
	movs	r3, #15
	str	r3, [r7, #68]
	ldr	r3, [r7, #68]
	cmp	r3, #31
	bgt	.L395
	.loc 1 144 0 discriminator 49
	ldr	r3, .L431+16
	movs	r1, #1
	ldr	r2, [r7, #68]
	lsls	r1, r1, r2
	movs	r2, r1
	str	r2, [r3]
	b	.L392
.L395:
	.loc 1 144 0 discriminator 50
	ldr	r3, [r7, #68]
	cmp	r3, #63
	bgt	.L392
	.loc 1 144 0 discriminator 52
	ldr	r3, .L431+20
	ldr	r2, [r7, #68]
	subs	r2, r2, #32
	movs	r1, #1
	lsls	r1, r1, r2
	movs	r2, r1
	str	r2, [r3]
.L392:
.LBE144:
	.loc 1 144 0 discriminator 54
	movs	r0, #1
	bl	USC_Pause_us
.LBB145:
	movs	r3, #14
	str	r3, [r7, #64]
	ldr	r3, [r7, #64]
	cmp	r3, #31
	bgt	.L396
	.loc 1 144 0 discriminator 55
	ldr	r3, .L431
	movs	r1, #1
	ldr	r2, [r7, #64]
	lsls	r1, r1, r2
	movs	r2, r1
	str	r2, [r3]
	b	.L397
.L396:
	.loc 1 144 0 discriminator 56
	ldr	r3, [r7, #64]
	cmp	r3, #63
	bgt	.L397
	.loc 1 144 0 discriminator 58
	ldr	r3, .L431+4
	ldr	r2, [r7, #64]
	subs	r2, r2, #32
	movs	r1, #1
	lsls	r1, r1, r2
	movs	r2, r1
	str	r2, [r3]
.L397:
.LBE145:
	.loc 1 144 0 discriminator 60
	movs	r0, #2
	bl	USC_Pause_us
.LBB146:
	movs	r3, #14
	str	r3, [r7, #60]
	ldr	r3, [r7, #60]
	cmp	r3, #31
	bgt	.L398
	.loc 1 144 0 discriminator 61
	movs	r2, #1
	ldr	r3, [r7, #60]
	lsls	r2, r2, r3
	movs	r3, r2
	str	r3, [r7, #56]
	ldr	r3, .L431+8
	ldr	r2, [r7, #56]
	str	r2, [r3]
	b	.L399
.L398:
	.loc 1 144 0 discriminator 62
	ldr	r3, [r7, #60]
	cmp	r3, #63
	bgt	.L399
	.loc 1 144 0 discriminator 64
	ldr	r3, [r7, #60]
	subs	r3, r3, #32
	movs	r2, #1
	lsls	r2, r2, r3
	movs	r3, r2
	str	r3, [r7, #56]
	ldr	r3, .L431+12
	ldr	r2, [r7, #56]
	str	r2, [r3]
.L399:
.LBE146:
.LBB147:
	.loc 1 144 0 discriminator 66
	movs	r3, #14
	str	r3, [r7, #52]
	ldr	r3, [r7, #52]
	cmp	r3, #31
	bgt	.L400
	.loc 1 144 0 discriminator 67
	ldr	r3, .L431+16
	movs	r1, #1
	ldr	r2, [r7, #52]
	lsls	r1, r1, r2
	movs	r2, r1
	str	r2, [r3]
	b	.L401
.L400:
	.loc 1 144 0 discriminator 68
	ldr	r3, [r7, #52]
	cmp	r3, #63
	bgt	.L401
	.loc 1 144 0 discriminator 70
	ldr	r3, .L431+20
	ldr	r2, [r7, #52]
	subs	r2, r2, #32
	movs	r1, #1
	lsls	r1, r1, r2
	movs	r2, r1
	str	r2, [r3]
.L401:
.LBE147:
	.loc 1 144 0 discriminator 72
	movs	r0, #1
	bl	USC_Pause_us
	movs	r3, #231
	adds	r2, r7, r3
	movs	r3, #231
	adds	r3, r7, r3
	ldrb	r3, [r3]
	adds	r3, r3, r3
	strb	r3, [r2]
	movs	r3, #232
	adds	r3, r7, r3
	ldr	r3, [r3]
	adds	r3, r3, #1
	movs	r2, #232
	adds	r2, r7, r2
	str	r3, [r2]
.L388:
	.loc 1 144 0 discriminator 73
	movs	r3, #232
	adds	r3, r7, r3
	ldr	r3, [r3]
	cmp	r3, #7
	bhi	.LCB7139
	b	.L402	@long jump
.LCB7139:
.LBB148:
	.loc 1 144 0 discriminator 75
	movs	r3, #15
	str	r3, [r7, #48]
	ldr	r3, [r7, #48]
	cmp	r3, #31
	bgt	.L403
	.loc 1 144 0 discriminator 76
	ldr	r3, .L431
	movs	r1, #1
	ldr	r2, [r7, #48]
	lsls	r1, r1, r2
	movs	r2, r1
	str	r2, [r3]
	b	.L404
.L403:
	.loc 1 144 0 discriminator 77
	ldr	r3, [r7, #48]
	cmp	r3, #63
	bgt	.L404
	.loc 1 144 0 discriminator 79
	ldr	r3, .L431+4
	ldr	r2, [r7, #48]
	subs	r2, r2, #32
	movs	r1, #1
	lsls	r1, r1, r2
	movs	r2, r1
	str	r2, [r3]
.L404:
.LBE148:
	.loc 1 144 0 discriminator 81
	movs	r0, #2
	bl	USC_Pause_us
.LBB149:
	movs	r3, #14
	str	r3, [r7, #44]
	ldr	r3, [r7, #44]
	cmp	r3, #31
	bgt	.L405
	.loc 1 144 0 discriminator 82
	ldr	r3, .L431
	movs	r1, #1
	ldr	r2, [r7, #44]
	lsls	r1, r1, r2
	movs	r2, r1
	str	r2, [r3]
	b	.L406
.L405:
	.loc 1 144 0 discriminator 83
	ldr	r3, [r7, #44]
	cmp	r3, #63
	bgt	.L406
	.loc 1 144 0 discriminator 85
	ldr	r3, .L431+4
	ldr	r2, [r7, #44]
	subs	r2, r2, #32
	movs	r1, #1
	lsls	r1, r1, r2
	movs	r2, r1
	str	r2, [r3]
.L406:
.LBE149:
	.loc 1 144 0 discriminator 87
	movs	r0, #2
	bl	USC_Pause_us
.LBB150:
	movs	r3, #15
	str	r3, [r7, #40]
	ldr	r3, [r7, #40]
	cmp	r3, #31
	bgt	.L407
	.loc 1 144 0 discriminator 88
	ldr	r3, .L431+24
	ldr	r2, [r3]
	ldr	r3, [r7, #40]
	lsrs	r2, r2, r3
	movs	r3, r2
	movs	r2, #1
	ands	r3, r2
	subs	r2, r3, #1
	sbcs	r3, r3, r2
	lsls	r3, r3, #24
	lsrs	r3, r3, #24
	b	.L408
.L407:
	.loc 1 144 0 discriminator 89
	ldr	r3, [r7, #40]
	cmp	r3, #63
	bgt	.L409
	.loc 1 144 0 discriminator 91
	ldr	r3, .L431+28
	ldr	r2, [r3]
	ldr	r3, [r7, #40]
	subs	r3, r3, #32
	lsrs	r2, r2, r3
	movs	r3, r2
	movs	r2, #1
	ands	r3, r2
	beq	.L409
	.loc 1 144 0 discriminator 93
	movs	r3, #1
	b	.L408
.L409:
	.loc 1 144 0 discriminator 94
	movs	r3, #0
.L408:
.LBE150:
	.loc 1 144 0 discriminator 97
	movs	r2, #232
	adds	r2, r7, r2
	str	r3, [r2]
.LBB151:
	movs	r3, #14
	str	r3, [r7, #36]
	ldr	r3, [r7, #36]
	cmp	r3, #31
	bgt	.L411
	.loc 1 144 0 discriminator 98
	movs	r2, #1
	ldr	r3, [r7, #36]
	lsls	r2, r2, r3
	movs	r3, r2
	str	r3, [r7, #32]
	ldr	r3, .L431+8
	ldr	r2, [r7, #32]
	str	r2, [r3]
	b	.L412
.L411:
	.loc 1 144 0 discriminator 99
	ldr	r3, [r7, #36]
	cmp	r3, #63
	bgt	.L412
	.loc 1 144 0 discriminator 101
	ldr	r3, [r7, #36]
	subs	r3, r3, #32
	movs	r2, #1
	lsls	r2, r2, r3
	movs	r3, r2
	str	r3, [r7, #32]
	ldr	r3, .L431+12
	ldr	r2, [r7, #32]
	str	r2, [r3]
.L412:
.LBE151:
.LBB152:
	.loc 1 144 0 discriminator 103
	movs	r3, #14
	str	r3, [r7, #28]
	ldr	r3, [r7, #28]
	cmp	r3, #31
	bgt	.L413
	.loc 1 144 0 discriminator 104
	ldr	r3, .L431+16
	movs	r1, #1
	ldr	r2, [r7, #28]
	lsls	r1, r1, r2
	movs	r2, r1
	str	r2, [r3]
	b	.L414
.L413:
	.loc 1 144 0 discriminator 105
	ldr	r3, [r7, #28]
	cmp	r3, #63
	bgt	.L414
	.loc 1 144 0 discriminator 107
	ldr	r3, .L431+20
	ldr	r2, [r7, #28]
	subs	r2, r2, #32
	movs	r1, #1
	lsls	r1, r1, r2
	movs	r2, r1
	str	r2, [r3]
.L414:
.LBE152:
	.loc 1 144 0 discriminator 109
	movs	r0, #2
	bl	USC_Pause_us
	movs	r3, #232
	adds	r3, r7, r3
	ldr	r3, [r3]
	subs	r2, r3, #1
	sbcs	r3, r3, r2
	lsls	r3, r3, #24
	lsrs	r2, r3, #24
	movs	r3, #27
	adds	r3, r7, r3
	strb	r2, [r3]
.LBE141:
.LBB153:
	movs	r3, #15
	str	r3, [r7, #20]
	ldr	r3, [r7, #20]
	cmp	r3, #31
	bgt	.L415
	.loc 1 144 0 discriminator 110
	movs	r2, #1
	ldr	r3, [r7, #20]
	lsls	r2, r2, r3
	movs	r3, r2
	str	r3, [r7, #16]
	ldr	r3, .L431+8
	ldr	r2, [r7, #16]
	str	r2, [r3]
	b	.L416
.L415:
	.loc 1 144 0 discriminator 111
	ldr	r3, [r7, #20]
	cmp	r3, #63
	bgt	.L416
	.loc 1 144 0 discriminator 113
	ldr	r3, [r7, #20]
	subs	r3, r3, #32
	movs	r2, #1
	lsls	r2, r2, r3
	movs	r3, r2
	str	r3, [r7, #16]
	ldr	r3, .L431+12
	ldr	r2, [r7, #16]
	str	r2, [r3]
.L416:
.LBE153:
.LBB154:
	.loc 1 144 0 discriminator 115
	movs	r3, #15
	str	r3, [r7, #12]
	ldr	r3, [r7, #12]
	cmp	r3, #31
	bgt	.L417
	.loc 1 144 0 discriminator 116
	ldr	r3, .L431+16
	movs	r1, #1
	ldr	r2, [r7, #12]
	lsls	r1, r1, r2
	movs	r2, r1
	str	r2, [r3]
	b	.L418
.L417:
	.loc 1 144 0 discriminator 117
	ldr	r3, [r7, #12]
	cmp	r3, #63
	bgt	.L418
	.loc 1 144 0 discriminator 119
	ldr	r3, .L431+20
	ldr	r2, [r7, #12]
	subs	r2, r2, #32
	movs	r1, #1
	lsls	r1, r1, r2
	movs	r2, r1
	str	r2, [r3]
.L418:
.LBE154:
	.loc 1 144 0 discriminator 121
	movs	r0, #1
	bl	USC_Pause_us
.LBB155:
	movs	r3, #14
	str	r3, [r7, #8]
	ldr	r3, [r7, #8]
	cmp	r3, #31
	bgt	.L419
	.loc 1 144 0 discriminator 122
	ldr	r3, .L431
	movs	r1, #1
	ldr	r2, [r7, #8]
	lsls	r1, r1, r2
	movs	r2, r1
	str	r2, [r3]
	b	.L420
.L419:
	.loc 1 144 0 discriminator 123
	ldr	r3, [r7, #8]
	cmp	r3, #63
	bgt	.L420
	.loc 1 144 0 discriminator 125
	ldr	r3, .L431+4
	ldr	r2, [r7, #8]
	subs	r2, r2, #32
	movs	r1, #1
	lsls	r1, r1, r2
	movs	r2, r1
	str	r2, [r3]
.L420:
.LBE155:
	.loc 1 144 0 discriminator 127
	movs	r0, #1
	bl	USC_Pause_us
.LBB156:
	movs	r3, #15
	str	r3, [r7, #4]
	ldr	r3, [r7, #4]
	cmp	r3, #31
	bgt	.L421
	.loc 1 144 0 discriminator 128
	ldr	r3, .L431
	movs	r1, #1
	ldr	r2, [r7, #4]
	lsls	r1, r1, r2
	movs	r2, r1
	str	r2, [r3]
	b	.L422
.L432:
	.align	2
.L431:
	.word	-1610481656
	.word	-1610481640
	.word	-1610480888
	.word	-1610480872
	.word	-1610481660
	.word	-1610481644
	.word	-1610480640
	.word	-1610480624
.L421:
	.loc 1 144 0 discriminator 129
	ldr	r3, [r7, #4]
	cmp	r3, #63
	bgt	.L422
	.loc 1 144 0 discriminator 131
	ldr	r3, .L433
	ldr	r2, [r7, #4]
	subs	r2, r2, #32
	movs	r1, #1
	lsls	r1, r1, r2
	movs	r2, r1
	str	r2, [r3]
.L422:
.LBE156:
	.loc 1 144 0 discriminator 133
	movs	r0, #1
	bl	USC_Pause_us
	movs	r3, #27
	adds	r3, r7, r3
	ldrb	r3, [r3]
	rsbs	r2, r3, #0
	adcs	r3, r3, r2
	lsls	r3, r3, #24
	lsrs	r2, r3, #24
	adds	r3, r7, #3
	strb	r2, [r3]
.LBE134:
	.loc 1 145 0 is_stmt 1 discriminator 133
	adds	r3, r7, #3
	ldrb	r3, [r3]
	cmp	r3, #0
	beq	.L423
	.loc 1 145 0 is_stmt 0 discriminator 1
	bl	FT6236_RegisterISR
	subs	r3, r0, #0
	beq	.L423
	.loc 1 152 0 is_stmt 1
	movs	r0, #23
	bl	NVIC_EnableEINT
	.loc 1 153 0
	ldr	r3, .L433+4
	movs	r1, #56
	movs	r0, r3
	bl	printf
	.loc 1 153 0
	ldr	r3, .L433+8
	ldr	r3, [r3]
	ldr	r3, [r3, #8]
	.loc 1 153 0
	movs	r0, r3
	bl	fflush
	.loc 1 154 0
	movs	r3, #1
	b	.L424
.L423:
	.loc 1 156 0
	ldr	r3, .L433+12
	movs	r0, r3
	bl	puts
	.loc 1 156 0
	ldr	r3, .L433+8
	ldr	r3, [r3]
	ldr	r3, [r3, #8]
	.loc 1 156 0
	movs	r0, r3
	bl	fflush
	.loc 1 157 0
	movs	r3, #0
.L424:
	.loc 1 158 0
	movs	r0, r3
	mov	sp, r7
	add	sp, sp, #240
	@ sp needed
	pop	{r7, pc}
.L434:
	.align	2
.L433:
	.word	-1610481640
	.word	.LC6
	.word	_impure_ptr
	.word	.LC8
	.cfi_endproc
.LFE6:
	.size	FT6236_Initialize, .-FT6236_Initialize
	.section	.text.FT6236_Sleep,"ax",%progbits
	.align	2
	.global	FT6236_Sleep
	.code	16
	.thumb_func
	.type	FT6236_Sleep, %function
FT6236_Sleep:
.LFB7:
	.loc 1 161 0
	.cfi_startproc
	@ args = 0, pretend = 0, frame = 0
	@ frame_needed = 1, uses_anonymous_args = 0
	push	{r7, lr}
	.cfi_def_cfa_offset 8
	.cfi_offset 7, -8
	.cfi_offset 14, -4
	add	r7, sp, #0
	.cfi_def_cfa_register 7
	.loc 1 162 0
	nop
	mov	sp, r7
	@ sp needed
	pop	{r7, pc}
	.cfi_endproc
.LFE7:
	.size	FT6236_Sleep, .-FT6236_Sleep
	.section	.text.FT6236_Resume,"ax",%progbits
	.align	2
	.global	FT6236_Resume
	.code	16
	.thumb_func
	.type	FT6236_Resume, %function
FT6236_Resume:
.LFB8:
	.loc 1 165 0
	.cfi_startproc
	@ args = 0, pretend = 0, frame = 0
	@ frame_needed = 1, uses_anonymous_args = 0
	push	{r7, lr}
	.cfi_def_cfa_offset 8
	.cfi_offset 7, -8
	.cfi_offset 14, -4
	add	r7, sp, #0
	.cfi_def_cfa_register 7
	.loc 1 166 0
	nop
	mov	sp, r7
	@ sp needed
	pop	{r7, pc}
	.cfi_endproc
.LFE8:
	.size	FT6236_Resume, .-FT6236_Resume
	.text
.Letext0:
	.file 2 "d:\\1.11\\share\\em_armgcc\\arm-none-eabi\\include\\machine\\_default_types.h"
	.file 3 "d:\\1.11\\share\\em_armgcc\\arm-none-eabi\\include\\sys\\_stdint.h"
	.file 4 "d:\\1.11\\share\\em_armgcc\\arm-none-eabi\\include\\sys\\lock.h"
	.file 5 "d:\\1.11\\share\\em_armgcc\\arm-none-eabi\\include\\sys\\_types.h"
	.file 6 "d:\\1.11\\share\\em_armgcc\\lib\\gcc\\arm-none-eabi\\5.4.1\\include\\stddef.h"
	.file 7 "d:\\1.11\\share\\em_armgcc\\arm-none-eabi\\include\\sys\\reent.h"
	.file 8 ".\\Source/systypes.h"
	.file 9 ".\\Source\\GUI/gditypes.h"
	.file 10 ".\\Source\\Lib\\MT6261/drivers\\lcdif.h"
	.file 11 ".\\Source\\Lib\\MT6261/drivers\\usb.h"
	.file 12 ".\\Source\\System/evmngr.h"
	.file 13 ".\\Source\\GUI/gui.h"
	.file 14 ".\\Source\\Application\\Drivers/ft6236.h"