	.syntax unified
	.cpu arm9e
	.fpu softvfp
	.eabi_attribute 20, 1
	.eabi_attribute 21, 1
	.eabi_attribute 23, 3
	.eabi_attribute 24, 1
	.eabi_attribute 25, 1
	.eabi_attribute 26, 1
	.eabi_attribute 30, 6
	.eabi_attribute 34, 0
	.eabi_attribute 18, 4
	.thumb
	.syntax unified
	.file	"ili9341.c"
	.text
.Ltext0:
	.cfi_sections	.debug_frame
	.section	.text.ILI9341_Initialize,"ax",%progbits
	.align	2
	.global	ILI9341_Initialize
	.code	16
	.thumb_func
	.type	ILI9341_Initialize, %function
ILI9341_Initialize:
.LFB1:
	.file 1 "Source\\Application\\Drivers\\ili9341.c"
	.loc 1 26 0
	.cfi_startproc
	@ args = 0, pretend = 0, frame = 0
	@ frame_needed = 1, uses_anonymous_args = 0
	push	{r7, lr}
	.cfi_def_cfa_offset 8
	.cfi_offset 7, -8
	.cfi_offset 14, -4
	add	r7, sp, #0
	.cfi_def_cfa_register 7
	.loc 1 27 0
	movs	r0, #192
	bl	LCDIF_WriteCommand
	.loc 1 28 0
	movs	r0, #35
	bl	LCDIF_WriteData
	.loc 1 30 0
	movs	r0, #193
	bl	LCDIF_WriteCommand
	.loc 1 31 0
	movs	r0, #0
	bl	LCDIF_WriteData
	.loc 1 33 0
	movs	r0, #197
	bl	LCDIF_WriteCommand
	.loc 1 34 0
	movs	r0, #62
	bl	LCDIF_WriteData
	.loc 1 35 0
	movs	r0, #40
	bl	LCDIF_WriteData
	.loc 1 37 0
	movs	r0, #54
	bl	LCDIF_WriteCommand
	.loc 1 38 0
	movs	r0, #0
	bl	LCDIF_WriteData
	.loc 1 40 0
	movs	r0, #58
	bl	LCDIF_WriteCommand
	.loc 1 41 0
	movs	r0, #102
	bl	LCDIF_WriteData
	.loc 1 43 0
	movs	r0, #177
	bl	LCDIF_WriteCommand
	.loc 1 44 0
	movs	r0, #0
	bl	LCDIF_WriteData
	.loc 1 45 0
	movs	r0, #24
	bl	LCDIF_WriteData
	.loc 1 47 0
	movs	r0, #182
	bl	LCDIF_WriteCommand
	.loc 1 48 0
	movs	r0, #8
	bl	LCDIF_WriteData
	.loc 1 49 0
	movs	r0, #130
	bl	LCDIF_WriteData
	.loc 1 50 0
	movs	r0, #29
	bl	LCDIF_WriteData
	.loc 1 52 0
	movs	r0, #17
	bl	LCDIF_WriteCommand
	.loc 1 53 0
	movs	r0, #41
	bl	LCDIF_WriteCommand
	.loc 1 55 0
	movs	r3, #1
	.loc 1 56 0
	movs	r0, r3
	mov	sp, r7
	@ sp needed
	pop	{r7, pc}
	.cfi_endproc
.LFE1:
	.size	ILI9341_Initialize, .-ILI9341_Initialize
	.section	.text.ILI9341_SleepLCD,"ax",%progbits
	.align	2
	.global	ILI9341_SleepLCD
	.code	16
	.thumb_func
	.type	ILI9341_SleepLCD, %function
ILI9341_SleepLCD:
.LFB2:
	.loc 1 59 0
	.cfi_startproc
	@ args = 0, pretend = 0, frame = 0
	@ frame_needed = 1, uses_anonymous_args = 0
	push	{r7, lr}
	.cfi_def_cfa_offset 8
	.cfi_offset 7, -8
	.cfi_offset 14, -4
	add	r7, sp, #0
	.cfi_def_cfa_register 7
	.loc 1 60 0
	movs	r0, #40
	bl	LCDIF_WriteCommand
	.loc 1 61 0
	movs	r0, #16
	bl	LCDIF_WriteCommand
	.loc 1 62 0
	nop
	mov	sp, r7
	@ sp needed
	pop	{r7, pc}
	.cfi_endproc
.LFE2:
	.size	ILI9341_SleepLCD, .-ILI9341_SleepLCD
	.section	.text.ILI9341_ResumeLCD,"ax",%progbits
	.align	2
	.global	ILI9341_ResumeLCD
	.code	16
	.thumb_func
	.type	ILI9341_ResumeLCD, %function
ILI9341_ResumeLCD:
.LFB3:
	.loc 1 65 0
	.cfi_startproc
	@ args = 0, pretend = 0, frame = 0
	@ frame_needed = 1, uses_anonymous_args = 0
	push	{r7, lr}
	.cfi_def_cfa_offset 8
	.cfi_offset 7, -8
	.cfi_offset 14, -4
	add	r7, sp, #0
	.cfi_def_cfa_register 7
	.loc 1 66 0
	movs	r0, #17
	bl	LCDIF_WriteCommand
	.loc 1 67 0
	movs	r0, #41
	bl	LCDIF_WriteCommand
	.loc 1 68 0
	nop
	mov	sp, r7
	@ sp needed
	pop	{r7, pc}
	.cfi_endproc
.LFE3:
	.size	ILI9341_ResumeLCD, .-ILI9341_ResumeLCD
	.section	.text.ILI9341_SetOutputWindow,"ax",%progbits
	.align	2
	.global	ILI9341_SetOutputWindow
	.code	16
	.thumb_func
	.type	ILI9341_SetOutputWindow, %function
ILI9341_SetOutputWindow:
.LFB4:
	.loc 1 71 0
	.cfi_startproc
	@ args = 0, pretend = 0, frame = 16
	@ frame_needed = 1, uses_anonymous_args = 0
	push	{r7, lr}
	.cfi_def_cfa_offset 8
	.cfi_offset 7, -8
	.cfi_offset 14, -4
	sub	sp, sp, #16
	.cfi_def_cfa_offset 24
	add	r7, sp, #0
	.cfi_def_cfa_register 7
	str	r0, [r7, #4]
	.loc 1 72 0
	movs	r3, #0
	str	r3, [r7, #12]
	.loc 1 74 0
	ldr	r3, [r7, #4]
	cmp	r3, #0
	bne	.LCB121
	b	.L6	@long jump
.LCB121:
.LBB2:
	.loc 1 76 0
	movs	r3, #0
	str	r3, [r7, #8]
	.loc 1 78 0
	movs	r0, #68
	bl	malloc
	movs	r3, r0
	str	r3, [r7, #12]
	.loc 1 79 0
	ldr	r3, [r7, #12]
	cmp	r3, #0
	bne	.LCB131
	b	.L6	@long jump
.LCB131:
	.loc 1 81 0
	ldr	r3, [r7, #12]
	movs	r2, #11
	str	r2, [r3, #20]
	.loc 1 82 0
	ldr	r3, [r7, #12]
	ldr	r2, [r7, #4]
	adds	r3, r3, #12
	movs	r1, r2
	movs	r2, #8
	movs	r0, r3
	bl	memcpy
	.loc 1 84 0
	ldr	r3, [r7, #8]
	adds	r2, r3, #1
	str	r2, [r7, #8]
	ldr	r2, [r7, #12]
	adds	r3, r3, #6
	lsls	r3, r3, #2
	ldr	r1, .L8
	str	r1, [r3, r2]
	.loc 1 85 0
	ldr	r3, [r7, #8]
	adds	r2, r3, #1
	str	r2, [r7, #8]
	ldr	r2, [r7, #4]
	movs	r1, #0
	ldrsh	r2, [r2, r1]
	asrs	r2, r2, #8
	movs	r1, r2
	movs	r2, #255
	ands	r1, r2
	ldr	r2, [r7, #12]
	adds	r3, r3, #6
	lsls	r3, r3, #2
	str	r1, [r3, r2]
	.loc 1 86 0
	ldr	r3, [r7, #8]
	adds	r2, r3, #1
	str	r2, [r7, #8]
	ldr	r2, [r7, #4]
	movs	r1, #0
	ldrsh	r2, [r2, r1]
	lsls	r2, r2, #16
	lsrs	r2, r2, #16
	movs	r1, r2
	movs	r2, #255
	ands	r1, r2
	ldr	r2, [r7, #12]
	adds	r3, r3, #6
	lsls	r3, r3, #2
	str	r1, [r3, r2]
	.loc 1 87 0
	ldr	r3, [r7, #8]
	adds	r2, r3, #1
	str	r2, [r7, #8]
	ldr	r2, [r7, #4]
	movs	r1, #4
	ldrsh	r2, [r2, r1]
	asrs	r2, r2, #8
	movs	r1, r2
	movs	r2, #255
	ands	r1, r2
	ldr	r2, [r7, #12]
	adds	r3, r3, #6
	lsls	r3, r3, #2
	str	r1, [r3, r2]
	.loc 1 88 0
	ldr	r3, [r7, #8]
	adds	r2, r3, #1
	str	r2, [r7, #8]
	ldr	r2, [r7, #4]
	movs	r1, #4
	ldrsh	r2, [r2, r1]
	lsls	r2, r2, #16
	lsrs	r2, r2, #16
	movs	r1, r2
	movs	r2, #255
	ands	r1, r2
	ldr	r2, [r7, #12]
	adds	r3, r3, #6
	lsls	r3, r3, #2
	str	r1, [r3, r2]
	.loc 1 90 0
	ldr	r3, [r7, #8]
	adds	r2, r3, #1
	str	r2, [r7, #8]
	ldr	r2, [r7, #12]
	adds	r3, r3, #6
	lsls	r3, r3, #2
	ldr	r1, .L8+4
	str	r1, [r3, r2]
	.loc 1 91 0
	ldr	r3, [r7, #8]
	adds	r2, r3, #1
	str	r2, [r7, #8]
	ldr	r2, [r7, #4]
	movs	r1, #2
	ldrsh	r2, [r2, r1]
	asrs	r2, r2, #8
	movs	r1, r2
	movs	r2, #255
	ands	r1, r2
	ldr	r2, [r7, #12]
	adds	r3, r3, #6
	lsls	r3, r3, #2
	str	r1, [r3, r2]
	.loc 1 92 0
	ldr	r3, [r7, #8]
	adds	r2, r3, #1
	str	r2, [r7, #8]
	ldr	r2, [r7, #4]
	movs	r1, #2
	ldrsh	r2, [r2, r1]
	movs	r1, r2
	movs	r2, #255
	ands	r1, r2
	ldr	r2, [r7, #12]
	adds	r3, r3, #6
	lsls	r3, r3, #2
	str	r1, [r3, r2]
	.loc 1 93 0
	ldr	r3, [r7, #8]
	adds	r2, r3, #1
	str	r2, [r7, #8]
	ldr	r2, [r7, #4]
	movs	r1, #6
	ldrsh	r2, [r2, r1]
	asrs	r2, r2, #8
	movs	r1, r2
	movs	r2, #255
	ands	r1, r2
	ldr	r2, [r7, #12]
	adds	r3, r3, #6
	lsls	r3, r3, #2
	str	r1, [r3, r2]
	.loc 1 94 0
	ldr	r3, [r7, #8]
	adds	r2, r3, #1
	str	r2, [r7, #8]
	ldr	r2, [r7, #4]
	movs	r1, #6
	ldrsh	r2, [r2, r1]
	movs	r1, r2
	movs	r2, #255
	ands	r1, r2
	ldr	r2, [r7, #12]
	adds	r3, r3, #6
	lsls	r3, r3, #2
	str	r1, [r3, r2]
	.loc 1 96 0
	ldr	r3, [r7, #8]
	adds	r2, r3, #1
	str	r2, [r7, #8]
	ldr	r2, [r7, #12]
	adds	r3, r3, #6
	lsls	r3, r3, #2
	ldr	r1, .L8+8
	str	r1, [r3, r2]
.L6:
.LBE2:
	.loc 1 99 0
	ldr	r3, [r7, #12]
	.loc 1 100 0
	movs	r0, r3
	mov	sp, r7
	add	sp, sp, #16
	@ sp needed
	pop	{r7, pc}
.L9:
	.align	2
.L8:
	.word	8388650
	.word	8388651
	.word	8388652
	.cfi_endproc
.LFE4:
	.size	ILI9341_SetOutputWindow, .-ILI9341_SetOutputWindow
	.text
.Letext0:
	.file 2 "d:\\1.11\\share\\em_armgcc\\arm-none-eabi\\include\\machine\\_default_types.h"
	.file 3 "d:\\1.11\\share\\em_armgcc\\arm-none-eabi\\include\\sys\\_stdint.h"
	.file 4 ".\\Source/systypes.h"
	.file 5 ".\\Source\\System/dlist.h"
	.file 6 ".\\Source\\GUI/gditypes.h"
	.file 7 ".\\Source\\Lib\\MT6261/drivers\\lcdif.h"