	.syntax unified
	.cpu arm9e
	.fpu softvfp
	.eabi_attribute 20, 1
	.eabi_attribute 21, 1
	.eabi_attribute 23, 3
	.eabi_attribute 24, 1
	.eabi_attribute 25, 1
	.eabi_attribute 26, 1
	.eabi_attribute 30, 6
	.eabi_attribute 34, 0
	.eabi_attribute 18, 4
	.thumb
	.syntax unified
	.file	"usbdevice_cdc.c"
	.text
.Ltext0:
	.cfi_sections	.debug_frame
	.global	sd00_cdc
	.section	.rodata.sd00_cdc,"a",%progbits
	.align	2
	.type	sd00_cdc, %object
	.size	sd00_cdc, 4
sd00_cdc:
	.byte	4
	.byte	3
	.short	1033
	.global	sd01_cdc
	.section	.rodata.sd01_cdc,"a",%progbits
	.align	2
	.type	sd01_cdc, %object
	.size	sd01_cdc, 52
sd01_cdc:
	.byte	52
	.byte	3
	.ascii	"P\000r\000o\000l\000i\000f\000i\000c\000 \000T\000e"
	.ascii	"\000c\000h\000n\000o\000l\000o\000g\000y\000 \000I\000"
	.ascii	"n\000c\000.\000 \000"
	.global	sd02_cdc
	.section	.rodata.sd02_cdc,"a",%progbits
	.align	2
	.type	sd02_cdc, %object
	.size	sd02_cdc, 48
sd02_cdc:
	.byte	48
	.byte	3
	.ascii	"U\000S\000B\000-\000S\000e\000r\000i\000a\000l\000 "
	.ascii	"\000C\000o\000n\000t\000r\000o\000l\000l\000e\000r\000"
	.ascii	" \000D\000"
	.section	.rodata.STR_DATA_CDC,"a",%progbits
	.align	2
	.type	STR_DATA_CDC, %object
	.size	STR_DATA_CDC, 12
STR_DATA_CDC:
	.word	sd00_cdc
	.word	sd01_cdc
	.word	sd02_cdc
	.section	.rodata.DEV_DESC_CDC,"a",%progbits
	.align	2
	.type	DEV_DESC_CDC, %object
	.size	DEV_DESC_CDC, 18
DEV_DESC_CDC:
	.byte	18
	.byte	1
	.short	272
	.byte	0
	.byte	0
	.byte	0
	.byte	64
	.short	1659
	.short	8963
	.short	1024
	.byte	1
	.byte	2
	.byte	0
	.byte	1
	.section	.rodata.CFG_DESC_CDC,"a",%progbits
	.align	2
	.type	CFG_DESC_CDC, %object
	.size	CFG_DESC_CDC, 40
CFG_DESC_CDC:
	.byte	9
	.byte	2
	.short	39
	.byte	1
	.byte	1
	.byte	0
	.byte	-128
	.byte	100
	.byte	9
	.byte	4
	.byte	0
	.byte	0
	.byte	3
	.byte	-1
	.byte	0
	.byte	0
	.byte	0
	.byte	7
	.byte	5
	.byte	-125
	.byte	3
	.byte	16
	.byte	0
	.byte	1
	.byte	7
	.byte	5
	.byte	-127
	.byte	2
	.byte	64
	.byte	0
	.byte	0
	.byte	7
	.byte	5
	.byte	1
	.byte	2
	.byte	64
	.byte	0
	.byte	0
	.space	1
	.section	.rodata.VReq,"a",%progbits
	.align	2
	.type	VReq, %object
	.size	VReq, 28
VReq:
	.short	128
	.byte	1
	.space	1
	.short	129
	.byte	0
	.space	1
	.short	130
	.byte	68
	.space	1
	.short	-31869
	.byte	-1
	.space	1
	.short	-31612
	.byte	2
	.space	1
	.short	-31098
	.byte	-86
	.space	1
	.short	-27500
	.byte	0
	.space	1
	.section	.bss.USB_CDC_Interface,"aw",%nobits
	.align	2
	.type	USB_CDC_Interface, %object
	.size	USB_CDC_Interface, 40
USB_CDC_Interface:
	.space	40
	.section	.bss.IntEventerInfo,"aw",%nobits
	.align	2
	.type	IntEventerInfo, %object
	.size	IntEventerInfo, 4
IntEventerInfo:
	.space	4
	.section	.bss.CDC_DeviceConfig,"aw",%nobits
	.type	CDC_DeviceConfig, %object
	.size	CDC_DeviceConfig, 1
CDC_DeviceConfig:
	.space	1
	.section	.bss.CDC_DeviceStatus,"aw",%nobits
	.align	1
	.type	CDC_DeviceStatus, %object
	.size	CDC_DeviceStatus, 2
CDC_DeviceStatus:
	.space	2
	.section	.bss.USB_CDC_Connected,"aw",%nobits
	.type	USB_CDC_Connected, %object
	.size	USB_CDC_Connected, 1
USB_CDC_Connected:
	.space	1
	.section	.bss.USB_CDC_WaitTXAck,"aw",%nobits
	.type	USB_CDC_WaitTXAck, %object
	.size	USB_CDC_WaitTXAck, 1
USB_CDC_WaitTXAck:
	.space	1
	.section	.bss.USB_CDC_TXTimeout,"aw",%nobits
	.type	USB_CDC_TXTimeout, %object
	.size	USB_CDC_TXTimeout, 1
USB_CDC_TXTimeout:
	.space	1
	.section	.bss.CDCInterfaceInitialized,"aw",%nobits
	.type	CDCInterfaceInitialized, %object
	.size	CDCInterfaceInitialized, 1
CDCInterfaceInitialized:
	.space	1
	.section	.bss.CDC_OUTBuffer,"aw",%nobits
	.align	2
	.type	CDC_OUTBuffer, %object
	.size	CDC_OUTBuffer, 64
CDC_OUTBuffer:
	.space	64
	.section	.bss.CDC_OUTRingBuffer,"aw",%nobits
	.align	2
	.type	CDC_OUTRingBuffer, %object
	.size	CDC_OUTRingBuffer, 4
CDC_OUTRingBuffer:
	.space	4
	.section	.bss.CDC_TimeoutTimer,"aw",%nobits
	.align	2
	.type	CDC_TimeoutTimer, %object
	.size	CDC_TimeoutTimer, 4
CDC_TimeoutTimer:
	.space	4
	.section	.bss.CDC_PrevTransmitAmount,"aw",%nobits
	.align	2
	.type	CDC_PrevTransmitAmount, %object
	.size	CDC_PrevTransmitAmount, 4
CDC_PrevTransmitAmount:
	.space	4
	.section	.data.CDC_LineCoding,"aw",%progbits
	.align	2
	.type	CDC_LineCoding, %object
	.size	CDC_LineCoding, 8
CDC_LineCoding:
	.word	115200
	.byte	0
	.byte	0
	.byte	8
	.space	1
	.section	.text.USB_CDC_GetStringDescriptorCount,"ax",%progbits
	.align	2
	.code	16
	.thumb_func
	.type	USB_CDC_GetStringDescriptorCount, %function
USB_CDC_GetStringDescriptorCount:
.LFB1:
	.file 1 "Source\\Application\\Drivers\\usbdevice_cdc.c"
	.loc 1 171 0
	.cfi_startproc
	@ args = 0, pretend = 0, frame = 0
	@ frame_needed = 1, uses_anonymous_args = 0
	push	{r7, lr}
	.cfi_def_cfa_offset 8
	.cfi_offset 7, -8
	.cfi_offset 14, -4
	add	r7, sp, #0
	.cfi_def_cfa_register 7
	.loc 1 172 0
	movs	r3, #3
	.loc 1 173 0
	movs	r0, r3
	mov	sp, r7
	@ sp needed
	pop	{r7, pc}
	.cfi_endproc
.LFE1:
	.size	USB_CDC_GetStringDescriptorCount, .-USB_CDC_GetStringDescriptorCount
	.section	.text.USB_CDC_GetStringDescriptor,"ax",%progbits
	.align	2
	.code	16
	.thumb_func
	.type	USB_CDC_GetStringDescriptor, %function
USB_CDC_GetStringDescriptor:
.LFB2:
	.loc 1 176 0
	.cfi_startproc
	@ args = 0, pretend = 0, frame = 8
	@ frame_needed = 1, uses_anonymous_args = 0
	push	{r7, lr}
	.cfi_def_cfa_offset 8
	.cfi_offset 7, -8
	.cfi_offset 14, -4
	sub	sp, sp, #8
	.cfi_def_cfa_offset 16
	add	r7, sp, #0
	.cfi_def_cfa_register 7
	movs	r2, r0
	adds	r3, r7, #7
	strb	r2, [r3]
	.loc 1 177 0
	bl	USB_CDC_GetStringDescriptorCount
	movs	r3, r0
	movs	r2, r3
	adds	r3, r7, #7
	ldrb	r3, [r3]
	cmp	r3, r2
	bcs	.L4
	.loc 1 177 0 is_stmt 0 discriminator 1
	adds	r3, r7, #7
	ldrb	r2, [r3]
	ldr	r3, .L7
	lsls	r2, r2, #2
	ldr	r3, [r2, r3]
	b	.L6
.L4:
	.loc 1 177 0 discriminator 2
	movs	r3, #0
.L6:
	.loc 1 178 0 is_stmt 1 discriminator 5
	movs	r0, r3
	mov	sp, r7
	add	sp, sp, #8
	@ sp needed
	pop	{r7, pc}
.L8:
	.align	2
.L7:
	.word	STR_DATA_CDC
	.cfi_endproc
.LFE2:
	.size	USB_CDC_GetStringDescriptor, .-USB_CDC_GetStringDescriptor
	.section	.text.USB_CDC_SetConfiguration,"ax",%progbits
	.align	2
	.code	16
	.thumb_func
	.type	USB_CDC_SetConfiguration, %function
USB_CDC_SetConfiguration:
.LFB3:
	.loc 1 181 0
	.cfi_startproc
	@ args = 0, pretend = 0, frame = 8
	@ frame_needed = 1, uses_anonymous_args = 0
	push	{r7, lr}
	.cfi_def_cfa_offset 8
	.cfi_offset 7, -8
	.cfi_offset 14, -4
	sub	sp, sp, #8
	.cfi_def_cfa_offset 16
	add	r7, sp, #0
	.cfi_def_cfa_register 7
	movs	r2, r0
	adds	r3, r7, #7
	strb	r2, [r3]
	.loc 1 183 0
	ldr	r3, .L10
	adds	r2, r7, #7
	ldrb	r2, [r2]
	strb	r2, [r3]
	.loc 1 184 0
	nop
	mov	sp, r7
	add	sp, sp, #8
	@ sp needed
	pop	{r7, pc}
.L11:
	.align	2
.L10:
	.word	CDC_DeviceConfig
	.cfi_endproc
.LFE3:
	.size	USB_CDC_SetConfiguration, .-USB_CDC_SetConfiguration
	.section	.text.USB_CDC_IntFlashRXBuffer,"ax",%progbits
	.align	2
	.code	16
	.thumb_func
	.type	USB_CDC_IntFlashRXBuffer, %function
USB_CDC_IntFlashRXBuffer:
.LFB4:
	.loc 1 187 0
	.cfi_startproc
	@ args = 0, pretend = 0, frame = 0
	@ frame_needed = 1, uses_anonymous_args = 0
	push	{r7, lr}
	.cfi_def_cfa_offset 8
	.cfi_offset 7, -8
	.cfi_offset 14, -4
	add	r7, sp, #0
	.cfi_def_cfa_register 7
	.loc 1 188 0
	ldr	r3, .L13
	ldr	r3, [r3]
	movs	r0, r3
	bl	RB_FlashBuffer
	.loc 1 189 0
	nop
	mov	sp, r7
	@ sp needed
	pop	{r7, pc}
.L14:
	.align	2
.L13:
	.word	CDC_OUTRingBuffer
	.cfi_endproc
.LFE4:
	.size	USB_CDC_IntFlashRXBuffer, .-USB_CDC_IntFlashRXBuffer
	.section	.text.USB_CDC_IntFlashTXBuffer,"ax",%progbits
	.align	2
	.code	16
	.thumb_func
	.type	USB_CDC_IntFlashTXBuffer, %function
USB_CDC_IntFlashTXBuffer:
.LFB5:
	.loc 1 192 0
	.cfi_startproc
	@ args = 0, pretend = 0, frame = 0
	@ frame_needed = 1, uses_anonymous_args = 0
	push	{r7, lr}
	.cfi_def_cfa_offset 8
	.cfi_offset 7, -8
	.cfi_offset 14, -4
	add	r7, sp, #0
	.cfi_def_cfa_register 7
	.loc 1 193 0
	ldr	r3, .L18
	ldrb	r3, [r3]
	lsls	r3, r3, #24
	lsrs	r3, r3, #24
	beq	.L17
	.loc 1 195 0
	movs	r2, #0
	movs	r1, #0
	movs	r0, #1
	bl	USB_PrepareDataTransmit
	.loc 1 196 0
	ldr	r3, .L18+4
	movs	r2, #0
	strb	r2, [r3]
.L17:
	.loc 1 198 0
	nop
	mov	sp, r7
	@ sp needed
	pop	{r7, pc}
.L19:
	.align	2
.L18:
	.word	CDCInterfaceInitialized
	.word	USB_CDC_WaitTXAck
	.cfi_endproc
.LFE5:
	.size	USB_CDC_IntFlashTXBuffer, .-USB_CDC_IntFlashTXBuffer
	.section	.text.USB_CDC_TXTimeoutHandler,"ax",%progbits
	.align	2
	.code	16
	.thumb_func
	.type	USB_CDC_TXTimeoutHandler, %function
USB_CDC_TXTimeoutHandler:
.LFB6:
	.loc 1 201 0
	.cfi_startproc
	@ args = 0, pretend = 0, frame = 8
	@ frame_needed = 1, uses_anonymous_args = 0
	push	{r7, lr}
	.cfi_def_cfa_offset 8
	.cfi_offset 7, -8
	.cfi_offset 14, -4
	sub	sp, sp, #8
	.cfi_def_cfa_offset 16
	add	r7, sp, #0
	.cfi_def_cfa_register 7
	str	r0, [r7, #4]
	.loc 1 202 0
	ldr	r3, .L21
	movs	r2, #1
	strb	r2, [r3]
	.loc 1 203 0
	ldr	r3, .L21+4
	ldr	r3, [r3]
	movs	r0, r3
	bl	USB_CDC_FlashTXBuffer
	.loc 1 204 0
	nop
	mov	sp, r7
	add	sp, sp, #8
	@ sp needed
	pop	{r7, pc}
.L22:
	.align	2
.L21:
	.word	USB_CDC_TXTimeout
	.word	IntEventerInfo
	.cfi_endproc
.LFE6:
	.size	USB_CDC_TXTimeoutHandler, .-USB_CDC_TXTimeoutHandler
	.section	.text.USB_CDC_RestartTXTimeout,"ax",%progbits
	.align	2
	.code	16
	.thumb_func
	.type	USB_CDC_RestartTXTimeout, %function
USB_CDC_RestartTXTimeout:
.LFB7:
	.loc 1 207 0
	.cfi_startproc
	@ args = 0, pretend = 0, frame = 8
	@ frame_needed = 1, uses_anonymous_args = 0
	push	{r7, lr}
	.cfi_def_cfa_offset 8
	.cfi_offset 7, -8
	.cfi_offset 14, -4
	sub	sp, sp, #8
	.cfi_def_cfa_offset 16
	add	r7, sp, #0
	.cfi_def_cfa_register 7
	.loc 1 208 0
	bl	__disable_interrupts
	movs	r3, r0
	str	r3, [r7, #4]
	.loc 1 210 0
	ldr	r3, .L24
	ldr	r3, [r3]
	movs	r0, r3
	bl	LRT_Start
	.loc 1 211 0
	ldr	r3, .L24+4
	movs	r2, #0
	strb	r2, [r3]
	.loc 1 212 0
	ldr	r3, [r7, #4]
	movs	r0, r3
	bl	__restore_interrupts
	.loc 1 213 0
	nop
	mov	sp, r7
	add	sp, sp, #8
	@ sp needed
	pop	{r7, pc}
.L25:
	.align	2
.L24:
	.word	CDC_TimeoutTimer
	.word	USB_CDC_TXTimeout
	.cfi_endproc
.LFE7:
	.size	USB_CDC_RestartTXTimeout, .-USB_CDC_RestartTXTimeout
	.section	.text.USB_CDC_StopTXTimeout,"ax",%progbits
	.align	2
	.code	16
	.thumb_func
	.type	USB_CDC_StopTXTimeout, %function
USB_CDC_StopTXTimeout:
.LFB8:
	.loc 1 216 0
	.cfi_startproc
	@ args = 0, pretend = 0, frame = 8
	@ frame_needed = 1, uses_anonymous_args = 0
	push	{r7, lr}
	.cfi_def_cfa_offset 8
	.cfi_offset 7, -8
	.cfi_offset 14, -4
	sub	sp, sp, #8
	.cfi_def_cfa_offset 16
	add	r7, sp, #0
	.cfi_def_cfa_register 7
	.loc 1 217 0
	bl	__disable_interrupts
	movs	r3, r0
	str	r3, [r7, #4]
	.loc 1 219 0
	ldr	r3, .L27
	ldr	r3, [r3]
	movs	r0, r3
	bl	LRT_Stop
	.loc 1 220 0
	ldr	r3, .L27+4
	movs	r2, #0
	strb	r2, [r3]
	.loc 1 221 0
	ldr	r3, [r7, #4]
	movs	r0, r3
	bl	__restore_interrupts
	.loc 1 222 0
	nop
	mov	sp, r7
	add	sp, sp, #8
	@ sp needed
	pop	{r7, pc}
.L28:
	.align	2
.L27:
	.word	CDC_TimeoutTimer
	.word	USB_CDC_TXTimeout
	.cfi_endproc
.LFE8:
	.size	USB_CDC_StopTXTimeout, .-USB_CDC_StopTXTimeout
	.section	.text.USB_CDC_SetConnectedStatus,"ax",%progbits
	.align	2
	.code	16
	.thumb_func
	.type	USB_CDC_SetConnectedStatus, %function
USB_CDC_SetConnectedStatus:
.LFB9:
	.loc 1 225 0
	.cfi_startproc
	@ args = 0, pretend = 0, frame = 8
	@ frame_needed = 1, uses_anonymous_args = 0
	push	{r7, lr}
	.cfi_def_cfa_offset 8
	.cfi_offset 7, -8
	.cfi_offset 14, -4
	sub	sp, sp, #8
	.cfi_def_cfa_offset 16
	add	r7, sp, #0
	.cfi_def_cfa_register 7
	movs	r2, r0
	adds	r3, r7, #7
	strb	r2, [r3]
	.loc 1 226 0
	ldr	r3, .L35
	ldrb	r3, [r3]
	lsls	r3, r3, #24
	lsrs	r3, r3, #24
	adds	r2, r7, #7
	ldrb	r2, [r2]
	cmp	r2, r3
	beq	.L34
	.loc 1 228 0
	ldr	r3, .L35
	adds	r2, r7, #7
	ldrb	r2, [r2]
	strb	r2, [r3]
	.loc 1 229 0
	adds	r3, r7, #7
	ldrb	r3, [r3]
	cmp	r3, #0
	bne	.L31
	.loc 1 229 0 is_stmt 0 discriminator 1
	bl	USB_CDC_StopTXTimeout
.L31:
	.loc 1 230 0 is_stmt 1
	ldr	r3, .L35+4
	ldr	r3, [r3]
	cmp	r3, #0
	beq	.L34
	.loc 1 230 0 discriminator 1
	ldr	r3, .L35+4
	ldr	r3, [r3]
	ldr	r3, [r3, #4]
	cmp	r3, #0
	beq	.L34
	.loc 1 231 0
	ldr	r3, .L35+4
	ldr	r3, [r3]
	ldr	r3, [r3, #4]
	adds	r2, r7, #7
	ldrb	r2, [r2]
	cmp	r2, #0
	beq	.L32
	.loc 1 231 0 is_stmt 0 discriminator 1
	movs	r2, #2
	b	.L33
.L32:
	.loc 1 231 0 discriminator 2
	movs	r2, #3
.L33:
	.loc 1 231 0 discriminator 4
	movs	r0, r2
	blx	r3
.L34:
	.loc 1 233 0 is_stmt 1
	nop
	mov	sp, r7
	add	sp, sp, #8
	@ sp needed
	pop	{r7, pc}
.L36:
	.align	2
.L35:
	.word	USB_CDC_Connected
	.word	IntEventerInfo
	.cfi_endproc
.LFE9:
	.size	USB_CDC_SetConnectedStatus, .-USB_CDC_SetConnectedStatus
	.section	.text.USB_CDC_ConnectHandler,"ax",%progbits
	.align	2
	.code	16
	.thumb_func
	.type	USB_CDC_ConnectHandler, %function
USB_CDC_ConnectHandler:
.LFB10:
	.loc 1 236 0
	.cfi_startproc
	@ args = 0, pretend = 0, frame = 8
	@ frame_needed = 1, uses_anonymous_args = 0
	push	{r7, lr}
	.cfi_def_cfa_offset 8
	.cfi_offset 7, -8
	.cfi_offset 14, -4
	sub	sp, sp, #8
	.cfi_def_cfa_offset 16
	add	r7, sp, #0
	.cfi_def_cfa_register 7
	movs	r2, r0
	adds	r3, r7, #7
	strb	r2, [r3]
	.loc 1 237 0
	adds	r3, r7, #7
	ldrb	r3, [r3]
	movs	r0, r3
	bl	USB_CDC_SetConnectedStatus
	.loc 1 238 0
	bl	USB_CDC_IntFlashRXBuffer
	.loc 1 239 0
	bl	USB_CDC_IntFlashTXBuffer
	.loc 1 240 0
	nop
	mov	sp, r7
	add	sp, sp, #8
	@ sp needed
	pop	{r7, pc}
	.cfi_endproc
.LFE10:
	.size	USB_CDC_ConnectHandler, .-USB_CDC_ConnectHandler
	.section	.text.USB_CDC_InterfaceReqHandler,"ax",%progbits
	.align	2
	.code	16
	.thumb_func
	.type	USB_CDC_InterfaceReqHandler, %function
USB_CDC_InterfaceReqHandler:
.LFB11:
	.loc 1 243 0
	.cfi_startproc
	@ args = 0, pretend = 0, frame = 24
	@ frame_needed = 1, uses_anonymous_args = 0
	push	{r7, lr}
	.cfi_def_cfa_offset 8
	.cfi_offset 7, -8
	.cfi_offset 14, -4
	sub	sp, sp, #24
	.cfi_def_cfa_offset 32
	add	r7, sp, #0
	.cfi_def_cfa_register 7
	str	r0, [r7, #4]
	.loc 1 244 0
	movs	r3, #23
	adds	r3, r7, r3
	movs	r2, #0
	strb	r2, [r3]
	.loc 1 246 0
	ldr	r3, [r7, #4]
	ldrb	r3, [r3, #1]
	cmp	r3, #33
	beq	.L40
	cmp	r3, #34
	beq	.L41
	cmp	r3, #32
	bne	.L49
	.loc 1 249 0
	movs	r0, #0
	bl	USB_GetEPStage
	subs	r3, r0, #0
	bne	.L50
.LBB2:
	.loc 1 250 0
	movs	r3, #20
	adds	r2, r7, r3
	ldr	r3, [r7, #4]
	ldrb	r1, [r3, #6]
	ldrb	r3, [r3, #7]
	lsls	r3, r3, #8
	orrs	r3, r1
	strh	r3, [r2]
	movs	r3, #8
	str	r3, [r7, #16]
	movs	r3, #20
	adds	r3, r7, r3
	ldrh	r2, [r3]
	ldr	r3, [r7, #16]
	cmp	r2, r3
	bls	.L44
	movs	r2, r3
.L44:
.LBE2:
	ldr	r3, .L51
	movs	r1, r3
	movs	r0, #0
	bl	USB_PrepareDataReceive
	.loc 1 256 0
	b	.L47
.L40:
.LBB3:
	.loc 1 258 0
	movs	r3, #14
	adds	r2, r7, r3
	ldr	r3, [r7, #4]
	ldrb	r1, [r3, #6]
	ldrb	r3, [r3, #7]
	lsls	r3, r3, #8
	orrs	r3, r1
	strh	r3, [r2]
	movs	r3, #8
	str	r3, [r7, #8]
	movs	r3, #14
	adds	r3, r7, r3
	ldrh	r2, [r3]
	ldr	r3, [r7, #8]
	cmp	r2, r3
	bls	.L48
	movs	r2, r3
.L48:
.LBE3:
	ldr	r3, .L51
	movs	r1, r3
	movs	r0, #0
	bl	USB_PrepareDataTransmit
	.loc 1 259 0
	b	.L47
.L41:
	.loc 1 264 0
	ldr	r3, [r7, #4]
	ldrb	r2, [r3, #2]
	ldrb	r3, [r3, #3]
	lsls	r3, r3, #8
	orrs	r3, r2
	lsls	r3, r3, #16
	lsrs	r3, r3, #16
	movs	r2, r3
	movs	r3, #1
	ands	r3, r2
	subs	r2, r3, #1
	sbcs	r3, r3, r2
	lsls	r3, r3, #24
	lsrs	r3, r3, #24
	movs	r0, r3
	bl	USB_CDC_ConnectHandler
	.loc 1 265 0
	b	.L47
.L49:
	.loc 1 267 0
	movs	r3, #23
	adds	r3, r7, r3
	movs	r2, #1
	strb	r2, [r3]
	.loc 1 268 0
	nop
.L47:
	.loc 1 271 0
	movs	r0, #0
	bl	USB_GetEPStage
	movs	r3, r0
	rsbs	r2, r3, #0
	adcs	r3, r3, r2
	lsls	r3, r3, #24
	lsrs	r3, r3, #24
	movs	r1, r3
	movs	r3, #23
	adds	r3, r7, r3
	ldrb	r2, [r3]
	movs	r3, r1
	movs	r1, #0
	movs	r0, #0
	bl	USB_UpdateEPState
	b	.L38
.L50:
	.loc 1 254 0
	nop
.L38:
	.loc 1 272 0
	mov	sp, r7
	add	sp, sp, #24
	@ sp needed
	pop	{r7, pc}
.L52:
	.align	2
.L51:
	.word	CDC_LineCoding
	.cfi_endproc
.LFE11:
	.size	USB_CDC_InterfaceReqHandler, .-USB_CDC_InterfaceReqHandler
	.section	.text.USB_CDC_VendorReqHandler,"ax",%progbits
	.align	2
	.code	16
	.thumb_func
	.type	USB_CDC_VendorReqHandler, %function
USB_CDC_VendorReqHandler:
.LFB12:
	.loc 1 275 0
	.cfi_startproc
	@ args = 0, pretend = 0, frame = 16
	@ frame_needed = 1, uses_anonymous_args = 0
	push	{r7, lr}
	.cfi_def_cfa_offset 8
	.cfi_offset 7, -8
	.cfi_offset 14, -4
	sub	sp, sp, #16
	.cfi_def_cfa_offset 24
	add	r7, sp, #0
	.cfi_def_cfa_register 7
	str	r0, [r7, #4]
	.loc 1 276 0
	movs	r3, #15
	adds	r3, r7, r3
	movs	r2, #0
	strb	r2, [r3]
	.loc 1 278 0
	ldr	r3, [r7, #4]
	ldrb	r3, [r3]
	lsls	r3, r3, #24
	asrs	r3, r3, #24
	bpl	.L54
	.loc 1 279 0 discriminator 1
	ldr	r3, [r7, #4]
	ldrb	r2, [r3, #2]
	ldrb	r3, [r3, #3]
	lsls	r3, r3, #8
	orrs	r3, r2
	lsls	r3, r3, #16
	lsrs	r3, r3, #16
	.loc 1 278 0 discriminator 1
	ldr	r2, .L58
	cmp	r3, r2
	beq	.L54
.LBB4:
	.loc 1 283 0
	movs	r3, #15
	adds	r3, r7, r3
	movs	r2, #1
	strb	r2, [r3]
	.loc 1 285 0
	movs	r3, #0
	str	r3, [r7, #8]
	b	.L55
.L57:
	.loc 1 286 0
	ldr	r3, [r7, #4]
	ldrb	r2, [r3, #2]
	ldrb	r3, [r3, #3]
	lsls	r3, r3, #8
	orrs	r3, r2
	lsls	r3, r3, #16
	lsrs	r2, r3, #16
	ldr	r3, .L58+4
	ldr	r1, [r7, #8]
	lsls	r1, r1, #2
	ldrh	r3, [r1, r3]
	cmp	r2, r3
	bne	.L56
	.loc 1 288 0
	ldr	r3, [r7, #8]
	lsls	r2, r3, #2
	ldr	r3, .L58+4
	adds	r3, r2, r3
	adds	r3, r3, #2
	movs	r2, #1
	movs	r1, r3
	movs	r0, #0
	bl	USB_PrepareDataTransmit
	.loc 1 289 0
	movs	r3, #15
	adds	r3, r7, r3
	movs	r2, #0
	strb	r2, [r3]
	.loc 1 290 0
	b	.L54
.L56:
	.loc 1 285 0 discriminator 2
	ldr	r3, [r7, #8]
	adds	r3, r3, #1
	str	r3, [r7, #8]
.L55:
	.loc 1 285 0 is_stmt 0 discriminator 1
	ldr	r3, [r7, #8]
	cmp	r3, #6
	bls	.L57
.L54:
.LBE4:
	.loc 1 294 0 is_stmt 1
	movs	r0, #0
	bl	USB_GetEPStage
	movs	r3, r0
	rsbs	r2, r3, #0
	adcs	r3, r3, r2
	lsls	r3, r3, #24
	lsrs	r3, r3, #24
	movs	r1, r3
	movs	r3, #15
	adds	r3, r7, r3
	ldrb	r2, [r3]
	movs	r3, r1
	movs	r1, #0
	movs	r0, #0
	bl	USB_UpdateEPState
	.loc 1 295 0
	nop
	mov	sp, r7
	add	sp, sp, #16
	@ sp needed
	pop	{r7, pc}
.L59:
	.align	2
.L58:
	.word	1542
	.word	VReq
	.cfi_endproc
.LFE12:
	.size	USB_CDC_VendorReqHandler, .-USB_CDC_VendorReqHandler
	.section	.text.USB_CDC_CtlHandler,"ax",%progbits
	.align	2
	.code	16
	.thumb_func
	.type	USB_CDC_CtlHandler, %function
USB_CDC_CtlHandler:
.LFB13:
	.loc 1 298 0
	.cfi_startproc
	@ args = 0, pretend = 0, frame = 8
	@ frame_needed = 1, uses_anonymous_args = 0
	push	{r7, lr}
	.cfi_def_cfa_offset 8
	.cfi_offset 7, -8
	.cfi_offset 14, -4
	sub	sp, sp, #8
	.cfi_def_cfa_offset 16
	add	r7, sp, #0
	.cfi_def_cfa_register 7
	movs	r2, r0
	adds	r3, r7, #7
	strb	r2, [r3]
	.loc 1 299 0
	nop
	mov	sp, r7
	add	sp, sp, #8
	@ sp needed
	pop	{r7, pc}
	.cfi_endproc
.LFE13:
	.size	USB_CDC_CtlHandler, .-USB_CDC_CtlHandler
	.section	.text.USB_CDC_WaitTXIdle,"ax",%progbits
	.align	2
	.code	16
	.thumb_func
	.type	USB_CDC_WaitTXIdle, %function
USB_CDC_WaitTXIdle:
.LFB14:
	.loc 1 302 0
	.cfi_startproc
	@ args = 0, pretend = 0, frame = 0
	@ frame_needed = 1, uses_anonymous_args = 0
	push	{r7, lr}
	.cfi_def_cfa_offset 8
	.cfi_offset 7, -8
	.cfi_offset 14, -4
	add	r7, sp, #0
	.cfi_def_cfa_register 7
	.loc 1 303 0
	bl	USB_CDC_RestartTXTimeout
	.loc 1 304 0
	nop
.L62:
	.loc 1 304 0 is_stmt 0 discriminator 1
	movs	r0, #1
	bl	USB_GetEPStage
	subs	r3, r0, #0
	bne	.L62
	.loc 1 307 0 is_stmt 1
	ldr	r3, .L67
	ldrb	r3, [r3]
	lsls	r3, r3, #24
	lsrs	r3, r3, #24
	bne	.L63
	.loc 1 307 0 is_stmt 0 discriminator 1
	movs	r3, #1
	b	.L64
.L63:
	.loc 1 310 0 is_stmt 1
	ldr	r3, .L67+4
	ldrb	r3, [r3]
	lsls	r3, r3, #24
	lsrs	r3, r3, #24
	beq	.L65
	.loc 1 312 0
	ldr	r3, .L67+8
	ldr	r3, [r3]
	ldr	r3, [r3, #4]
	cmp	r3, #0
	beq	.L66
	.loc 1 313 0
	ldr	r3, .L67+8
	ldr	r3, [r3]
	ldr	r3, [r3, #4]
	movs	r0, #4
	blx	r3
.L66:
	.loc 1 314 0
	movs	r3, #1
	b	.L64
.L65:
	.loc 1 316 0
	movs	r3, #0
.L64:
	.loc 1 317 0
	movs	r0, r3
	mov	sp, r7
	@ sp needed
	pop	{r7, pc}
.L68:
	.align	2
.L67:
	.word	USB_CDC_Connected
	.word	USB_CDC_TXTimeout
	.word	IntEventerInfo
	.cfi_endproc
.LFE14:
	.size	USB_CDC_WaitTXIdle, .-USB_CDC_WaitTXIdle
	.section	.text.USB_CDC_DataHandler,"ax",%progbits
	.align	2
	.code	16
	.thumb_func
	.type	USB_CDC_DataHandler, %function
USB_CDC_DataHandler:
.LFB15:
	.loc 1 320 0
	.cfi_startproc
	@ args = 0, pretend = 0, frame = 16
	@ frame_needed = 1, uses_anonymous_args = 0
	push	{r7, lr}
	.cfi_def_cfa_offset 8
	.cfi_offset 7, -8
	.cfi_offset 14, -4
	sub	sp, sp, #16
	.cfi_def_cfa_offset 24
	add	r7, sp, #0
	.cfi_def_cfa_register 7
	movs	r2, r0
	adds	r3, r7, #7
	strb	r2, [r3]
	.loc 1 321 0
	adds	r3, r7, #7
	ldrb	r3, [r3]
	cmp	r3, #129
	bne	.L70
	.loc 1 323 0
	movs	r0, #1
	bl	USB_GetEPStage
	movs	r3, r0
	cmp	r3, #2
	bne	.L77
.LBB5:
	.loc 1 325 0
	movs	r0, #1
	bl	USB_GetDataAmount
	movs	r2, r0
	ldr	r3, .L78
	ldr	r3, [r3]
	subs	r3, r2, r3
	str	r3, [r7, #12]
	.loc 1 327 0
	movs	r0, #1
	bl	USB_GetDataAmount
	movs	r2, r0
	ldr	r3, .L78
	str	r2, [r3]
	.loc 1 329 0
	ldr	r3, .L78+4
	ldrb	r3, [r3]
	lsls	r3, r3, #24
	lsrs	r3, r3, #24
	beq	.L72
	.loc 1 331 0
	movs	r1, #0
	movs	r0, #1
	bl	USB_SetEPStage
	.loc 1 332 0
	bl	USB_CDC_StopTXTimeout
	.loc 1 333 0
	ldr	r3, .L78+4
	movs	r2, #0
	strb	r2, [r3]
.LBE5:
	.loc 1 363 0
	b	.L77
.L72:
.LBB6:
	.loc 1 337 0
	ldr	r3, .L78+8
	ldr	r3, [r3]
	ldr	r3, [r3, #12]
	cmp	r3, #0
	beq	.L73
	.loc 1 339 0
	bl	USB_CDC_StopTXTimeout
	.loc 1 340 0
	ldr	r3, .L78+8
	ldr	r3, [r3]
	ldr	r3, [r3, #12]
	ldr	r2, [r7, #12]
	movs	r0, r2
	blx	r3
.L73:
	.loc 1 342 0
	movs	r0, #1
	bl	USB_DataTransmit
	movs	r3, r0
	movs	r2, r3
	ldr	r3, .L78+4
	strb	r2, [r3]
	.loc 1 343 0
	bl	USB_CDC_RestartTXTimeout
.LBE6:
	.loc 1 363 0
	b	.L77
.L70:
	.loc 1 347 0
	adds	r3, r7, #7
	ldrb	r3, [r3]
	cmp	r3, #1
	bne	.L77
.LBB7:
	.loc 1 351 0
	movs	r0, #5
	bl	USB_DataReceive
	.loc 1 352 0
	ldr	r3, .L78+12
	ldrb	r3, [r3]
	lsls	r3, r3, #24
	lsrs	r3, r3, #24
	beq	.L75
	.loc 1 354 0
	movs	r0, #5
	bl	USB_GetDataAmount
	movs	r3, r0
	str	r3, [r7, #8]
	ldr	r3, [r7, #8]
	cmp	r3, #0
	beq	.L76
	.loc 1 355 0
	ldr	r3, .L78+16
	ldr	r3, [r3]
	ldr	r2, [r7, #8]
	ldr	r1, .L78+20
	movs	r0, r3
	bl	RB_WriteData
.L76:
	.loc 1 357 0
	ldr	r3, .L78+16
	ldr	r3, [r3]
	movs	r0, r3
	bl	RB_GetCurrentDataCount
	movs	r3, r0
	str	r3, [r7, #8]
	ldr	r3, [r7, #8]
	cmp	r3, #0
	beq	.L75
	.loc 1 358 0 discriminator 1
	ldr	r3, .L78+8
	ldr	r3, [r3]
	ldr	r3, [r3, #8]
	.loc 1 357 0 discriminator 1
	cmp	r3, #0
	beq	.L75
	.loc 1 359 0
	ldr	r3, .L78+8
	ldr	r3, [r3]
	ldr	r3, [r3, #8]
	ldr	r2, [r7, #8]
	movs	r0, r2
	blx	r3
.L75:
	.loc 1 361 0
	ldr	r3, .L78+20
	movs	r2, #64
	movs	r1, r3
	movs	r0, #5
	bl	USB_PrepareDataReceive
.L77:
.LBE7:
	.loc 1 363 0
	nop
	mov	sp, r7
	add	sp, sp, #16
	@ sp needed
	pop	{r7, pc}
.L79:
	.align	2
.L78:
	.word	CDC_PrevTransmitAmount
	.word	USB_CDC_WaitTXAck
	.word	IntEventerInfo
	.word	USB_CDC_Connected
	.word	CDC_OUTRingBuffer
	.word	CDC_OUTBuffer
	.cfi_endproc
.LFE15:
	.size	USB_CDC_DataHandler, .-USB_CDC_DataHandler
	.section	.text.USB_CDC_Initialize,"ax",%progbits
	.align	2
	.global	USB_CDC_Initialize
	.code	16
	.thumb_func
	.type	USB_CDC_Initialize, %function
USB_CDC_Initialize:
.LFB16:
	.loc 1 366 0
	.cfi_startproc
	@ args = 0, pretend = 0, frame = 0
	@ frame_needed = 1, uses_anonymous_args = 0
	push	{r7, lr}
	.cfi_def_cfa_offset 8
	.cfi_offset 7, -8
	.cfi_offset 14, -4
	add	r7, sp, #0
	.cfi_def_cfa_register 7
	.loc 1 367 0
	ldr	r3, .L85
	movs	r2, #0
	strb	r2, [r3]
	.loc 1 368 0
	ldr	r3, .L85+4
	movs	r2, #0
	strb	r2, [r3]
	.loc 1 369 0
	ldr	r3, .L85+8
	movs	r2, #0
	strh	r2, [r3]
	.loc 1 370 0
	movs	r0, #0
	bl	USB_CDC_ConnectHandler
	.loc 1 371 0
	ldr	r3, .L85+12
	movs	r2, #40
	movs	r1, #0
	movs	r0, r3
	bl	memset
	.loc 1 373 0
	bl	USB_GetDeviceState
	subs	r3, r0, #0
	bne	.L81
	.loc 1 375 0
	ldr	r3, .L85+16
	ldr	r3, [r3]
	movs	r0, r3
	bl	LRT_Destroy
	.loc 1 376 0
	movs	r3, #0
	b	.L82
.L81:
	.loc 1 379 0
	ldr	r3, .L85+16
	ldr	r3, [r3]
	cmp	r3, #0
	bne	.L83
	.loc 1 380 0
	ldr	r1, .L85+20
	movs	r3, #250
	lsls	r3, r3, #1
	movs	r2, #4
	movs	r0, r3
	bl	LRT_Create
	movs	r2, r0
	ldr	r3, .L85+16
	str	r2, [r3]
.L83:
	.loc 1 381 0
	ldr	r3, .L85+16
	ldr	r3, [r3]
	cmp	r3, #0
	bne	.L84
	.loc 1 381 0 discriminator 1
	movs	r3, #0
	b	.L82
.L84:
	.loc 1 383 0
	ldr	r3, .L85+12
	ldr	r2, .L85+24
	str	r2, [r3]
	.loc 1 384 0
	ldr	r3, .L85+12
	ldr	r2, .L85+28
	str	r2, [r3, #4]
	.loc 1 385 0
	ldr	r3, .L85+12
	ldr	r2, .L85+32
	str	r2, [r3, #8]
	.loc 1 386 0
	ldr	r3, .L85+12
	ldr	r2, .L85+4
	str	r2, [r3, #12]
	.loc 1 387 0
	ldr	r3, .L85+12
	ldr	r2, .L85+36
	str	r2, [r3, #16]
	.loc 1 388 0
	ldr	r3, .L85+12
	ldr	r2, .L85+8
	str	r2, [r3, #28]
	.loc 1 389 0
	ldr	r3, .L85+12
	ldr	r2, .L85+40
	str	r2, [r3, #32]
	.loc 1 390 0
	ldr	r3, .L85+12
	ldr	r2, .L85+44
	str	r2, [r3, #36]
	.loc 1 393 0
	ldr	r3, .L85+48
	movs	r2, #16
	movs	r1, r3
	movs	r0, #3
	bl	USB_SetupEndpoint
	.loc 1 394 0
	movs	r1, #1
	movs	r0, #3
	bl	USB_SetEndpointEnabled
	.loc 1 396 0
	ldr	r3, .L85+52
	movs	r2, #64
	movs	r1, r3
	movs	r0, #1
	bl	USB_SetupEndpoint
	.loc 1 397 0
	movs	r1, #1
	movs	r0, #1
	bl	USB_SetEndpointEnabled
	.loc 1 399 0
	ldr	r3, .L85+52
	movs	r2, #64
	movs	r1, r3
	movs	r0, #5
	bl	USB_SetupEndpoint
	.loc 1 400 0
	ldr	r3, .L85+56
	movs	r2, #64
	movs	r1, r3
	movs	r0, #5
	bl	USB_PrepareDataReceive
	.loc 1 401 0
	movs	r1, #1
	movs	r0, #5
	bl	USB_SetEndpointEnabled
	.loc 1 403 0
	ldr	r3, .L85
	movs	r2, #1
	strb	r2, [r3]
	.loc 1 405 0
	ldr	r3, .L85+12
.L82:
	.loc 1 406 0
	movs	r0, r3
	mov	sp, r7
	@ sp needed
	pop	{r7, pc}
.L86:
	.align	2
.L85:
	.word	CDCInterfaceInitialized
	.word	CDC_DeviceConfig
	.word	CDC_DeviceStatus
	.word	USB_CDC_Interface
	.word	CDC_TimeoutTimer
	.word	USB_CDC_TXTimeoutHandler
	.word	DEV_DESC_CDC
	.word	CFG_DESC_CDC
	.word	USB_CDC_GetStringDescriptor
	.word	USB_CDC_SetConfiguration
	.word	USB_CDC_InterfaceReqHandler
	.word	USB_CDC_VendorReqHandler
	.word	USB_CDC_CtlHandler
	.word	USB_CDC_DataHandler
	.word	CDC_OUTBuffer
	.cfi_endproc
.LFE16:
	.size	USB_CDC_Initialize, .-USB_CDC_Initialize
	.section	.text.USB_CDC_Open,"ax",%progbits
	.align	2
	.global	USB_CDC_Open
	.code	16
	.thumb_func
	.type	USB_CDC_Open, %function
USB_CDC_Open:
.LFB17:
	.loc 1 409 0
	.cfi_startproc
	@ args = 0, pretend = 0, frame = 32
	@ frame_needed = 1, uses_anonymous_args = 0
	push	{r7, lr}
	.cfi_def_cfa_offset 8
	.cfi_offset 7, -8
	.cfi_offset 14, -4
	sub	sp, sp, #32
	.cfi_def_cfa_offset 40
	add	r7, sp, #0
	.cfi_def_cfa_register 7
	str	r0, [r7, #4]
	.loc 1 410 0
	ldr	r3, [r7, #4]
	cmp	r3, #0
	beq	.L88
	.loc 1 410 0 discriminator 1
	ldr	r3, .L95
	ldr	r3, [r3]
	cmp	r3, #0
	bne	.L88
	.loc 1 410 0 discriminator 2
	ldr	r3, .L95+4
	ldrb	r3, [r3]
	lsls	r3, r3, #24
	lsrs	r3, r3, #24
	beq	.L88
.LBB8:
.LBB9:
	.loc 1 413 0
	ldr	r3, [r7, #4]
	ldr	r3, [r3]
	str	r3, [r7, #8]
	movs	r3, #128
	str	r3, [r7, #24]
	ldr	r2, [r7, #8]
	ldr	r3, [r7, #24]
	cmp	r2, r3
	bls	.L89
	.loc 1 413 0 is_stmt 0 discriminator 1
	ldr	r3, [r7, #8]
	b	.L90
.L89:
	.loc 1 413 0 discriminator 2
	ldr	r3, [r7, #24]
.L90:
.LBE9:
	.loc 1 413 0 discriminator 4
	str	r3, [r7, #20]
	.loc 1 415 0 is_stmt 1 discriminator 4
	ldr	r3, .L95+8
	ldr	r3, [r3]
	cmp	r3, #0
	bne	.L91
	.loc 1 415 0 discriminator 1
	ldr	r3, [r7, #20]
	movs	r0, r3
	bl	RB_Create
	movs	r3, r0
	str	r3, [r7, #28]
	b	.L92
.L91:
	.loc 1 416 0
	ldr	r3, .L95+8
	ldr	r3, [r3]
	ldr	r2, [r3, #8]
	ldr	r3, [r7, #20]
	cmp	r2, r3
	beq	.L93
.LBB10:
	.loc 1 418 0
	bl	__disable_interrupts
	movs	r3, r0
	str	r3, [r7, #16]
	.loc 1 420 0
	ldr	r3, .L95+8
	ldr	r3, [r3]
	movs	r0, r3
	bl	RB_Destroy
	movs	r2, r0
	ldr	r3, .L95+8
	str	r2, [r3]
	.loc 1 421 0
	ldr	r3, [r7, #16]
	movs	r0, r3
	bl	__restore_interrupts
	.loc 1 422 0
	ldr	r3, [r7, #20]
	movs	r0, r3
	bl	RB_Create
	movs	r3, r0
	str	r3, [r7, #28]
.LBE10:
	b	.L92
.L93:
	.loc 1 424 0
	ldr	r3, .L95+8
	ldr	r3, [r3]
	str	r3, [r7, #28]
.L92:
	.loc 1 426 0
	ldr	r3, [r7, #28]
	cmp	r3, #0
	beq	.L88
.LBB11:
	.loc 1 428 0
	bl	__disable_interrupts
	movs	r3, r0
	str	r3, [r7, #12]
	.loc 1 430 0
	ldr	r3, .L95
	ldr	r2, [r7, #4]
	str	r2, [r3]
	.loc 1 431 0
	ldr	r3, .L95+8
	ldr	r2, [r7, #28]
	str	r2, [r3]
	.loc 1 432 0
	ldr	r3, .L95
	ldr	r3, [r3]
	ldr	r2, .L95+8
	ldr	r2, [r2]
	ldr	r2, [r2, #8]
	str	r2, [r3]
	.loc 1 433 0
	ldr	r3, [r7, #12]
	movs	r0, r3
	bl	__restore_interrupts
	.loc 1 434 0
	movs	r3, #0
	b	.L94
.L88:
.LBE11:
.LBE8:
	.loc 1 437 0
	movs	r3, #1
.L94:
	.loc 1 438 0
	movs	r0, r3
	mov	sp, r7
	add	sp, sp, #32
	@ sp needed
	pop	{r7, pc}
.L96:
	.align	2
.L95:
	.word	IntEventerInfo
	.word	CDCInterfaceInitialized
	.word	CDC_OUTRingBuffer
	.cfi_endproc
.LFE17:
	.size	USB_CDC_Open, .-USB_CDC_Open
	.section	.text.USB_CDC_Close,"ax",%progbits
	.align	2
	.global	USB_CDC_Close
	.code	16
	.thumb_func
	.type	USB_CDC_Close, %function
USB_CDC_Close:
.LFB18:
	.loc 1 441 0
	.cfi_startproc
	@ args = 0, pretend = 0, frame = 16
	@ frame_needed = 1, uses_anonymous_args = 0
	push	{r7, lr}
	.cfi_def_cfa_offset 8
	.cfi_offset 7, -8
	.cfi_offset 14, -4
	sub	sp, sp, #16
	.cfi_def_cfa_offset 24
	add	r7, sp, #0
	.cfi_def_cfa_register 7
	str	r0, [r7, #4]
	.loc 1 442 0
	ldr	r3, [r7, #4]
	cmp	r3, #0
	beq	.L98
	.loc 1 442 0 discriminator 1
	ldr	r3, .L100
	ldr	r3, [r3]
	ldr	r2, [r7, #4]
	cmp	r2, r3
	bne	.L98
.LBB12:
	.loc 1 444 0
	bl	__disable_interrupts
	movs	r3, r0
	str	r3, [r7, #12]
	.loc 1 446 0
	bl	USB_CDC_IntFlashTXBuffer
	.loc 1 447 0
	ldr	r3, .L100+4
	ldr	r3, [r3]
	movs	r0, r3
	bl	RB_Destroy
	movs	r2, r0
	ldr	r3, .L100+4
	str	r2, [r3]
	.loc 1 448 0
	ldr	r3, .L100
	movs	r2, #0
	str	r2, [r3]
	.loc 1 449 0
	ldr	r3, [r7, #12]
	movs	r0, r3
	bl	__restore_interrupts
	.loc 1 451 0
	movs	r3, #0
	b	.L99
.L98:
.LBE12:
	.loc 1 453 0
	movs	r3, #1
.L99:
	.loc 1 454 0
	movs	r0, r3
	mov	sp, r7
	add	sp, sp, #16
	@ sp needed
	pop	{r7, pc}
.L101:
	.align	2
.L100:
	.word	IntEventerInfo
	.word	CDC_OUTRingBuffer
	.cfi_endproc
.LFE18:
	.size	USB_CDC_Close, .-USB_CDC_Close
	.section	.text.USB_CDC_Read,"ax",%progbits
	.align	2
	.global	USB_CDC_Read
	.code	16
	.thumb_func
	.type	USB_CDC_Read, %function
USB_CDC_Read:
.LFB19:
	.loc 1 457 0
	.cfi_startproc
	@ args = 0, pretend = 0, frame = 16
	@ frame_needed = 1, uses_anonymous_args = 0
	push	{r7, lr}
	.cfi_def_cfa_offset 8
	.cfi_offset 7, -8
	.cfi_offset 14, -4
	sub	sp, sp, #16
	.cfi_def_cfa_offset 24
	add	r7, sp, #0
	.cfi_def_cfa_register 7
	str	r0, [r7, #12]
	str	r1, [r7, #8]
	str	r2, [r7, #4]
	.loc 1 458 0
	ldr	r3, [r7, #12]
	cmp	r3, #0
	beq	.L103
	.loc 1 458 0 discriminator 1
	ldr	r3, .L105
	ldr	r3, [r3]
	ldr	r2, [r7, #12]
	cmp	r2, r3
	bne	.L103
	.loc 1 458 0 is_stmt 0 discriminator 2
	ldr	r3, [r7, #8]
	cmp	r3, #0
	beq	.L103
	.loc 1 459 0 is_stmt 1
	ldr	r3, .L105+4
	ldrb	r3, [r3]
	lsls	r3, r3, #24
	lsrs	r3, r3, #24
	beq	.L103
	.loc 1 461 0
	ldr	r3, .L105+8
	ldr	r3, [r3]
	ldr	r2, [r7, #4]
	ldr	r1, [r7, #8]
	movs	r0, r3
	bl	RB_ReadData
	movs	r3, r0
	b	.L104
.L103:
	.loc 1 463 0
	movs	r3, #0
.L104:
	.loc 1 464 0
	movs	r0, r3
	mov	sp, r7
	add	sp, sp, #16
	@ sp needed
	pop	{r7, pc}
.L106:
	.align	2
.L105:
	.word	IntEventerInfo
	.word	CDCInterfaceInitialized
	.word	CDC_OUTRingBuffer
	.cfi_endproc
.LFE19:
	.size	USB_CDC_Read, .-USB_CDC_Read
	.section	.text.USB_CDC_Write,"ax",%progbits
	.align	2
	.global	USB_CDC_Write
	.code	16
	.thumb_func
	.type	USB_CDC_Write, %function
USB_CDC_Write:
.LFB20:
	.loc 1 467 0
	.cfi_startproc
	@ args = 0, pretend = 0, frame = 24
	@ frame_needed = 1, uses_anonymous_args = 0
	push	{r7, lr}
	.cfi_def_cfa_offset 8
	.cfi_offset 7, -8
	.cfi_offset 14, -4
	sub	sp, sp, #24
	.cfi_def_cfa_offset 32
	add	r7, sp, #0
	.cfi_def_cfa_register 7
	str	r0, [r7, #12]
	str	r1, [r7, #8]
	str	r2, [r7, #4]
	.loc 1 468 0
	movs	r3, #0
	str	r3, [r7, #20]
	.loc 1 470 0
	ldr	r3, .L114
	ldrb	r3, [r3]
	lsls	r3, r3, #24
	lsrs	r3, r3, #24
	beq	.L108
	.loc 1 470 0 is_stmt 0 discriminator 1
	ldr	r3, [r7, #8]
	cmp	r3, #0
	beq	.L108
	.loc 1 470 0 is_stmt 1 discriminator 2
	ldr	r3, [r7, #4]
	cmp	r3, #0
	beq	.L108
	.loc 1 470 0 is_stmt 0 discriminator 3
	ldr	r3, .L114+4
	ldrb	r3, [r3]
	lsls	r3, r3, #24
	lsrs	r3, r3, #24
	beq	.L108
	.loc 1 470 0 discriminator 4
	ldr	r3, [r7, #12]
	cmp	r3, #0
	beq	.L108
	.loc 1 471 0 is_stmt 1
	ldr	r3, .L114+8
	ldr	r3, [r3]
	ldr	r2, [r7, #12]
	cmp	r2, r3
	bne	.L108
	.loc 1 474 0
	bl	USB_CDC_WaitTXIdle
	subs	r3, r0, #0
	bne	.L112
	.loc 1 476 0
	ldr	r3, .L114+12
	movs	r2, #0
	str	r2, [r3]
	.loc 1 477 0
	ldr	r2, [r7, #4]
	ldr	r3, [r7, #8]
	movs	r1, r3
	movs	r0, #1
	bl	USB_PrepareDataTransmit
	.loc 1 478 0
	movs	r0, #1
	bl	USB_DataTransmit
	.loc 1 480 0
	bl	USB_CDC_WaitTXIdle
	subs	r3, r0, #0
	bne	.L113
	.loc 1 482 0
	ldr	r3, [r7, #4]
	str	r3, [r7, #20]
	b	.L108
.L112:
	.loc 1 474 0
	nop
	b	.L108
.L113:
	.loc 1 480 0
	nop
.L108:
	.loc 1 486 0
	ldr	r3, [r7, #20]
	.loc 1 487 0
	movs	r0, r3
	mov	sp, r7
	add	sp, sp, #24
	@ sp needed
	pop	{r7, pc}
.L115:
	.align	2
.L114:
	.word	USB_CDC_Connected
	.word	CDCInterfaceInitialized
	.word	IntEventerInfo
	.word	CDC_PrevTransmitAmount
	.cfi_endproc
.LFE20:
	.size	USB_CDC_Write, .-USB_CDC_Write
	.section	.text.USB_CDC_FlashRXBuffer,"ax",%progbits
	.align	2
	.global	USB_CDC_FlashRXBuffer
	.code	16
	.thumb_func
	.type	USB_CDC_FlashRXBuffer, %function
USB_CDC_FlashRXBuffer:
.LFB21:
	.loc 1 490 0
	.cfi_startproc
	@ args = 0, pretend = 0, frame = 16
	@ frame_needed = 1, uses_anonymous_args = 0
	push	{r7, lr}
	.cfi_def_cfa_offset 8
	.cfi_offset 7, -8
	.cfi_offset 14, -4
	sub	sp, sp, #16
	.cfi_def_cfa_offset 24
	add	r7, sp, #0
	.cfi_def_cfa_register 7
	str	r0, [r7, #4]
	.loc 1 491 0
	ldr	r3, [r7, #4]
	cmp	r3, #0
	beq	.L117
	.loc 1 491 0 discriminator 1
	ldr	r3, .L119
	ldr	r3, [r3]
	ldr	r2, [r7, #4]
	cmp	r2, r3
	bne	.L117
	.loc 1 491 0 is_stmt 0 discriminator 2
	ldr	r3, .L119+4
	ldrb	r3, [r3]
	lsls	r3, r3, #24
	lsrs	r3, r3, #24
	beq	.L117
.LBB13:
	.loc 1 493 0 is_stmt 1
	bl	__disable_interrupts
	movs	r3, r0
	str	r3, [r7, #12]
	.loc 1 495 0
	bl	USB_CDC_IntFlashRXBuffer
	.loc 1 496 0
	ldr	r3, [r7, #12]
	movs	r0, r3
	bl	__restore_interrupts
	.loc 1 497 0
	movs	r3, #0
	b	.L118
.L117:
.LBE13:
	.loc 1 499 0
	movs	r3, #1
.L118:
	.loc 1 500 0
	movs	r0, r3
	mov	sp, r7
	add	sp, sp, #16
	@ sp needed
	pop	{r7, pc}
.L120:
	.align	2
.L119:
	.word	IntEventerInfo
	.word	CDCInterfaceInitialized
	.cfi_endproc
.LFE21:
	.size	USB_CDC_FlashRXBuffer, .-USB_CDC_FlashRXBuffer
	.section	.text.USB_CDC_FlashTXBuffer,"ax",%progbits
	.align	2
	.global	USB_CDC_FlashTXBuffer
	.code	16
	.thumb_func
	.type	USB_CDC_FlashTXBuffer, %function
USB_CDC_FlashTXBuffer:
.LFB22:
	.loc 1 503 0
	.cfi_startproc
	@ args = 0, pretend = 0, frame = 16
	@ frame_needed = 1, uses_anonymous_args = 0
	push	{r7, lr}
	.cfi_def_cfa_offset 8
	.cfi_offset 7, -8
	.cfi_offset 14, -4
	sub	sp, sp, #16
	.cfi_def_cfa_offset 24
	add	r7, sp, #0
	.cfi_def_cfa_register 7
	str	r0, [r7, #4]
	.loc 1 504 0
	ldr	r3, [r7, #4]
	cmp	r3, #0
	beq	.L122
	.loc 1 504 0 discriminator 1
	ldr	r3, .L124
	ldr	r3, [r3]
	ldr	r2, [r7, #4]
	cmp	r2, r3
	bne	.L122
	.loc 1 504 0 is_stmt 0 discriminator 2
	ldr	r3, .L124+4
	ldrb	r3, [r3]
	lsls	r3, r3, #24
	lsrs	r3, r3, #24
	beq	.L122
.LBB14:
	.loc 1 506 0 is_stmt 1
	bl	__disable_interrupts
	movs	r3, r0
	str	r3, [r7, #12]
	.loc 1 508 0
	bl	USB_CDC_IntFlashTXBuffer
	.loc 1 509 0
	ldr	r3, [r7, #12]
	movs	r0, r3
	bl	__restore_interrupts
	.loc 1 510 0
	movs	r3, #0
	b	.L123
.L122:
.LBE14:
	.loc 1 512 0
	movs	r3, #1
.L123:
	.loc 1 513 0
	movs	r0, r3
	mov	sp, r7
	add	sp, sp, #16
	@ sp needed
	pop	{r7, pc}
.L125:
	.align	2
.L124:
	.word	IntEventerInfo
	.word	CDCInterfaceInitialized
	.cfi_endproc
.LFE22:
	.size	USB_CDC_FlashTXBuffer, .-USB_CDC_FlashTXBuffer
	.text
.Letext0:
	.file 2 "d:\\1.11\\share\\em_armgcc\\arm-none-eabi\\include\\machine\\_default_types.h"
	.file 3 "d:\\1.11\\share\\em_armgcc\\arm-none-eabi\\include\\sys\\_stdint.h"
	.file 4 ".\\Source/systypes.h"
	.file 5 ".\\Source\\System/dlist.h"
	.file 6 ".\\Source\\Lib\\MT6261/drivers\\lcdif.h"
	.file 7 ".\\Source\\Lib\\MT6261/drivers\\usb.h"
	.file 8 ".\\Source\\System/lrtimer.h"
	.file 9 ".\\Source\\System/ringbuf.h"
	.file 10 ".\\Source\\Application\\Drivers/usbdevice_cdc.h"
	.file 11 ".\\Source\\Lib\\USB/usb9.h"