	.syntax unified
	.cpu arm9e
	.fpu softvfp
	.eabi_attribute 20, 1
	.eabi_attribute 21, 1
	.eabi_attribute 23, 3
	.eabi_attribute 24, 1
	.eabi_attribute 25, 1
	.eabi_attribute 26, 1
	.eabi_attribute 30, 6
	.eabi_attribute 34, 0
	.eabi_attribute 18, 4
	.thumb
	.syntax unified
	.file	"emi.c"
	.text
.Ltext0:
	.cfi_sections	.debug_frame
	.section	.text.EMI_MemoryRemap,"ax",%progbits
	.align	2
	.global	EMI_MemoryRemap
	.code	16
	.thumb_func
	.type	EMI_MemoryRemap, %function
EMI_MemoryRemap:
.LFB1:
	.file 1 "Source\\Lib\\MT6261\\Drivers\\emi.c"
	.loc 1 25 0
	.cfi_startproc
	@ args = 0, pretend = 0, frame = 16
	@ frame_needed = 1, uses_anonymous_args = 0
	push	{r4, r7, lr}
	.cfi_def_cfa_offset 12
	.cfi_offset 4, -12
	.cfi_offset 7, -8
	.cfi_offset 14, -4
	sub	sp, sp, #20
	.cfi_def_cfa_offset 32
	add	r7, sp, #0
	.cfi_def_cfa_register 7
	movs	r2, r0
	adds	r3, r7, #7
	strb	r2, [r3]
	.loc 1 29 0
	bl	__disable_interrupts
	movs	r3, r0
	str	r3, [r7, #12]
	.loc 1 31 0
	movs	r3, #11
	adds	r4, r7, r3
	bl	MPU_DisableCache
	movs	r3, r0
	strb	r3, [r4]
	.loc 1 32 0
	ldr	r2, .L2
	adds	r3, r7, #7
	ldrb	r3, [r3]
	lsls	r3, r3, #16
	lsrs	r3, r3, #16
	movs	r1, #3
	ands	r3, r1
	lsls	r3, r3, #16
	lsrs	r3, r3, #16
	strh	r3, [r2]
	.loc 1 33 0
	movs	r3, #11
	adds	r3, r7, r3
	ldrb	r3, [r3]
	movs	r0, r3
	bl	MPU_RestoreCacheEnState
	.loc 1 35 0
	ldr	r3, [r7, #12]
	movs	r0, r3
	bl	__restore_interrupts
	.loc 1 37 0
	nop
	mov	sp, r7
	add	sp, sp, #20
	@ sp needed
	pop	{r4, r7, pc}
.L3:
	.align	2
.L2:
	.word	-1605304320
	.cfi_endproc
.LFE1:
	.size	EMI_MemoryRemap, .-EMI_MemoryRemap
	.text
.Letext0:
	.file 2 "d:\\1.11\\share\\em_armgcc\\arm-none-eabi\\include\\machine\\_default_types.h"
	.file 3 "d:\\1.11\\share\\em_armgcc\\arm-none-eabi\\include\\sys\\_stdint.h"
	.file 4 ".\\Source/systypes.h"
	.file 5 ".\\Source\\Lib\\MT6261/drivers\\emi.h"