	.syntax unified
	.cpu arm9e
	.fpu softvfp
	.eabi_attribute 20, 1
	.eabi_attribute 21, 1
	.eabi_attribute 23, 3
	.eabi_attribute 24, 1
	.eabi_attribute 25, 1
	.eabi_attribute 26, 1
	.eabi_attribute 30, 6
	.eabi_attribute 34, 0
	.eabi_attribute 18, 4
	.thumb
	.syntax unified
	.file	"gpio.c"
	.text
.Ltext0:
	.cfi_sections	.debug_frame
	.section	.text.GPIO_Initialize,"ax",%progbits
	.align	2
	.global	GPIO_Initialize
	.code	16
	.thumb_func
	.type	GPIO_Initialize, %function
GPIO_Initialize:
.LFB1:
	.file 1 "Source\\Lib\\MT6261\\Drivers\\gpio.c"
	.loc 1 25 0
	.cfi_startproc
	@ args = 0, pretend = 0, frame = 0
	@ frame_needed = 1, uses_anonymous_args = 0
	push	{r7, lr}
	.cfi_def_cfa_offset 8
	.cfi_offset 7, -8
	.cfi_offset 14, -4
	add	r7, sp, #0
	.cfi_def_cfa_register 7
	.loc 1 26 0
	ldr	r3, .L2
	movs	r2, #1
	rsbs	r2, r2, #0
	str	r2, [r3]
	.loc 1 27 0
	ldr	r3, .L2+4
	ldr	r2, .L2+8
	str	r2, [r3]
	.loc 1 29 0
	ldr	r3, .L2+12
	ldr	r2, .L2+16
	str	r2, [r3]
	.loc 1 30 0
	ldr	r3, .L2+20
	ldr	r2, .L2+24
	str	r2, [r3]
	.loc 1 31 0
	ldr	r3, .L2+28
	ldr	r2, .L2+32
	str	r2, [r3]
	.loc 1 32 0
	ldr	r3, .L2+36
	ldr	r2, .L2+40
	str	r2, [r3]
	.loc 1 33 0
	ldr	r3, .L2+44
	ldr	r2, .L2+32
	str	r2, [r3]
	.loc 1 34 0
	ldr	r3, .L2+48
	ldr	r2, .L2+40
	str	r2, [r3]
	.loc 1 36 0
	ldr	r3, .L2+52
	ldr	r2, .L2+56
	str	r2, [r3]
	.loc 1 37 0
	ldr	r3, .L2+60
	ldr	r2, .L2+64
	str	r2, [r3]
	.loc 1 38 0
	ldr	r3, .L2+68
	ldr	r2, .L2+64
	str	r2, [r3]
	.loc 1 39 0
	ldr	r3, .L2+72
	ldr	r2, .L2+76
	str	r2, [r3]
	.loc 1 40 0
	ldr	r3, .L2+80
	ldr	r2, .L2+64
	str	r2, [r3]
	.loc 1 41 0
	ldr	r3, .L2+84
	ldr	r2, .L2+64
	str	r2, [r3]
	.loc 1 42 0
	ldr	r3, .L2+88
	ldr	r2, .L2+92
	str	r2, [r3]
	.loc 1 44 0
	movs	r3, #128
	lsls	r3, r3, #1
	movs	r1, r3
	movs	r0, #51
	bl	GPIO_Setup
	.loc 1 46 0
	movs	r3, #128
	lsls	r3, r3, #1
	movs	r1, r3
	movs	r0, #10
	bl	GPIO_Setup
	.loc 1 47 0
	movs	r3, #128
	lsls	r3, r3, #1
	movs	r1, r3
	movs	r0, #11
	bl	GPIO_Setup
	.loc 1 49 0
	nop
	mov	sp, r7
	@ sp needed
	pop	{r7, pc}
.L3:
	.align	2
.L2:
	.word	-1610481656
	.word	-1610481640
	.word	218103807
	.word	-1610481400
	.word	1136659455
	.word	-1610481384
	.word	15734784
	.word	-1610478840
	.word	-1136659456
	.word	-1610478824
	.word	1042431
	.word	-1610478808
	.word	-1610478792
	.word	-1610478584
	.word	2004353023
	.word	-1610478568
	.word	2004318071
	.word	-1610478552
	.word	-1610478536
	.word	2013263735
	.word	-1610478520
	.word	-1610478504
	.word	-1610478488
	.word	2004320119
	.cfi_endproc
.LFE1:
	.size	GPIO_Initialize, .-GPIO_Initialize
	.section	.text.GPIO_Setup,"ax",%progbits
	.align	2
	.global	GPIO_Setup
	.code	16
	.thumb_func
	.type	GPIO_Setup, %function
GPIO_Setup:
.LFB2:
	.loc 1 52 0
	.cfi_startproc
	@ args = 0, pretend = 0, frame = 96
	@ frame_needed = 1, uses_anonymous_args = 0
	push	{r7, lr}
	.cfi_def_cfa_offset 8
	.cfi_offset 7, -8
	.cfi_offset 14, -4
	sub	sp, sp, #96
	.cfi_def_cfa_offset 104
	add	r7, sp, #0
	.cfi_def_cfa_register 7
	str	r0, [r7, #4]
	str	r1, [r7]
	.loc 1 53 0
	ldr	r3, [r7, #4]
	cmp	r3, #55
	bls	.LCB124
	b	.L54	@long jump
.LCB124:
	.loc 1 55 0
	ldr	r3, [r7]
	movs	r2, #1
	ands	r3, r2
	beq	.L6
.LBB2:
	.loc 1 55 0 is_stmt 0 discriminator 1
	ldr	r3, [r7, #4]
	str	r3, [r7, #88]
	ldr	r3, [r7, #88]
	cmp	r3, #31
	bhi	.L7
	.loc 1 55 0 discriminator 2
	ldr	r3, .L55
	movs	r1, #1
	ldr	r2, [r7, #88]
	lsls	r1, r1, r2
	movs	r2, r1
	str	r2, [r3]
	b	.L9
.L7:
	.loc 1 55 0 discriminator 3
	ldr	r3, [r7, #88]
	cmp	r3, #63
	bhi	.L9
	.loc 1 55 0 discriminator 4
	ldr	r3, .L55+4
	ldr	r2, [r7, #88]
	subs	r2, r2, #32
	movs	r1, #1
	lsls	r1, r1, r2
	movs	r2, r1
	str	r2, [r3]
	b	.L9
.L6:
.LBE2:
.LBB3:
	.loc 1 56 0 is_stmt 1
	ldr	r3, [r7, #4]
	str	r3, [r7, #84]
	ldr	r3, [r7, #84]
	cmp	r3, #31
	bhi	.L10
	.loc 1 56 0 is_stmt 0 discriminator 1
	ldr	r3, .L55+8
	movs	r1, #1
	ldr	r2, [r7, #84]
	lsls	r1, r1, r2
	movs	r2, r1
	str	r2, [r3]
	b	.L9
.L10:
	.loc 1 56 0 discriminator 2
	ldr	r3, [r7, #84]
	cmp	r3, #63
	bhi	.L9
	.loc 1 56 0 discriminator 3
	ldr	r3, .L55+12
	ldr	r2, [r7, #84]
	subs	r2, r2, #32
	movs	r1, #1
	lsls	r1, r1, r2
	movs	r2, r1
	str	r2, [r3]
.L9:
.LBE3:
	.loc 1 58 0 is_stmt 1
	ldr	r3, [r7]
	movs	r2, #2
	ands	r3, r2
	beq	.L11
.LBB4:
	.loc 1 58 0 is_stmt 0 discriminator 1
	ldr	r3, [r7, #4]
	str	r3, [r7, #80]
	ldr	r3, [r7, #80]
	cmp	r3, #31
	bhi	.L12
	.loc 1 58 0 discriminator 2
	movs	r2, #1
	ldr	r3, [r7, #80]
	lsls	r2, r2, r3
	movs	r3, r2
	str	r3, [r7, #76]
	ldr	r3, [r7, #76]
	ldr	r2, .L55+16
	ands	r3, r2
	beq	.L15
	.loc 1 58 0 discriminator 4
	ldr	r3, .L55+20
	movs	r1, #1
	ldr	r2, [r7, #80]
	lsls	r1, r1, r2
	movs	r2, r1
	str	r2, [r3]
	b	.L15
.L12:
	.loc 1 58 0 discriminator 3
	ldr	r3, [r7, #80]
	cmp	r3, #63
	bhi	.L15
	.loc 1 58 0 discriminator 5
	ldr	r3, [r7, #80]
	subs	r3, r3, #32
	movs	r2, #1
	lsls	r2, r2, r3
	movs	r3, r2
	str	r3, [r7, #76]
	ldr	r2, [r7, #76]
	movs	r3, #255
	lsls	r3, r3, #5
	ands	r3, r2
	beq	.L15
	.loc 1 58 0 discriminator 6
	ldr	r3, .L55+24
	ldr	r2, [r7, #80]
	subs	r2, r2, #32
	movs	r1, #1
	lsls	r1, r1, r2
	movs	r2, r1
	str	r2, [r3]
	b	.L15
.L11:
.LBE4:
.LBB5:
	.loc 1 59 0 is_stmt 1
	ldr	r3, [r7, #4]
	str	r3, [r7, #72]
	ldr	r3, [r7, #72]
	cmp	r3, #31
	bhi	.L16
	.loc 1 59 0 is_stmt 0 discriminator 1
	movs	r2, #1
	ldr	r3, [r7, #72]
	lsls	r2, r2, r3
	movs	r3, r2
	str	r3, [r7, #68]
	ldr	r3, [r7, #68]
	ldr	r2, .L55+16
	ands	r3, r2
	beq	.L15
	.loc 1 59 0 discriminator 3
	ldr	r3, .L55+28
	movs	r1, #1
	ldr	r2, [r7, #72]
	lsls	r1, r1, r2
	movs	r2, r1
	str	r2, [r3]
	b	.L15
.L16:
	.loc 1 59 0 discriminator 2
	ldr	r3, [r7, #72]
	cmp	r3, #63
	bhi	.L15
	.loc 1 59 0 discriminator 4
	ldr	r3, [r7, #72]
	subs	r3, r3, #32
	movs	r2, #1
	lsls	r2, r2, r3
	movs	r3, r2
	str	r3, [r7, #68]
	ldr	r2, [r7, #68]
	movs	r3, #255
	lsls	r3, r3, #5
	ands	r3, r2
	beq	.L15
	.loc 1 59 0 discriminator 5
	ldr	r3, .L55+32
	ldr	r2, [r7, #72]
	subs	r2, r2, #32
	movs	r1, #1
	lsls	r1, r1, r2
	movs	r2, r1
	str	r2, [r3]
.L15:
.LBE5:
	.loc 1 61 0 is_stmt 1
	ldr	r3, [r7]
	movs	r2, #8
	ands	r3, r2
	beq	.L18
.LBB6:
	.loc 1 61 0 is_stmt 0 discriminator 1
	ldr	r3, [r7, #4]
	str	r3, [r7, #64]
	ldr	r3, [r7, #64]
	cmp	r3, #31
	bhi	.L19
	.loc 1 61 0 discriminator 2
	movs	r2, #1
	ldr	r3, [r7, #64]
	lsls	r2, r2, r3
	movs	r3, r2
	str	r3, [r7, #60]
	ldr	r3, [r7, #60]
	ldr	r2, .L55+16
	ands	r3, r2
	beq	.L20
	.loc 1 61 0 discriminator 4
	ldr	r3, .L55+36
	ldr	r2, [r7, #60]
	str	r2, [r3]
	b	.L24
.L20:
	.loc 1 61 0 discriminator 5
	ldr	r3, [r7, #60]
	ldr	r2, .L55+40
	ands	r3, r2
	beq	.L24
	.loc 1 61 0 discriminator 6
	ldr	r3, .L55+44
	ldr	r2, [r7, #60]
	str	r2, [r3]
	b	.L24
.L19:
	.loc 1 61 0 discriminator 3
	ldr	r3, [r7, #64]
	cmp	r3, #63
	bhi	.L24
	.loc 1 61 0 discriminator 7
	ldr	r3, [r7, #64]
	subs	r3, r3, #32
	movs	r2, #1
	lsls	r2, r2, r3
	movs	r3, r2
	str	r3, [r7, #60]
	ldr	r3, [r7, #60]
	ldr	r2, .L55+48
	ands	r3, r2
	beq	.L23
	.loc 1 61 0 discriminator 8
	ldr	r3, .L55+52
	ldr	r2, [r7, #60]
	str	r2, [r3]
	b	.L24
.L23:
	.loc 1 61 0 discriminator 9
	ldr	r3, [r7, #60]
	ldr	r2, .L55+56
	ands	r3, r2
	beq	.L24
	.loc 1 61 0 discriminator 10
	ldr	r3, .L55+60
	ldr	r2, [r7, #60]
	str	r2, [r3]
	b	.L24
.L18:
.LBE6:
.LBB7:
	.loc 1 62 0 is_stmt 1
	ldr	r3, [r7, #4]
	str	r3, [r7, #56]
	ldr	r3, [r7, #56]
	cmp	r3, #31
	bhi	.L25
	.loc 1 62 0 is_stmt 0 discriminator 1
	movs	r2, #1
	ldr	r3, [r7, #56]
	lsls	r2, r2, r3
	movs	r3, r2
	str	r3, [r7, #52]
	ldr	r3, [r7, #52]
	ldr	r2, .L55+16
	ands	r3, r2
	beq	.L26
	.loc 1 62 0 discriminator 3
	ldr	r3, .L55+64
	ldr	r2, [r7, #52]
	str	r2, [r3]
	b	.L24
.L26:
	.loc 1 62 0 discriminator 4
	ldr	r3, [r7, #52]
	ldr	r2, .L55+40
	ands	r3, r2
	beq	.L24
	.loc 1 62 0 discriminator 5
	ldr	r3, .L55+68
	ldr	r2, [r7, #52]
	str	r2, [r3]
	b	.L24
.L25:
	.loc 1 62 0 discriminator 2
	ldr	r3, [r7, #56]
	cmp	r3, #63
	bhi	.L24
	.loc 1 62 0 discriminator 6
	ldr	r3, [r7, #56]
	subs	r3, r3, #32
	movs	r2, #1
	lsls	r2, r2, r3
	movs	r3, r2
	str	r3, [r7, #52]
	ldr	r3, [r7, #52]
	ldr	r2, .L55+48
	ands	r3, r2
	beq	.L28
	.loc 1 62 0 discriminator 7
	ldr	r3, .L55+72
	ldr	r2, [r7, #52]
	str	r2, [r3]
	b	.L24
.L28:
	.loc 1 62 0 discriminator 8
	ldr	r3, [r7, #52]
	ldr	r2, .L55+56
	ands	r3, r2
	beq	.L24
	.loc 1 62 0 discriminator 9
	ldr	r3, .L55+76
	ldr	r2, [r7, #52]
	str	r2, [r3]
.L24:
.LBE7:
	.loc 1 64 0 is_stmt 1
	ldr	r3, [r7]
	movs	r2, #4
	ands	r3, r2
	beq	.L29
.LBB8:
	.loc 1 64 0 is_stmt 0 discriminator 1
	ldr	r3, [r7, #4]
	str	r3, [r7, #48]
	ldr	r3, [r7, #48]
	cmp	r3, #31
	bhi	.L30
	.loc 1 64 0 discriminator 2
	movs	r2, #1
	ldr	r3, [r7, #48]
	lsls	r2, r2, r3
	movs	r3, r2
	str	r3, [r7, #44]
	ldr	r3, [r7, #44]
	ldr	r2, .L55+16
	ands	r3, r2
	beq	.L31
	.loc 1 64 0 discriminator 4
	ldr	r3, .L55+80
	ldr	r2, [r7, #44]
	str	r2, [r3]
	b	.L35
.L31:
	.loc 1 64 0 discriminator 5
	ldr	r3, [r7, #44]
	ldr	r2, .L55+40
	ands	r3, r2
	beq	.L35
	.loc 1 64 0 discriminator 6
	ldr	r3, .L55+84
	ldr	r2, [r7, #44]
	str	r2, [r3]
	b	.L35
.L30:
	.loc 1 64 0 discriminator 3
	ldr	r3, [r7, #48]
	cmp	r3, #63
	bhi	.L35
	.loc 1 64 0 discriminator 7
	ldr	r3, [r7, #48]
	subs	r3, r3, #32
	movs	r2, #1
	lsls	r2, r2, r3
	movs	r3, r2
	str	r3, [r7, #44]
	ldr	r3, [r7, #44]
	ldr	r2, .L55+48
	ands	r3, r2
	beq	.L34
	.loc 1 64 0 discriminator 8
	ldr	r3, .L55+88
	ldr	r2, [r7, #44]
	str	r2, [r3]
	b	.L35
.L34:
	.loc 1 64 0 discriminator 9
	ldr	r3, [r7, #44]
	ldr	r2, .L55+56
	ands	r3, r2
	beq	.L35
	.loc 1 64 0 discriminator 10
	ldr	r3, .L55+92
	ldr	r2, [r7, #44]
	str	r2, [r3]
	b	.L35
.L29:
.LBE8:
.LBB9:
	.loc 1 65 0 is_stmt 1
	ldr	r3, [r7, #4]
	str	r3, [r7, #40]
	ldr	r3, [r7, #40]
	cmp	r3, #31
	bhi	.L36
	.loc 1 65 0 is_stmt 0 discriminator 1
	movs	r2, #1
	ldr	r3, [r7, #40]
	lsls	r2, r2, r3
	movs	r3, r2
	str	r3, [r7, #36]
	ldr	r3, [r7, #36]
	ldr	r2, .L55+16
	ands	r3, r2
	beq	.L37
	.loc 1 65 0 discriminator 3
	ldr	r3, .L55+96
	ldr	r2, [r7, #36]
	str	r2, [r3]
	b	.L35
.L37:
	.loc 1 65 0 discriminator 4
	ldr	r3, [r7, #36]
	ldr	r2, .L55+40
	ands	r3, r2
	beq	.L35
	.loc 1 65 0 discriminator 5
	ldr	r3, .L55+100
	ldr	r2, [r7, #36]
	str	r2, [r3]
	b	.L35
.L36:
	.loc 1 65 0 discriminator 2
	ldr	r3, [r7, #40]
	cmp	r3, #63
	bhi	.L35
	.loc 1 65 0 discriminator 6
	ldr	r3, [r7, #40]
	subs	r3, r3, #32
	movs	r2, #1
	lsls	r2, r2, r3
	movs	r3, r2
	str	r3, [r7, #36]
	ldr	r3, [r7, #36]
	ldr	r2, .L55+48
	ands	r3, r2
	beq	.L39
	.loc 1 65 0 discriminator 7
	ldr	r3, .L55+104
	ldr	r2, [r7, #36]
	str	r2, [r3]
	b	.L35
.L39:
	.loc 1 65 0 discriminator 8
	ldr	r3, [r7, #36]
	ldr	r2, .L55+56
	ands	r3, r2
	beq	.L35
	.loc 1 65 0 discriminator 9
	ldr	r3, .L55+108
	ldr	r2, [r7, #36]
	str	r2, [r3]
.L35:
.LBE9:
	.loc 1 67 0 is_stmt 1
	ldr	r3, [r7]
	movs	r2, #16
	ands	r3, r2
	beq	.L40
.LBB10:
	.loc 1 67 0 is_stmt 0 discriminator 1
	ldr	r3, [r7, #4]
	str	r3, [r7, #32]
	ldr	r3, [r7, #32]
	cmp	r3, #31
	bhi	.L41
	.loc 1 67 0 discriminator 2
	movs	r2, #1
	ldr	r3, [r7, #32]
	lsls	r2, r2, r3
	movs	r3, r2
	str	r3, [r7, #28]
	ldr	r3, [r7, #28]
	cmp	r3, #0
	bne	.LCB599
	b	.L44	@long jump
.LCB599:
	.loc 1 67 0 discriminator 4
	ldr	r3, .L55+112
	movs	r1, #1
	ldr	r2, [r7, #32]
	lsls	r1, r1, r2
	movs	r2, r1
	str	r2, [r3]
	b	.L44
.L56:
	.align	2
.L55:
	.word	-1610481660
	.word	-1610481644
	.word	-1610481656
	.word	-1610481640
	.word	1136659455
	.word	-1610479356
	.word	-1610479340
	.word	-1610479352
	.word	-1610479336
	.word	-1610480376
	.word	-1136659456
	.word	-1610479100
	.word	15734784
	.word	-1610480360
	.word	1042431
	.word	-1610479084
	.word	-1610480380
	.word	-1610479096
	.word	-1610480364
	.word	-1610479080
	.word	-1610481404
	.word	-1610478844
	.word	-1610481388
	.word	-1610478828
	.word	-1610481400
	.word	-1610478840
	.word	-1610481384
	.word	-1610478824
	.word	-1610480124
.L41:
	.loc 1 67 0 discriminator 3
	ldr	r3, [r7, #32]
	cmp	r3, #63
	bhi	.L44
	.loc 1 67 0 discriminator 5
	ldr	r3, [r7, #32]
	subs	r3, r3, #32
	movs	r2, #1
	lsls	r2, r2, r3
	movs	r3, r2
	str	r3, [r7, #28]
	ldr	r2, [r7, #28]
	movs	r3, #255
	lsls	r3, r3, #5
	ands	r3, r2
	beq	.L44
	.loc 1 67 0 discriminator 6
	ldr	r3, .L57
	ldr	r2, [r7, #32]
	subs	r2, r2, #32
	movs	r1, #1
	lsls	r1, r1, r2
	movs	r2, r1
	str	r2, [r3]
	b	.L44
.L40:
.LBE10:
.LBB11:
	.loc 1 68 0 is_stmt 1
	ldr	r3, [r7, #4]
	str	r3, [r7, #24]
	ldr	r3, [r7, #24]
	cmp	r3, #31
	bhi	.L45
	.loc 1 68 0 is_stmt 0 discriminator 1
	movs	r2, #1
	ldr	r3, [r7, #24]
	lsls	r2, r2, r3
	movs	r3, r2
	str	r3, [r7, #20]
	ldr	r3, [r7, #20]
	cmp	r3, #0
	beq	.L44
	.loc 1 68 0 discriminator 3
	ldr	r3, .L57+4
	movs	r1, #1
	ldr	r2, [r7, #24]
	lsls	r1, r1, r2
	movs	r2, r1
	str	r2, [r3]
	b	.L44
.L45:
	.loc 1 68 0 discriminator 2
	ldr	r3, [r7, #24]
	cmp	r3, #63
	bhi	.L44
	.loc 1 68 0 discriminator 4
	ldr	r3, [r7, #24]
	subs	r3, r3, #32
	movs	r2, #1
	lsls	r2, r2, r3
	movs	r3, r2
	str	r3, [r7, #20]
	ldr	r2, [r7, #20]
	movs	r3, #255
	lsls	r3, r3, #5
	ands	r3, r2
	beq	.L44
	.loc 1 68 0 discriminator 5
	ldr	r3, .L57+8
	ldr	r2, [r7, #24]
	subs	r2, r2, #32
	movs	r1, #1
	lsls	r1, r1, r2
	movs	r2, r1
	str	r2, [r3]
.L44:
.LBE11:
.LBB12:
	.loc 1 70 0 is_stmt 1
	ldr	r3, [r7, #4]
	str	r3, [r7, #16]
	ldr	r3, [r7, #16]
	cmp	r3, #55
	bhi	.L54
.LBB13:
	.loc 1 70 0 is_stmt 0 discriminator 1
	ldr	r3, [r7, #16]
	lsrs	r3, r3, #3
	lsls	r3, r3, #24
	lsrs	r2, r3, #24
	movs	r3, #15
	adds	r3, r7, r3
	movs	r1, #7
	ands	r2, r1
	strb	r2, [r3]
	ldr	r3, [r7, #16]
	lsls	r3, r3, #24
	lsrs	r3, r3, #24
	lsls	r3, r3, #2
	lsls	r3, r3, #24
	lsrs	r2, r3, #24
	movs	r3, #14
	adds	r3, r7, r3
	movs	r1, #28
	ands	r2, r1
	strb	r2, [r3]
	movs	r3, #0
	str	r3, [r7, #92]
	ldr	r3, [r7, #16]
	cmp	r3, #7
	bhi	.L47
	.loc 1 70 0 discriminator 2
	ldr	r3, .L57+12
	str	r3, [r7, #92]
	b	.L48
.L47:
	.loc 1 70 0 discriminator 3
	ldr	r3, [r7, #16]
	cmp	r3, #15
	bhi	.L49
	.loc 1 70 0 discriminator 5
	ldr	r3, .L57+16
	str	r3, [r7, #92]
	b	.L48
.L49:
	.loc 1 70 0 discriminator 6
	ldr	r3, [r7, #16]
	cmp	r3, #23
	bhi	.L50
	.loc 1 70 0 discriminator 8
	ldr	r3, .L57+16
	str	r3, [r7, #92]
	b	.L48
.L50:
	.loc 1 70 0 discriminator 9
	ldr	r3, [r7, #16]
	cmp	r3, #31
	bhi	.L51
	.loc 1 70 0 discriminator 11
	ldr	r3, .L57+20
	str	r3, [r7, #92]
	b	.L48
.L51:
	.loc 1 70 0 discriminator 12
	ldr	r3, [r7, #16]
	cmp	r3, #39
	bhi	.L52
	.loc 1 70 0 discriminator 14
	ldr	r3, .L57+16
	str	r3, [r7, #92]
	b	.L48
.L52:
	.loc 1 70 0 discriminator 15
	ldr	r3, [r7, #16]
	cmp	r3, #47
	bhi	.L53
	.loc 1 70 0 discriminator 17
	ldr	r3, .L57+16
	str	r3, [r7, #92]
	b	.L48
.L53:
	.loc 1 70 0 discriminator 18
	ldr	r3, [r7, #16]
	cmp	r3, #55
	bhi	.L48
	.loc 1 70 0 discriminator 20
	ldr	r3, .L57+24
	str	r3, [r7, #92]
.L48:
	.loc 1 70 0 discriminator 22
	movs	r3, #15
	adds	r3, r7, r3
	ldrb	r3, [r3]
	lsls	r3, r3, #4
	ldr	r2, .L57+28
	mov	ip, r2
	add	r3, r3, ip
	movs	r2, #15
	adds	r2, r7, r2
	ldrb	r2, [r2]
	lsls	r2, r2, #4
	ldr	r1, .L57+28
	mov	ip, r1
	add	r2, r2, ip
	ldr	r2, [r2]
	movs	r1, #14
	adds	r1, r7, r1
	ldrb	r1, [r1]
	movs	r0, #15
	lsls	r0, r0, r1
	movs	r1, r0
	mvns	r1, r1
	ands	r1, r2
	ldr	r2, [r7]
	lsrs	r2, r2, #8
	ldr	r0, [r7, #92]
	ands	r0, r2
	movs	r2, #14
	adds	r2, r7, r2
	ldrb	r2, [r2]
	lsls	r0, r0, r2
	movs	r2, r0
	orrs	r2, r1
	str	r2, [r3]
.L54:
.LBE13:
.LBE12:
	.loc 1 72 0 is_stmt 1
	nop
	mov	sp, r7
	add	sp, sp, #96
	@ sp needed
	pop	{r7, pc}
.L58:
	.align	2
.L57:
	.word	-1610480108
	.word	-1610480120
	.word	-1610480104
	.word	2004353023
	.word	2004318071
	.word	2013263735
	.word	2004320119
	.word	-1610478592
	.cfi_endproc
.LFE2:
	.size	GPIO_Setup, .-GPIO_Setup
	.text
.Letext0:
	.file 2 "d:\\1.11\\share\\em_armgcc\\arm-none-eabi\\include\\machine\\_default_types.h"
	.file 3 "d:\\1.11\\share\\em_armgcc\\arm-none-eabi\\include\\sys\\_stdint.h"