	.syntax unified
	.cpu arm9e
	.fpu softvfp
	.eabi_attribute 20, 1
	.eabi_attribute 21, 1
	.eabi_attribute 23, 3
	.eabi_attribute 24, 1
	.eabi_attribute 25, 1
	.eabi_attribute 26, 1
	.eabi_attribute 30, 6
	.eabi_attribute 34, 0
	.eabi_attribute 18, 4
	.thumb
	.syntax unified
	.file	"lcdif.c"
	.text
.Ltext0:
	.cfi_sections	.debug_frame
	.global	CFormatToBPP
	.section	.rodata.CFormatToBPP,"a",%progbits
	.align	2
	.type	CFormatToBPP, %object
	.size	CFormatToBPP, 7
CFormatToBPP:
	.byte	1
	.byte	2
	.byte	0
	.byte	3
	.byte	4
	.byte	4
	.byte	4
	.global	LCDIF_LAYER
	.section	.data.LCDIF_LAYER,"aw",%progbits
	.align	2
	.type	LCDIF_LAYER, %object
	.size	LCDIF_LAYER, 16
LCDIF_LAYER:
	.word	-1606090576
	.word	-1606090528
	.word	-1606090480
	.word	-1606090432
	.comm	LCDScreen,136,4
	.comm	LCDIFQueue,4,4
	.section	.text.LCDIF_WriteCommand,"ax",%progbits
	.align	2
	.global	LCDIF_WriteCommand
	.code	16
	.thumb_func
	.type	LCDIF_WriteCommand, %function
LCDIF_WriteCommand:
.LFB1:
	.file 1 "Source\\Lib\\MT6261\\Drivers\\lcdif.c"
	.loc 1 36 0
	.cfi_startproc
	@ args = 0, pretend = 0, frame = 8
	@ frame_needed = 1, uses_anonymous_args = 0
	push	{r7, lr}
	.cfi_def_cfa_offset 8
	.cfi_offset 7, -8
	.cfi_offset 14, -4
	sub	sp, sp, #8
	.cfi_def_cfa_offset 16
	add	r7, sp, #0
	.cfi_def_cfa_register 7
	movs	r2, r0
	adds	r3, r7, #7
	strb	r2, [r3]
	.loc 1 37 0
	ldr	r3, .L2
	adds	r2, r7, #7
	ldrb	r2, [r2]
	str	r2, [r3]
	.loc 1 38 0
	nop
	mov	sp, r7
	add	sp, sp, #8
	@ sp needed
	pop	{r7, pc}
.L3:
	.align	2
.L2:
	.word	-1606086784
	.cfi_endproc
.LFE1:
	.size	LCDIF_WriteCommand, .-LCDIF_WriteCommand
	.section	.text.LCDIF_WriteData,"ax",%progbits
	.align	2
	.global	LCDIF_WriteData
	.code	16
	.thumb_func
	.type	LCDIF_WriteData, %function
LCDIF_WriteData:
.LFB2:
	.loc 1 41 0
	.cfi_startproc
	@ args = 0, pretend = 0, frame = 8
	@ frame_needed = 1, uses_anonymous_args = 0
	push	{r7, lr}
	.cfi_def_cfa_offset 8
	.cfi_offset 7, -8
	.cfi_offset 14, -4
	sub	sp, sp, #8
	.cfi_def_cfa_offset 16
	add	r7, sp, #0
	.cfi_def_cfa_register 7
	movs	r2, r0
	adds	r3, r7, #7
	strb	r2, [r3]
	.loc 1 42 0
	ldr	r3, .L5
	adds	r2, r7, #7
	ldrb	r2, [r2]
	str	r2, [r3]
	.loc 1 43 0
	nop
	mov	sp, r7
	add	sp, sp, #8
	@ sp needed
	pop	{r7, pc}
.L6:
	.align	2
.L5:
	.word	-1606086768
	.cfi_endproc
.LFE2:
	.size	LCDIF_WriteData, .-LCDIF_WriteData
	.section	.text.LCDIF_ReadData,"ax",%progbits
	.align	2
	.global	LCDIF_ReadData
	.code	16
	.thumb_func
	.type	LCDIF_ReadData, %function
LCDIF_ReadData:
.LFB3:
	.loc 1 46 0
	.cfi_startproc
	@ args = 0, pretend = 0, frame = 0
	@ frame_needed = 1, uses_anonymous_args = 0
	push	{r7, lr}
	.cfi_def_cfa_offset 8
	.cfi_offset 7, -8
	.cfi_offset 14, -4
	add	r7, sp, #0
	.cfi_def_cfa_register 7
	.loc 1 47 0
	ldr	r3, .L9
	ldr	r3, [r3]
	lsls	r3, r3, #24
	lsrs	r3, r3, #24
	.loc 1 48 0
	movs	r0, r3
	mov	sp, r7
	@ sp needed
	pop	{r7, pc}
.L10:
	.align	2
.L9:
	.word	-1606086768
	.cfi_endproc
.LFE3:
	.size	LCDIF_ReadData, .-LCDIF_ReadData
	.section	.text.LCDIF_SetClock,"ax",%progbits
	.align	2
	.global	LCDIF_SetClock
	.code	16
	.thumb_func
	.type	LCDIF_SetClock, %function
LCDIF_SetClock:
.LFB4:
	.loc 1 51 0
	.cfi_startproc
	@ args = 0, pretend = 0, frame = 8
	@ frame_needed = 1, uses_anonymous_args = 0
	push	{r7, lr}
	.cfi_def_cfa_offset 8
	.cfi_offset 7, -8
	.cfi_offset 14, -4
	sub	sp, sp, #8
	.cfi_def_cfa_offset 16
	add	r7, sp, #0
	.cfi_def_cfa_register 7
	movs	r2, r0
	adds	r3, r7, #7
	strb	r2, [r3]
	.loc 1 52 0
	ldr	r3, .L12
	ldr	r2, .L12
	ldr	r2, [r2]
	movs	r1, #112
	bics	r2, r1
	movs	r1, r2
	adds	r2, r7, #7
	ldrb	r2, [r2]
	lsls	r2, r2, #4
	movs	r0, r2
	movs	r2, #112
	ands	r2, r0
	orrs	r2, r1
	str	r2, [r3]
	.loc 1 53 0
	nop
	mov	sp, r7
	add	sp, sp, #8
	@ sp needed
	pop	{r7, pc}
.L13:
	.align	2
.L12:
	.word	-1610546916
	.cfi_endproc
.LFE4:
	.size	LCDIF_SetClock, .-LCDIF_SetClock
	.section	.text.LCDIF_StartLCDTransfer,"ax",%progbits
	.align	2
	.global	LCDIF_StartLCDTransfer
	.code	16
	.thumb_func
	.type	LCDIF_StartLCDTransfer, %function
LCDIF_StartLCDTransfer:
.LFB5:
	.loc 1 56 0
	.cfi_startproc
	@ args = 0, pretend = 0, frame = 0
	@ frame_needed = 1, uses_anonymous_args = 0
	push	{r7, lr}
	.cfi_def_cfa_offset 8
	.cfi_offset 7, -8
	.cfi_offset 14, -4
	add	r7, sp, #0
	.cfi_def_cfa_register 7
	.loc 1 57 0
	ldr	r3, .L15
	movs	r2, #0
	strh	r2, [r3]
	.loc 1 58 0
	ldr	r3, .L15
	ldr	r2, .L15+4
	strh	r2, [r3]
	.loc 1 59 0
	nop
	mov	sp, r7
	@ sp needed
	pop	{r7, pc}
.L16:
	.align	2
.L15:
	.word	-1606090740
	.word	-32768
	.cfi_endproc
.LFE5:
	.size	LCDIF_StartLCDTransfer, .-LCDIF_StartLCDTransfer
	.section	.text.LCDIF_IsQueueRunning,"ax",%progbits
	.align	2
	.global	LCDIF_IsQueueRunning
	.code	16
	.thumb_func
	.type	LCDIF_IsQueueRunning, %function
LCDIF_IsQueueRunning:
.LFB6:
	.loc 1 62 0
	.cfi_startproc
	@ args = 0, pretend = 0, frame = 0
	@ frame_needed = 1, uses_anonymous_args = 0
	push	{r7, lr}
	.cfi_def_cfa_offset 8
	.cfi_offset 7, -8
	.cfi_offset 14, -4
	add	r7, sp, #0
	.cfi_def_cfa_register 7
	.loc 1 63 0
	ldr	r3, .L19
	ldrh	r3, [r3]
	lsls	r3, r3, #16
	lsrs	r3, r3, #16
	lsls	r3, r3, #16
	asrs	r3, r3, #16
	lsls	r3, r3, #16
	lsrs	r3, r3, #16
	lsrs	r3, r3, #15
	lsls	r3, r3, #24
	lsrs	r3, r3, #24
	.loc 1 64 0
	movs	r0, r3
	mov	sp, r7
	@ sp needed
	pop	{r7, pc}
.L20:
	.align	2
.L19:
	.word	-1606090740
	.cfi_endproc
.LFE6:
	.size	LCDIF_IsQueueRunning, .-LCDIF_IsQueueRunning
	.section	.text.LCDIF_DeleteCommandFromQueue,"ax",%progbits
	.align	2
	.global	LCDIF_DeleteCommandFromQueue
	.code	16
	.thumb_func
	.type	LCDIF_DeleteCommandFromQueue, %function
LCDIF_DeleteCommandFromQueue:
.LFB7:
	.loc 1 67 0
	.cfi_startproc
	@ args = 0, pretend = 0, frame = 8
	@ frame_needed = 1, uses_anonymous_args = 0
	push	{r7, lr}
	.cfi_def_cfa_offset 8
	.cfi_offset 7, -8
	.cfi_offset 14, -4
	sub	sp, sp, #8
	.cfi_def_cfa_offset 16
	add	r7, sp, #0
	.cfi_def_cfa_register 7
	.loc 1 68 0
	ldr	r3, .L24
	ldr	r3, [r3]
	movs	r0, r3
	bl	DL_GetFirstItem
	movs	r3, r0
	str	r3, [r7, #4]
	.loc 1 70 0
	ldr	r3, [r7, #4]
	cmp	r3, #0
	beq	.L23
	.loc 1 71 0
	ldr	r3, .L24
	ldr	r3, [r3]
	ldr	r2, [r7, #4]
	movs	r1, r2
	movs	r0, r3
	bl	DL_DeleteItem
.L23:
	.loc 1 72 0
	nop
	mov	sp, r7
	add	sp, sp, #8
	@ sp needed
	pop	{r7, pc}
.L25:
	.align	2
.L24:
	.word	LCDIFQueue
	.cfi_endproc
.LFE7:
	.size	LCDIF_DeleteCommandFromQueue, .-LCDIF_DeleteCommandFromQueue
	.section	.text.LCDIF_GetCommandFromQueue,"ax",%progbits
	.align	2
	.global	LCDIF_GetCommandFromQueue
	.code	16
	.thumb_func
	.type	LCDIF_GetCommandFromQueue, %function
LCDIF_GetCommandFromQueue:
.LFB8:
	.loc 1 75 0
	.cfi_startproc
	@ args = 0, pretend = 0, frame = 16
	@ frame_needed = 1, uses_anonymous_args = 0
	push	{r4, r7, lr}
	.cfi_def_cfa_offset 12
	.cfi_offset 4, -12
	.cfi_offset 7, -8
	.cfi_offset 14, -4
	sub	sp, sp, #20
	.cfi_def_cfa_offset 32
	add	r7, sp, #0
	.cfi_def_cfa_register 7
	.loc 1 78 0
	b	.L27
.L34:
.LBB2:
	.loc 1 80 0
	ldr	r3, [r7, #8]
	ldr	r3, [r3, #8]
	str	r3, [r7, #4]
	.loc 1 82 0
	ldr	r3, [r7, #4]
	cmp	r3, #0
	beq	.L28
	.loc 1 84 0
	ldr	r3, .L35
	ldr	r2, [r7, #4]
	movs	r1, #12
	ldrsh	r2, [r2, r1]
	movs	r1, r2
	ldr	r2, .L35+4
	movs	r0, #8
	ldrsh	r2, [r2, r0]
	adds	r2, r1, r2
	lsls	r2, r2, #22
	lsrs	r1, r2, #22
	.loc 1 85 0
	ldr	r2, [r7, #4]
	movs	r0, #14
	ldrsh	r2, [r2, r0]
	movs	r0, r2
	ldr	r2, .L35+4
	movs	r4, #10
	ldrsh	r2, [r2, r4]
	adds	r2, r0, r2
	lsls	r2, r2, #16
	ldr	r0, .L35+8
	ands	r2, r0
	.loc 1 84 0
	orrs	r2, r1
	str	r2, [r3]
	.loc 1 86 0
	ldr	r3, .L35+12
	ldr	r2, [r7, #4]
	movs	r1, #16
	ldrsh	r2, [r2, r1]
	movs	r1, r2
	ldr	r2, [r7, #4]
	movs	r0, #12
	ldrsh	r2, [r2, r0]
	subs	r2, r1, r2
	adds	r2, r2, #1
	lsls	r2, r2, #21
	lsrs	r1, r2, #21
	.loc 1 87 0
	ldr	r2, [r7, #4]
	movs	r0, #18
	ldrsh	r2, [r2, r0]
	movs	r0, r2
	ldr	r2, [r7, #4]
	movs	r4, #14
	ldrsh	r2, [r2, r4]
	subs	r2, r0, r2
	adds	r2, r2, #1
	lsls	r2, r2, #16
	ldr	r0, .L35+16
	ands	r2, r0
	.loc 1 86 0
	orrs	r2, r1
	str	r2, [r3]
	.loc 1 89 0
	ldr	r3, [r7, #4]
	ldr	r3, [r3, #20]
	cmp	r3, #0
	beq	.L29
.LBB3:
	.loc 1 93 0
	movs	r3, #0
	str	r3, [r7, #12]
	b	.L30
.L31:
	.loc 1 93 0 is_stmt 0 discriminator 3
	ldr	r3, [r7, #12]
	ldr	r2, .L35+20
	mov	ip, r2
	add	r3, r3, ip
	lsls	r3, r3, #2
	ldr	r2, [r7, #4]
	ldr	r1, [r7, #12]
	adds	r1, r1, #6
	lsls	r1, r1, #2
	ldr	r2, [r1, r2]
	str	r2, [r3]
	ldr	r3, [r7, #12]
	adds	r3, r3, #1
	str	r3, [r7, #12]
.L30:
	.loc 1 93 0 discriminator 1
	ldr	r3, [r7, #4]
	ldr	r2, [r3, #20]
	ldr	r3, [r7, #12]
	cmp	r2, r3
	bhi	.L31
	.loc 1 94 0 is_stmt 1
	ldr	r3, .L35+24
	ldr	r2, .L35+24
	ldr	r2, [r2]
	ldr	r1, .L35+28
	ands	r2, r1
	str	r2, [r3]
	.loc 1 95 0
	ldr	r2, .L35+24
	ldr	r3, .L35+24
	ldr	r1, [r3]
	ldr	r3, [r7, #4]
	ldr	r3, [r3, #20]
	subs	r3, r3, #1
	lsls	r0, r3, #8
	movs	r3, #252
	lsls	r3, r3, #6
	ands	r3, r0
	orrs	r3, r1
	movs	r1, #128
	lsls	r1, r1, #8
	orrs	r3, r1
	str	r3, [r2]
.LBE3:
	b	.L32
.L29:
	.loc 1 97 0
	ldr	r3, .L35+24
	ldr	r2, .L35+24
	ldr	r2, [r2]
	ldr	r1, .L35+32
	ands	r2, r1
	str	r2, [r3]
.L32:
	.loc 1 99 0
	bl	LCDIF_DeleteCommandFromQueue
	.loc 1 100 0
	movs	r3, #1
	b	.L33
.L28:
	.loc 1 102 0
	bl	LCDIF_DeleteCommandFromQueue
.L27:
.LBE2:
	.loc 1 78 0
	ldr	r3, .L35+36
	ldr	r3, [r3]
	movs	r0, r3
	bl	DL_GetFirstItem
	movs	r3, r0
	str	r3, [r7, #8]
	ldr	r3, [r7, #8]
	cmp	r3, #0
	bne	.L34
	.loc 1 104 0
	movs	r3, #0
.L33:
	.loc 1 105 0
	movs	r0, r3
	mov	sp, r7
	add	sp, sp, #20
	@ sp needed
	pop	{r4, r7, pc}
.L36:
	.align	2
.L35:
	.word	-1606090620
	.word	LCDScreen
	.word	67043328
	.word	-1606090608
	.word	134152192
	.word	672219904
	.word	-1606090624
	.word	-16129
	.word	-32769
	.word	LCDIFQueue
	.cfi_endproc
.LFE8:
	.size	LCDIF_GetCommandFromQueue, .-LCDIF_GetCommandFromQueue
	.section	.text.LCDIF_RestartQueue,"ax",%progbits
	.align	2
	.global	LCDIF_RestartQueue
	.code	16
	.thumb_func
	.type	LCDIF_RestartQueue, %function
LCDIF_RestartQueue:
.LFB9:
	.loc 1 108 0
	.cfi_startproc
	@ args = 0, pretend = 0, frame = 8
	@ frame_needed = 1, uses_anonymous_args = 0
	push	{r7, lr}
	.cfi_def_cfa_offset 8
	.cfi_offset 7, -8
	.cfi_offset 14, -4
	sub	sp, sp, #8
	.cfi_def_cfa_offset 16
	add	r7, sp, #0
	.cfi_def_cfa_register 7
	.loc 1 109 0
	bl	__disable_interrupts
	movs	r3, r0
	str	r3, [r7, #4]
	.loc 1 111 0
	bl	LCDIF_IsQueueRunning
	subs	r3, r0, #0
	bne	.L38
	.loc 1 111 0 is_stmt 0 discriminator 1
	bl	LCDIF_GetCommandFromQueue
	subs	r3, r0, #0
	beq	.L38
	.loc 1 111 0 discriminator 2
	bl	LCDIF_StartLCDTransfer
.L38:
	.loc 1 113 0 is_stmt 1
	ldr	r3, [r7, #4]
	movs	r0, r3
	bl	__restore_interrupts
	.loc 1 114 0
	nop
	mov	sp, r7
	add	sp, sp, #8
	@ sp needed
	pop	{r7, pc}
	.cfi_endproc
.LFE9:
	.size	LCDIF_RestartQueue, .-LCDIF_RestartQueue
	.section	.text.LCDIF_AddCommandToQueue,"ax",%progbits
	.align	2
	.global	LCDIF_AddCommandToQueue
	.code	16
	.thumb_func
	.type	LCDIF_AddCommandToQueue, %function
LCDIF_AddCommandToQueue:
.LFB10:
	.loc 1 117 0
	.cfi_startproc
	@ args = 0, pretend = 0, frame = 8
	@ frame_needed = 1, uses_anonymous_args = 0
	push	{r7, lr}
	.cfi_def_cfa_offset 8
	.cfi_offset 7, -8
	.cfi_offset 14, -4
	sub	sp, sp, #8
	.cfi_def_cfa_offset 16
	add	r7, sp, #0
	.cfi_def_cfa_register 7
	str	r0, [r7, #4]
	.loc 1 118 0
	ldr	r3, [r7, #4]
	cmp	r3, #0
	beq	.L40
	.loc 1 118 0 discriminator 1
	ldr	r3, .L43
	ldr	r3, [r3]
	ldr	r2, [r7, #4]
	movs	r1, r2
	movs	r0, r3
	bl	DL_AddItemPtr
	subs	r3, r0, #0
	beq	.L40
	.loc 1 120 0
	bl	LCDIF_RestartQueue
	.loc 1 121 0
	nop
.L41:
	.loc 1 121 0 is_stmt 0 discriminator 1
	ldr	r3, .L43
	ldr	r3, [r3]
	movs	r0, r3
	bl	DL_GetItemsCount
	movs	r3, r0
	cmp	r3, #127
	bhi	.L41
	.loc 1 122 0 is_stmt 1
	movs	r3, #1
	b	.L42
.L40:
	.loc 1 124 0
	ldr	r3, [r7, #4]
	movs	r0, r3
	bl	free
	.loc 1 126 0
	movs	r3, #0
.L42:
	.loc 1 127 0
	movs	r0, r3
	mov	sp, r7
	add	sp, sp, #8
	@ sp needed
	pop	{r7, pc}
.L44:
	.align	2
.L43:
	.word	LCDIFQueue
	.cfi_endproc
.LFE10:
	.size	LCDIF_AddCommandToQueue, .-LCDIF_AddCommandToQueue
	.section	.rodata
	.align	2
.LC4:
	.ascii	"Unsolicited LCDIF interrupt code 0x%04X!\015\012\000"
	.section	.text.LCDIF_ISR,"ax",%progbits
	.align	2
	.global	LCDIF_ISR
	.code	16
	.thumb_func
	.type	LCDIF_ISR, %function
LCDIF_ISR:
.LFB11:
	.loc 1 130 0
	.cfi_startproc
	@ args = 0, pretend = 0, frame = 8
	@ frame_needed = 1, uses_anonymous_args = 0
	push	{r7, lr}
	.cfi_def_cfa_offset 8
	.cfi_offset 7, -8
	.cfi_offset 14, -4
	sub	sp, sp, #8
	.cfi_def_cfa_offset 16
	add	r7, sp, #0
	.cfi_def_cfa_register 7
	.loc 1 133 0
	ldr	r3, .L50
	movs	r2, #0
	strh	r2, [r3]
	.loc 1 134 0
	ldr	r2, .L50+4
	adds	r3, r7, #6
	ldrh	r2, [r2]
	strh	r2, [r3]
	adds	r3, r7, #6
	ldrh	r3, [r3]
	movs	r2, #1
	ands	r3, r2
	beq	.L46
	.loc 1 136 0
	bl	LCDIF_GetCommandFromQueue
	subs	r3, r0, #0
	beq	.L49
	.loc 1 136 0 is_stmt 0 discriminator 1
	ldr	r3, .L50
	ldr	r2, .L50+8
	strh	r2, [r3]
	.loc 1 139 0 is_stmt 1 discriminator 1
	b	.L49
.L46:
	.loc 1 138 0
	adds	r3, r7, #6
	ldrh	r2, [r3]
	ldr	r3, .L50+12
	movs	r1, r2
	movs	r0, r3
	bl	printf
	.loc 1 138 0
	ldr	r3, .L50+16
	ldr	r3, [r3]
	ldr	r3, [r3, #8]
	.loc 1 138 0
	movs	r0, r3
	bl	fflush
.L49:
	.loc 1 139 0
	nop
	mov	sp, r7
	add	sp, sp, #8
	@ sp needed
	pop	{r7, pc}
.L51:
	.align	2
.L50:
	.word	-1606090740
	.word	-1606090744
	.word	-32768
	.word	.LC4
	.word	_impure_ptr
	.cfi_endproc
.LFE11:
	.size	LCDIF_ISR, .-LCDIF_ISR
	.section	.text.LCDIF_RegisterISR,"ax",%progbits
	.align	2
	.global	LCDIF_RegisterISR
	.code	16
	.thumb_func
	.type	LCDIF_RegisterISR, %function
LCDIF_RegisterISR:
.LFB12:
	.loc 1 142 0
	.cfi_startproc
	@ args = 0, pretend = 0, frame = 0
	@ frame_needed = 1, uses_anonymous_args = 0
	push	{r7, lr}
	.cfi_def_cfa_offset 8
	.cfi_offset 7, -8
	.cfi_offset 14, -4
	sub	sp, sp, #8
	.cfi_def_cfa_offset 16
	add	r7, sp, #8
	.cfi_def_cfa 7, 8
	.loc 1 143 0
	ldr	r1, .L54
	movs	r3, #1
	str	r3, [sp]
	movs	r3, #1
	movs	r2, #1
	movs	r0, #28
	bl	NVIC_RegisterIRQ
	movs	r3, r0
	.loc 1 144 0
	movs	r0, r3
	mov	sp, r7
	@ sp needed
	pop	{r7, pc}
.L55:
	.align	2
.L54:
	.word	LCDIF_ISR
	.cfi_endproc
.LFE12:
	.size	LCDIF_RegisterISR, .-LCDIF_RegisterISR
	.section	.text.LCDIF_UnregisterISR,"ax",%progbits
	.align	2
	.global	LCDIF_UnregisterISR
	.code	16
	.thumb_func
	.type	LCDIF_UnregisterISR, %function
LCDIF_UnregisterISR:
.LFB13:
	.loc 1 147 0
	.cfi_startproc
	@ args = 0, pretend = 0, frame = 0
	@ frame_needed = 1, uses_anonymous_args = 0
	push	{r7, lr}
	.cfi_def_cfa_offset 8
	.cfi_offset 7, -8
	.cfi_offset 14, -4
	add	r7, sp, #0
	.cfi_def_cfa_register 7
	.loc 1 148 0
	movs	r0, #28
	bl	NVIC_UnregisterIRQ
	movs	r3, r0
	.loc 1 149 0
	movs	r0, r3
	mov	sp, r7
	@ sp needed
	pop	{r7, pc}
	.cfi_endproc
.LFE13:
	.size	LCDIF_UnregisterISR, .-LCDIF_UnregisterISR
	.section	.text.LCDIF_DisableInterface,"ax",%progbits
	.align	2
	.global	LCDIF_DisableInterface
	.code	16
	.thumb_func
	.type	LCDIF_DisableInterface, %function
LCDIF_DisableInterface:
.LFB14:
	.loc 1 152 0
	.cfi_startproc
	@ args = 0, pretend = 0, frame = 8
	@ frame_needed = 1, uses_anonymous_args = 0
	push	{r7, lr}
	.cfi_def_cfa_offset 8
	.cfi_offset 7, -8
	.cfi_offset 14, -4
	sub	sp, sp, #8
	.cfi_def_cfa_offset 16
	add	r7, sp, #0
	.cfi_def_cfa_register 7
	.loc 1 153 0
	ldr	r3, .L63
	movs	r2, #0
	strb	r2, [r3, #20]
	.loc 1 155 0
	ldr	r3, .L63+4
	movs	r2, #0
	strh	r2, [r3]
	.loc 1 156 0
	ldr	r3, .L63+8
	movs	r2, #1
	strh	r2, [r3]
	.loc 1 158 0
	bl	LCDIF_UnregisterISR
	.loc 1 160 0
	bl	ILI9341_SleepLCD
.LBB4:
	.loc 1 161 0
	movs	r3, #0
	str	r3, [r7, #4]
	ldr	r3, [r7, #4]
	cmp	r3, #46
	bgt	.L59
	.loc 1 161 0 is_stmt 0 discriminator 1
	ldr	r3, [r7, #4]
	asrs	r3, r3, #4
	lsls	r3, r3, #2
	ldr	r2, .L63+12
	mov	ip, r2
	add	r3, r3, ip
	movs	r1, r3
	ldr	r3, [r7, #4]
	movs	r2, #15
	ands	r3, r2
	movs	r2, #1
	lsls	r2, r2, r3
	movs	r3, r2
	lsls	r3, r3, #16
	lsrs	r3, r3, #16
	strh	r3, [r1]
	b	.L60
.L59:
	.loc 1 161 0 discriminator 2
	ldr	r3, [r7, #4]
	cmp	r3, #52
	bgt	.L60
	.loc 1 161 0 discriminator 3
	ldr	r2, .L63+16
	ldr	r3, [r7, #4]
	movs	r1, #15
	ands	r3, r1
	movs	r1, #1
	lsls	r1, r1, r3
	movs	r3, r1
	lsls	r3, r3, #16
	lsrs	r3, r3, #16
	strh	r3, [r2]
.L60:
.LBE4:
.LBB5:
	.loc 1 162 0 is_stmt 1
	movs	r3, #7
	str	r3, [r7]
	ldr	r3, [r7]
	cmp	r3, #46
	bgt	.L61
	.loc 1 162 0 is_stmt 0 discriminator 1
	ldr	r3, [r7]
	asrs	r3, r3, #4
	lsls	r3, r3, #2
	ldr	r2, .L63+12
	mov	ip, r2
	add	r3, r3, ip
	movs	r1, r3
	ldr	r3, [r7]
	movs	r2, #15
	ands	r3, r2
	movs	r2, #1
	lsls	r2, r2, r3
	movs	r3, r2
	lsls	r3, r3, #16
	lsrs	r3, r3, #16
	strh	r3, [r1]
	b	.L62
.L61:
	.loc 1 162 0 discriminator 2
	ldr	r3, [r7]
	cmp	r3, #52
	bgt	.L62
	.loc 1 162 0 discriminator 3
	ldr	r2, .L63+16
	ldr	r3, [r7]
	movs	r1, #15
	ands	r3, r1
	movs	r1, #1
	lsls	r1, r1, r3
	movs	r3, r1
	lsls	r3, r3, #16
	lsrs	r3, r3, #16
	strh	r3, [r2]
.L62:
.LBE5:
	.loc 1 163 0 is_stmt 1
	ldr	r3, .L63+20
	ldr	r3, [r3]
	movs	r1, #1
	movs	r0, r3
	bl	DL_Delete
	movs	r2, r0
	ldr	r3, .L63+20
	str	r2, [r3]
	.loc 1 164 0
	nop
	mov	sp, r7
	add	sp, sp, #8
	@ sp needed
	pop	{r7, pc}
.L64:
	.align	2
.L63:
	.word	LCDScreen
	.word	-1606090748
	.word	-1606090740
	.word	-1610546416
	.word	-1603076084
	.word	LCDIFQueue
	.cfi_endproc
.LFE14:
	.size	LCDIF_DisableInterface, .-LCDIF_DisableInterface
	.section	.rodata
	.align	2
.LC12:
	.ascii	"Failed! (Insufficient memory)\015\000"
	.align	2
.LC15:
	.ascii	" Total used %uKiB\015\012\000"
	.align	2
.LC17:
	.ascii	"Failed! (Unable to register LCD ISR 0x%02X)\015\012"
	.ascii	"\000"
	.align	2
.LC19:
	.ascii	"Complete.\015\000"
	.align	2
.LC21:
	.ascii	"Failed! (Can't initialize LCD driver)\015\000"
	.section	.text.LCDIF_Initialize,"ax",%progbits
	.align	2
	.global	LCDIF_Initialize
	.code	16
	.thumb_func
	.type	LCDIF_Initialize, %function
LCDIF_Initialize:
.LFB15:
	.loc 1 167 0
	.cfi_startproc
	@ args = 0, pretend = 0, frame = 16
	@ frame_needed = 1, uses_anonymous_args = 0
	push	{r4, r7, lr}
	.cfi_def_cfa_offset 12
	.cfi_offset 4, -12
	.cfi_offset 7, -8
	.cfi_offset 14, -4
	sub	sp, sp, #28
	.cfi_def_cfa_offset 40
	add	r7, sp, #8
	.cfi_def_cfa 7, 32
	.loc 1 168 0
	ldr	r3, .L77
	movs	r2, #136
	movs	r1, #0
	movs	r0, r3
	bl	memset
	.loc 1 170 0
	movs	r3, #128
	lsls	r3, r3, #1
	movs	r1, r3
	movs	r0, #45
	bl	GPIO_Setup
	.loc 1 171 0
	movs	r3, #128
	lsls	r3, r3, #1
	movs	r1, r3
	movs	r0, #46
	bl	GPIO_Setup
	.loc 1 172 0
	movs	r3, #128
	lsls	r3, r3, #1
	movs	r1, r3
	movs	r0, #47
	bl	GPIO_Setup
	.loc 1 173 0
	movs	r3, #128
	lsls	r3, r3, #1
	movs	r1, r3
	movs	r0, #48
	bl	GPIO_Setup
	.loc 1 175 0
	movs	r0, #0
	bl	LCDIF_SetClock
.LBB6:
	.loc 1 176 0
	movs	r3, #7
	str	r3, [r7, #12]
	ldr	r3, [r7, #12]
	cmp	r3, #46
	bgt	.L66
	.loc 1 176 0 is_stmt 0 discriminator 1
	ldr	r3, [r7, #12]
	asrs	r3, r3, #4
	lsls	r3, r3, #2
	ldr	r2, .L77+4
	mov	ip, r2
	add	r3, r3, ip
	movs	r1, r3
	ldr	r3, [r7, #12]
	movs	r2, #15
	ands	r3, r2
	movs	r2, #1
	lsls	r2, r2, r3
	movs	r3, r2
	lsls	r3, r3, #16
	lsrs	r3, r3, #16
	strh	r3, [r1]
	b	.L67
.L66:
	.loc 1 176 0 discriminator 2
	ldr	r3, [r7, #12]
	cmp	r3, #52
	bgt	.L67
	.loc 1 176 0 discriminator 3
	ldr	r2, .L77+8
	ldr	r3, [r7, #12]
	movs	r1, #15
	ands	r3, r1
	movs	r1, #1
	lsls	r1, r1, r3
	movs	r3, r1
	lsls	r3, r3, #16
	lsrs	r3, r3, #16
	strh	r3, [r2]
.L67:
.LBE6:
.LBB7:
	.loc 1 177 0 is_stmt 1
	movs	r3, #0
	str	r3, [r7, #8]
	ldr	r3, [r7, #8]
	cmp	r3, #46
	bgt	.L68
	.loc 1 177 0 is_stmt 0 discriminator 1
	ldr	r3, [r7, #8]
	asrs	r3, r3, #4
	lsls	r3, r3, #2
	ldr	r2, .L77+4
	mov	ip, r2
	add	r3, r3, ip
	movs	r1, r3
	ldr	r3, [r7, #8]
	movs	r2, #15
	ands	r3, r2
	movs	r2, #1
	lsls	r2, r2, r3
	movs	r3, r2
	lsls	r3, r3, #16
	lsrs	r3, r3, #16
	strh	r3, [r1]
	b	.L69
.L68:
	.loc 1 177 0 discriminator 2
	ldr	r3, [r7, #8]
	cmp	r3, #52
	bgt	.L69
	.loc 1 177 0 discriminator 3
	ldr	r2, .L77+8
	ldr	r3, [r7, #8]
	movs	r1, #15
	ands	r3, r1
	movs	r1, #1
	lsls	r1, r1, r3
	movs	r3, r1
	lsls	r3, r3, #16
	lsrs	r3, r3, #16
	strh	r3, [r2]
.L69:
.LBE7:
	.loc 1 179 0 is_stmt 1
	ldr	r4, .L77
	movs	r0, r7
	movs	r3, #64
	adds	r3, r3, #255
	str	r3, [sp]
	movs	r3, #239
	movs	r2, #0
	movs	r1, #0
	bl	Rect
	movs	r3, r7
	movs	r0, r4
	movs	r1, r3
	movs	r3, #8
	movs	r2, r3
	bl	memcpy
	.loc 1 180 0
	ldr	r4, .L77
	movs	r1, #0
	movs	r0, #0
	bl	Point
	movs	r3, r0
	str	r3, [r4, #8]
	.loc 1 181 0
	ldr	r3, .L77
	movs	r2, #1
	str	r2, [r3, #12]
	.loc 1 182 0
	ldr	r3, .L77
	movs	r2, #0
	str	r2, [r3, #16]
	.loc 1 184 0
	ldr	r3, .L77
	movs	r2, #128
	lsls	r2, r2, #24
	str	r2, [r3, #40]
	.loc 1 185 0
	ldr	r3, .L77
	movs	r2, #128
	lsls	r2, r2, #23
	str	r2, [r3, #68]
	.loc 1 186 0
	ldr	r3, .L77
	movs	r2, #128
	lsls	r2, r2, #22
	str	r2, [r3, #96]
	.loc 1 187 0
	ldr	r3, .L77
	movs	r2, #128
	lsls	r2, r2, #21
	str	r2, [r3, #124]
	.loc 1 189 0
	ldr	r3, .L77+12
	movs	r2, #0
	strh	r2, [r3]
	.loc 1 190 0
	ldr	r3, .L77+16
	movs	r2, #1
	strh	r2, [r3]
	.loc 1 191 0
	ldr	r3, .L77+16
	movs	r2, #0
	strh	r2, [r3]
	.loc 1 193 0
	ldr	r3, .L77+20
	ldr	r3, [r3]
	cmp	r3, #0
	bne	.L70
	.loc 1 193 0 discriminator 1
	bl	DL_Create
	movs	r2, r0
	ldr	r3, .L77+20
	str	r2, [r3]
.L70:
	.loc 1 194 0
	ldr	r3, .L77+20
	ldr	r3, [r3]
	cmp	r3, #0
	beq	.L71
	.loc 1 194 0 discriminator 1
	bl	LCDIF_RegisterISR
	subs	r3, r0, #0
	bne	.L72
.L71:
	.loc 1 196 0
	ldr	r3, .L77+20
	ldr	r3, [r3]
	cmp	r3, #0
	bne	.L73
	.loc 1 198 0
	ldr	r3, .L77+24
	movs	r0, r3
	bl	puts
	.loc 1 198 0
	ldr	r3, .L77+28
	ldr	r3, [r3]
	ldr	r3, [r3, #8]
	.loc 1 198 0
	movs	r0, r3
	bl	fflush
	.loc 1 199 0
	bl	GetTotalUsedMemory
	movs	r3, r0
	lsrs	r2, r3, #10
	ldr	r3, .L77+32
	movs	r1, r2
	movs	r0, r3
	bl	printf
	.loc 1 199 0
	ldr	r3, .L77+28
	ldr	r3, [r3]
	ldr	r3, [r3, #8]
	.loc 1 199 0
	movs	r0, r3
	bl	fflush
	b	.L74
.L73:
	.loc 1 201 0
	ldr	r3, .L77+36
	movs	r1, #28
	movs	r0, r3
	bl	printf
	.loc 1 201 0
	ldr	r3, .L77+28
	ldr	r3, [r3]
	ldr	r3, [r3, #8]
	.loc 1 201 0
	movs	r0, r3
	bl	fflush
.L74:
	.loc 1 202 0
	bl	LCDIF_DisableInterface
	.loc 1 203 0
	movs	r3, #0
	b	.L75
.L72:
	.loc 1 206 0
	ldr	r3, .L77+40
	movs	r2, #0
	strh	r2, [r3]
	.loc 1 207 0
	movs	r3, #250
	lsls	r3, r3, #2
	movs	r0, r3
	bl	USC_Pause_us
	.loc 1 208 0
	ldr	r3, .L77+40
	movs	r2, #1
	strh	r2, [r3]
	.loc 1 210 0
	ldr	r3, .L77+44
	movs	r2, #0
	str	r2, [r3]
	.loc 1 211 0
	ldr	r3, .L77+48
	ldr	r2, .L77+52
	str	r2, [r3]
	.loc 1 213 0
	ldr	r3, .L77+56
	movs	r2, #33
	str	r2, [r3]
	.loc 1 214 0
	ldr	r3, .L77+60
	movs	r2, #128
	str	r2, [r3]
	.loc 1 215 0
	ldr	r3, .L77+64
	movs	r2, #144
	str	r2, [r3]
	.loc 1 216 0
	ldr	r3, .L77+68
	movs	r2, #0
	str	r2, [r3]
	.loc 1 217 0
	ldr	r3, .L77+72
	ldr	r2, .L77+76
	str	r2, [r3]
	.loc 1 218 0
	ldr	r3, .L77+80
	movs	r2, #255
	lsls	r2, r2, #24
	str	r2, [r3]
	.loc 1 220 0
	bl	ILI9341_Initialize
	subs	r3, r0, #0
	beq	.L76
	.loc 1 222 0
	ldr	r3, .L77+12
	movs	r2, #1
	strh	r2, [r3]
	.loc 1 223 0
	ldr	r3, .L77
	movs	r2, #1
	strb	r2, [r3, #20]
	.loc 1 224 0
	ldr	r3, .L77+84
	movs	r0, r3
	bl	puts
	.loc 1 224 0
	ldr	r3, .L77+28
	ldr	r3, [r3]
	ldr	r3, [r3, #8]
	.loc 1 224 0
	movs	r0, r3
	bl	fflush
	.loc 1 225 0
	movs	r3, #1
	b	.L75
.L76:
	.loc 1 228 0
	bl	LCDIF_DisableInterface
	.loc 1 229 0
	ldr	r3, .L77+88
	movs	r0, r3
	bl	puts
	.loc 1 229 0
	ldr	r3, .L77+28
	ldr	r3, [r3]
	ldr	r3, [r3, #8]
	.loc 1 229 0
	movs	r0, r3
	bl	fflush
	.loc 1 230 0
	movs	r3, #0
.L75:
	.loc 1 231 0
	movs	r0, r3
	mov	sp, r7
	add	sp, sp, #20
	@ sp needed
	pop	{r4, r7, pc}
.L78:
	.align	2
.L77:
	.word	LCDScreen
	.word	-1610546400
	.word	-1603076080
	.word	-1606090748
	.word	-1606090740
	.word	LCDIFQueue
	.word	.LC12
	.word	_impure_ptr
	.word	.LC15
	.word	.LC17
	.word	-1606090736
	.word	-1606090724
	.word	-1606090712
	.word	16777352
	.word	-1606090624
	.word	-1606090616
	.word	-1606090612
	.word	-1606090620
	.word	-1606090608
	.word	20971760
	.word	-1606090596
	.word	.LC19
	.word	.LC21
	.cfi_endproc
.LFE15:
	.size	LCDIF_Initialize, .-LCDIF_Initialize
	.section	.text.LCDIF_SetupLayer,"ax",%progbits
	.align	2
	.global	LCDIF_SetupLayer
	.code	16
	.thumb_func
	.type	LCDIF_SetupLayer, %function
LCDIF_SetupLayer:
.LFB16:
	.loc 1 235 0
	.cfi_startproc
	@ args = 12, pretend = 0, frame = 32
	@ frame_needed = 1, uses_anonymous_args = 0
	push	{r4, r5, r7, lr}
	.cfi_def_cfa_offset 16
	.cfi_offset 4, -16
	.cfi_offset 5, -12
	.cfi_offset 7, -8
	.cfi_offset 14, -4
	sub	sp, sp, #40
	.cfi_def_cfa_offset 56
	add	r7, sp, #8
	.cfi_def_cfa 7, 48
	movs	r4, r0
	movs	r0, #16
	adds	r0, r7, r0
	str	r1, [r0]
	str	r2, [r7, #12]
	str	r3, [r7, #8]
	movs	r3, #23
	adds	r3, r7, r3
	adds	r2, r4, #0
	strb	r2, [r3]
	.loc 1 236 0
	movs	r3, #23
	adds	r3, r7, r3
	ldrb	r3, [r3]
	cmp	r3, #3
	bls	.L80
	.loc 1 236 0 is_stmt 0 discriminator 1
	movs	r3, #0
	b	.L81
.L80:
	.loc 1 238 0 is_stmt 1
	movs	r3, #23
	adds	r3, r7, r3
	ldrb	r2, [r3]
	ldr	r1, .L86
	movs	r3, r2
	lsls	r3, r3, #3
	subs	r3, r3, r2
	lsls	r3, r3, #2
	adds	r3, r1, r3
	adds	r3, r3, #24
	movs	r2, #0
	strb	r2, [r3]
	.loc 1 239 0
	movs	r3, #23
	adds	r3, r7, r3
	ldrb	r2, [r3]
	ldr	r1, .L86
	movs	r3, r2
	lsls	r3, r3, #3
	subs	r3, r3, r2
	lsls	r3, r3, #2
	adds	r3, r1, r3
	adds	r3, r3, #25
	movs	r2, #0
	strb	r2, [r3]
	.loc 1 240 0
	ldr	r2, .L86+4
	ldr	r3, .L86+4
	ldr	r0, [r3]
	movs	r3, #23
	adds	r3, r7, r3
	ldrb	r1, [r3]
	ldr	r4, .L86
	movs	r3, r1
	lsls	r3, r3, #3
	subs	r3, r3, r1
	lsls	r3, r3, #2
	adds	r3, r4, r3
	adds	r3, r3, #40
	ldr	r3, [r3]
	mvns	r3, r3
	ands	r3, r0
	str	r3, [r2]
	.loc 1 241 0
	movs	r3, #23
	adds	r3, r7, r3
	ldrb	r2, [r3]
	ldr	r1, .L86
	movs	r3, r2
	lsls	r3, r3, #3
	subs	r3, r3, r2
	lsls	r3, r3, #2
	adds	r3, r1, r3
	adds	r3, r3, #48
	ldr	r3, [r3]
	cmp	r3, #0
	beq	.L82
	.loc 1 243 0
	movs	r3, #23
	adds	r3, r7, r3
	ldrb	r2, [r3]
	ldr	r1, .L86
	movs	r3, r2
	lsls	r3, r3, #3
	subs	r3, r3, r2
	lsls	r3, r3, #2
	adds	r3, r1, r3
	adds	r3, r3, #48
	ldr	r3, [r3]
	movs	r0, r3
	bl	free
	.loc 1 244 0
	movs	r3, #23
	adds	r3, r7, r3
	ldrb	r2, [r3]
	ldr	r1, .L86
	movs	r3, r2
	lsls	r3, r3, #3
	subs	r3, r3, r2
	lsls	r3, r3, #2
	adds	r3, r1, r3
	adds	r3, r3, #48
	movs	r2, #0
	str	r2, [r3]
.L82:
	.loc 1 247 0
	ldr	r3, [r7, #12]
	cmp	r3, #0
	bne	.LCB1275
	b	.L83	@long jump
.LCB1275:
	.loc 1 247 0 is_stmt 0 discriminator 1
	ldr	r3, [r7, #8]
	cmp	r3, #0
	bne	.LCB1278
	b	.L83	@long jump
.LCB1278:
	.loc 1 247 0 discriminator 2
	movs	r3, #48
	adds	r3, r7, r3
	ldrb	r3, [r3]
	cmp	r3, #6
	bls	.LCB1283
	b	.L83	@long jump
.LCB1283:
.LBB8:
	.loc 1 251 0 is_stmt 1
	movs	r3, #23
	adds	r3, r7, r3
	ldrb	r0, [r3]
	ldr	r3, [r7, #12]
	lsls	r3, r3, #16
	lsrs	r3, r3, #16
	subs	r3, r3, #1
	lsls	r3, r3, #16
	lsrs	r3, r3, #16
	lsls	r1, r3, #16
	asrs	r1, r1, #16
	ldr	r3, [r7, #8]
	lsls	r3, r3, #16
	lsrs	r3, r3, #16
	subs	r3, r3, #1
	lsls	r3, r3, #16
	lsrs	r3, r3, #16
	lsls	r2, r3, #16
	asrs	r2, r2, #16
	ldr	r4, .L86
	movs	r5, #24
	movs	r3, r0
	lsls	r3, r3, #3
	subs	r3, r3, r0
	lsls	r3, r3, #2
	adds	r3, r4, r3
	adds	r4, r3, r5
	movs	r5, #2
	movs	r0, r7
	str	r2, [sp]
	movs	r3, r1
	movs	r2, #0
	movs	r1, #0
	bl	Rect
	movs	r2, r7
	adds	r3, r4, r5
	movs	r1, r2
	movs	r2, #8
	movs	r0, r3
	bl	memcpy
	.loc 1 252 0
	movs	r3, #23
	adds	r3, r7, r3
	ldrb	r2, [r3]
	ldr	r1, .L86
	movs	r0, #32
	movs	r3, r2
	lsls	r3, r3, #3
	subs	r3, r3, r2
	lsls	r3, r3, #2
	adds	r3, r1, r3
	adds	r3, r3, r0
	movs	r2, #2
	movs	r1, #16
	adds	r1, r7, r1
	adds	r3, r3, r2
	movs	r2, #4
	movs	r0, r3
	bl	memcpy
	.loc 1 253 0
	movs	r3, #23
	adds	r3, r7, r3
	ldrb	r2, [r3]
	ldr	r1, .L86
	movs	r0, #45
	movs	r3, r2
	lsls	r3, r3, #3
	subs	r3, r3, r2
	lsls	r3, r3, #2
	adds	r3, r1, r3
	adds	r3, r3, r0
	movs	r2, #48
	adds	r2, r7, r2
	ldrb	r2, [r2]
	strb	r2, [r3]
	.loc 1 254 0
	movs	r3, #23
	adds	r3, r7, r3
	ldrb	r2, [r3]
	movs	r3, #48
	adds	r3, r7, r3
	ldrb	r3, [r3]
	ldr	r1, .L86+8
	ldrb	r4, [r1, r3]
	ldr	r1, .L86
	movs	r0, #44
	movs	r3, r2
	lsls	r3, r3, #3
	subs	r3, r3, r2
	lsls	r3, r3, #2
	adds	r3, r1, r3
	adds	r3, r3, r0
	adds	r2, r4, #0
	strb	r2, [r3]
	.loc 1 256 0
	ldr	r3, [r7, #12]
	ldr	r2, [r7, #8]
	movs	r1, r2
	muls	r1, r3
	movs	r3, #23
	adds	r3, r7, r3
	ldrb	r2, [r3]
	ldr	r0, .L86
	movs	r4, #44
	movs	r3, r2
	lsls	r3, r3, #3
	subs	r3, r3, r2
	lsls	r3, r3, #2
	adds	r3, r0, r3
	adds	r3, r3, r4
	ldrb	r3, [r3]
	muls	r3, r1
	str	r3, [r7, #28]
	.loc 1 257 0
	ldr	r3, [r7, #28]
	cmp	r3, #0
	bne	.LCB1395
	b	.L83	@long jump
.LCB1395:
	.loc 1 259 0
	movs	r3, #23
	adds	r3, r7, r3
	ldrb	r4, [r3]
	ldr	r3, [r7, #28]
	movs	r0, r3
	bl	malloc
	movs	r3, r0
	movs	r1, r3
	ldr	r2, .L86
	movs	r3, r4
	lsls	r3, r3, #3
	subs	r3, r3, r4
	lsls	r3, r3, #2
	adds	r3, r2, r3
	adds	r3, r3, #48
	str	r1, [r3]
	.loc 1 260 0
	movs	r3, #23
	adds	r3, r7, r3
	ldrb	r2, [r3]
	ldr	r1, .L86
	movs	r3, r2
	lsls	r3, r3, #3
	subs	r3, r3, r2
	lsls	r3, r3, #2
	adds	r3, r1, r3
	adds	r3, r3, #48
	ldr	r3, [r3]
	cmp	r3, #0
	bne	.LCB1424
	b	.L83	@long jump
.LCB1424:
	.loc 1 262 0
	movs	r3, #23
	adds	r3, r7, r3
	ldrb	r2, [r3]
	ldr	r3, .L86+12
	lsls	r2, r2, #2
	ldr	r3, [r2, r3]
	movs	r2, #48
	adds	r2, r7, r2
	ldrb	r2, [r2]
	lsls	r2, r2, #20
	movs	r1, r2
	movs	r2, #224
	lsls	r2, r2, #15
	ands	r2, r1
	str	r2, [r3]
	.loc 1 263 0
	movs	r3, #48
	adds	r3, r7, r3
	ldrb	r3, [r3]
	cmp	r3, #4
	beq	.L84
	.loc 1 263 0 is_stmt 0 discriminator 1
	movs	r3, #48
	adds	r3, r7, r3
	ldrb	r3, [r3]
	cmp	r3, #5
	beq	.L84
	.loc 1 263 0 discriminator 2
	movs	r3, #52
	adds	r3, r7, r3
	ldrb	r3, [r3]
	cmp	r3, #255
	beq	.L85
.L84:
	.loc 1 264 0 is_stmt 1
	movs	r3, #23
	adds	r3, r7, r3
	ldrb	r2, [r3]
	ldr	r3, .L86+12
	lsls	r2, r2, #2
	ldr	r3, [r2, r3]
	movs	r2, #23
	adds	r2, r7, r2
	ldrb	r1, [r2]
	ldr	r2, .L86+12
	lsls	r1, r1, #2
	ldr	r2, [r1, r2]
	ldr	r1, [r2]
	movs	r2, #52
	adds	r2, r7, r2
	ldrb	r2, [r2]
	orrs	r2, r1
	movs	r1, #128
	lsls	r1, r1, #1
	orrs	r2, r1
	str	r2, [r3]
.L85:
	.loc 1 266 0
	movs	r3, #23
	adds	r3, r7, r3
	ldrb	r2, [r3]
	ldr	r3, .L86+12
	lsls	r2, r2, #2
	ldr	r3, [r2, r3]
	movs	r2, #16
	adds	r2, r7, r2
	movs	r1, #0
	ldrsh	r2, [r2, r1]
	lsls	r2, r2, #16
	lsrs	r2, r2, #16
	lsls	r2, r2, #21
	lsrs	r1, r2, #21
	movs	r2, #16
	adds	r2, r7, r2
	movs	r0, #2
	ldrsh	r2, [r2, r0]
	lsls	r2, r2, #16
	lsrs	r2, r2, #16
	lsls	r2, r2, #16
	ldr	r0, .L86+16
	ands	r2, r0
	orrs	r2, r1
	str	r2, [r3, #8]
	.loc 1 267 0
	movs	r3, #23
	adds	r3, r7, r3
	ldrb	r2, [r3]
	ldr	r3, .L86+12
	lsls	r2, r2, #2
	ldr	r2, [r2, r3]
	movs	r3, #23
	adds	r3, r7, r3
	ldrb	r1, [r3]
	ldr	r0, .L86
	movs	r3, r1
	lsls	r3, r3, #3
	subs	r3, r3, r1
	lsls	r3, r3, #2
	adds	r3, r0, r3
	adds	r3, r3, #48
	ldr	r3, [r3]
	str	r3, [r2, #12]
	.loc 1 268 0
	movs	r3, #23
	adds	r3, r7, r3
	ldrb	r2, [r3]
	ldr	r3, .L86+12
	lsls	r2, r2, #2
	ldr	r3, [r2, r3]
	ldr	r2, [r7, #12]
	lsls	r2, r2, #21
	lsrs	r1, r2, #21
	ldr	r2, [r7, #8]
	lsls	r2, r2, #16
	ldr	r0, .L86+16
	ands	r2, r0
	orrs	r2, r1
	str	r2, [r3, #16]
	.loc 1 269 0
	movs	r3, #23
	adds	r3, r7, r3
	ldrb	r2, [r3]
	ldr	r3, .L86+12
	lsls	r2, r2, #2
	ldr	r3, [r2, r3]
	movs	r2, #0
	str	r2, [r3, #20]
	.loc 1 270 0
	movs	r3, #23
	adds	r3, r7, r3
	ldrb	r2, [r3]
	ldr	r3, .L86+12
	lsls	r2, r2, #2
	ldr	r3, [r2, r3]
	movs	r2, #0
	str	r2, [r3, #24]
	.loc 1 271 0
	movs	r3, #23
	adds	r3, r7, r3
	ldrb	r2, [r3]
	ldr	r3, .L86+12
	lsls	r2, r2, #2
	ldr	r1, [r2, r3]
	movs	r3, #23
	adds	r3, r7, r3
	ldrb	r2, [r3]
	ldr	r0, .L86
	movs	r4, #44
	movs	r3, r2
	lsls	r3, r3, #3
	subs	r3, r3, r2
	lsls	r3, r3, #2
	adds	r3, r0, r3
	adds	r3, r3, r4
	ldrb	r3, [r3]
	lsls	r3, r3, #16
	lsrs	r3, r3, #16
	ldr	r2, [r7, #12]
	lsls	r2, r2, #16
	lsrs	r2, r2, #16
	muls	r3, r2
	lsls	r3, r3, #16
	lsrs	r3, r3, #16
	strh	r3, [r1, #28]
	.loc 1 273 0
	movs	r3, #23
	adds	r3, r7, r3
	ldrb	r2, [r3]
	ldr	r1, .L86
	movs	r3, r2
	lsls	r3, r3, #3
	subs	r3, r3, r2
	lsls	r3, r3, #2
	adds	r3, r1, r3
	adds	r3, r3, #25
	movs	r2, #1
	strb	r2, [r3]
.L83:
.LBE8:
	.loc 1 277 0
	movs	r3, #23
	adds	r3, r7, r3
	ldrb	r2, [r3]
	ldr	r1, .L86
	movs	r3, r2
	lsls	r3, r3, #3
	subs	r3, r3, r2
	lsls	r3, r3, #2
	adds	r3, r1, r3
	adds	r3, r3, #25
	ldrb	r3, [r3]
.L81:
	.loc 1 278 0
	movs	r0, r3
	mov	sp, r7
	add	sp, sp, #32
	@ sp needed
	pop	{r4, r5, r7, pc}
.L87:
	.align	2
.L86:
	.word	LCDScreen
	.word	-1606090624
	.word	CFormatToBPP
	.word	LCDIF_LAYER
	.word	134152192
	.cfi_endproc
.LFE16:
	.size	LCDIF_SetupLayer, .-LCDIF_SetupLayer
	.section	.text.LCDIF_SetLayerEnabled,"ax",%progbits
	.align	2
	.global	LCDIF_SetLayerEnabled
	.code	16
	.thumb_func
	.type	LCDIF_SetLayerEnabled, %function
LCDIF_SetLayerEnabled:
.LFB17:
	.loc 1 281 0
	.cfi_startproc
	@ args = 0, pretend = 0, frame = 16
	@ frame_needed = 1, uses_anonymous_args = 0
	push	{r4, r7, lr}
	.cfi_def_cfa_offset 12
	.cfi_offset 4, -12
	.cfi_offset 7, -8
	.cfi_offset 14, -4
	sub	sp, sp, #20
	.cfi_def_cfa_offset 32
	add	r7, sp, #0
	.cfi_def_cfa_register 7
	movs	r4, r0
	movs	r0, r1
	movs	r1, r2
	adds	r3, r7, #7
	adds	r2, r4, #0
	strb	r2, [r3]
	adds	r3, r7, #6
	adds	r2, r0, #0
	strb	r2, [r3]
	adds	r3, r7, #5
	adds	r2, r1, #0
	strb	r2, [r3]
	.loc 1 284 0
	adds	r3, r7, #7
	ldrb	r3, [r3]
	cmp	r3, #3
	bhi	.L89
	.loc 1 284 0 is_stmt 0 discriminator 2
	adds	r3, r7, #7
	ldrb	r2, [r3]
	ldr	r1, .L96
	movs	r3, r2
	lsls	r3, r3, #3
	subs	r3, r3, r2
	lsls	r3, r3, #2
	adds	r3, r1, r3
	adds	r3, r3, #25
	ldrb	r3, [r3]
	cmp	r3, #0
	bne	.L90
.L89:
	.loc 1 284 0 discriminator 3
	movs	r3, #0
	b	.L95
.L90:
	.loc 1 286 0 is_stmt 1
	adds	r3, r7, #7
	ldrb	r2, [r3]
	ldr	r1, .L96
	movs	r3, r2
	lsls	r3, r3, #3
	subs	r3, r3, r2
	lsls	r3, r3, #2
	adds	r3, r1, r3
	adds	r3, r3, #24
	ldrb	r3, [r3]
	adds	r2, r7, #6
	ldrb	r2, [r2]
	cmp	r2, r3
	bne	.LCB1689
	b	.L92	@long jump
.LCB1689:
	.loc 1 288 0
	adds	r3, r7, #6
	ldrb	r3, [r3]
	cmp	r3, #0
	beq	.L93
	.loc 1 288 0 is_stmt 0 discriminator 1
	ldr	r2, .L96+4
	ldr	r3, .L96+4
	ldr	r0, [r3]
	adds	r3, r7, #7
	ldrb	r1, [r3]
	ldr	r4, .L96
	movs	r3, r1
	lsls	r3, r3, #3
	subs	r3, r3, r1
	lsls	r3, r3, #2
	adds	r3, r4, r3
	adds	r3, r3, #40
	ldr	r3, [r3]
	orrs	r3, r0
	str	r3, [r2]
	b	.L94
.L93:
	.loc 1 289 0 is_stmt 1
	ldr	r2, .L96+4
	ldr	r3, .L96+4
	ldr	r0, [r3]
	adds	r3, r7, #7
	ldrb	r1, [r3]
	ldr	r4, .L96
	movs	r3, r1
	lsls	r3, r3, #3
	subs	r3, r3, r1
	lsls	r3, r3, #2
	adds	r3, r4, r3
	adds	r3, r3, #40
	ldr	r3, [r3]
	mvns	r3, r3
	ands	r3, r0
	str	r3, [r2]
.L94:
	.loc 1 291 0
	adds	r3, r7, #7
	ldrb	r2, [r3]
	ldr	r1, .L96
	movs	r3, r2
	lsls	r3, r3, #3
	subs	r3, r3, r2
	lsls	r3, r3, #2
	adds	r3, r1, r3
	adds	r3, r3, #24
	adds	r2, r7, #6
	ldrb	r2, [r2]
	strb	r2, [r3]
	.loc 1 293 0
	adds	r3, r7, #5
	ldrb	r3, [r3]
	cmp	r3, #0
	bne	.LCB1746
	b	.L92	@long jump
.LCB1746:
	.loc 1 295 0
	adds	r3, r7, #7
	ldrb	r2, [r3]
	movs	r3, #8
	adds	r4, r7, r3
	ldr	r1, .L96
	movs	r0, #24
	movs	r3, r2
	lsls	r3, r3, #3
	subs	r3, r3, r2
	lsls	r3, r3, #2
	adds	r3, r1, r3
	adds	r3, r3, r0
	movs	r2, #2
	movs	r0, r4
	adds	r3, r3, r2
	movs	r2, #8
	movs	r1, r3
	bl	memcpy
	.loc 1 296 0
	movs	r3, #8
	adds	r3, r7, r3
	movs	r2, #0
	ldrsh	r3, [r3, r2]
	lsls	r3, r3, #16
	lsrs	r1, r3, #16
	adds	r3, r7, #7
	ldrb	r2, [r3]
	ldr	r0, .L96
	movs	r3, r2
	lsls	r3, r3, #3
	subs	r3, r3, r2
	lsls	r3, r3, #2
	adds	r3, r0, r3
	adds	r3, r3, #34
	movs	r2, #0
	ldrsh	r3, [r3, r2]
	lsls	r3, r3, #16
	lsrs	r2, r3, #16
	ldr	r3, .L96
	movs	r0, #8
	ldrsh	r3, [r3, r0]
	lsls	r3, r3, #16
	lsrs	r3, r3, #16
	subs	r3, r2, r3
	lsls	r3, r3, #16
	lsrs	r3, r3, #16
	adds	r3, r1, r3
	lsls	r3, r3, #16
	lsrs	r3, r3, #16
	lsls	r3, r3, #16
	asrs	r3, r3, #16
	movs	r2, #8
	adds	r2, r7, r2
	strh	r3, [r2]
	.loc 1 297 0
	movs	r3, #8
	adds	r3, r7, r3
	movs	r2, #4
	ldrsh	r3, [r3, r2]
	lsls	r3, r3, #16
	lsrs	r1, r3, #16
	adds	r3, r7, #7
	ldrb	r2, [r3]
	ldr	r0, .L96
	movs	r3, r2
	lsls	r3, r3, #3
	subs	r3, r3, r2
	lsls	r3, r3, #2
	adds	r3, r0, r3
	adds	r3, r3, #34
	movs	r2, #0
	ldrsh	r3, [r3, r2]
	lsls	r3, r3, #16
	lsrs	r2, r3, #16
	ldr	r3, .L96
	movs	r0, #8
	ldrsh	r3, [r3, r0]
	lsls	r3, r3, #16
	lsrs	r3, r3, #16
	subs	r3, r2, r3
	lsls	r3, r3, #16
	lsrs	r3, r3, #16
	adds	r3, r1, r3
	lsls	r3, r3, #16
	lsrs	r3, r3, #16
	lsls	r3, r3, #16
	asrs	r3, r3, #16
	movs	r2, #8
	adds	r2, r7, r2
	strh	r3, [r2, #4]
	.loc 1 298 0
	movs	r3, #8
	adds	r3, r7, r3
	movs	r2, #2
	ldrsh	r3, [r3, r2]
	lsls	r3, r3, #16
	lsrs	r1, r3, #16
	adds	r3, r7, #7
	ldrb	r2, [r3]
	ldr	r0, .L96
	movs	r3, r2
	lsls	r3, r3, #3
	subs	r3, r3, r2
	lsls	r3, r3, #2
	adds	r3, r0, r3
	adds	r3, r3, #36
	movs	r2, #0
	ldrsh	r3, [r3, r2]
	lsls	r3, r3, #16
	lsrs	r2, r3, #16
	ldr	r3, .L96
	movs	r0, #10
	ldrsh	r3, [r3, r0]
	lsls	r3, r3, #16
	lsrs	r3, r3, #16
	subs	r3, r2, r3
	lsls	r3, r3, #16
	lsrs	r3, r3, #16
	adds	r3, r1, r3
	lsls	r3, r3, #16
	lsrs	r3, r3, #16
	lsls	r3, r3, #16
	asrs	r3, r3, #16
	movs	r2, #8
	adds	r2, r7, r2
	strh	r3, [r2, #2]
	.loc 1 299 0
	movs	r3, #8
	adds	r3, r7, r3
	movs	r2, #6
	ldrsh	r3, [r3, r2]
	lsls	r3, r3, #16
	lsrs	r1, r3, #16
	adds	r3, r7, #7
	ldrb	r2, [r3]
	ldr	r0, .L96
	movs	r3, r2
	lsls	r3, r3, #3
	subs	r3, r3, r2
	lsls	r3, r3, #2
	adds	r3, r0, r3
	adds	r3, r3, #36
	movs	r2, #0
	ldrsh	r3, [r3, r2]
	lsls	r3, r3, #16
	lsrs	r2, r3, #16
	ldr	r3, .L96
	movs	r0, #10
	ldrsh	r3, [r3, r0]
	lsls	r3, r3, #16
	lsrs	r3, r3, #16
	subs	r3, r2, r3
	lsls	r3, r3, #16
	lsrs	r3, r3, #16
	adds	r3, r1, r3
	lsls	r3, r3, #16
	lsrs	r3, r3, #16
	lsls	r3, r3, #16
	asrs	r3, r3, #16
	movs	r2, #8
	adds	r2, r7, r2
	strh	r3, [r2, #6]
	.loc 1 300 0
	ldr	r2, .L96
	movs	r3, #8
	adds	r3, r7, r3
	movs	r1, r2
	movs	r0, r3
	bl	GDI_ANDRectangles
	subs	r3, r0, #0
	beq	.L92
	.loc 1 301 0
	movs	r3, #8
	adds	r3, r7, r3
	ldr	r0, [r3]
	ldr	r1, [r3, #4]
	bl	LCDIF_UpdateRectangle
.L92:
	.loc 1 304 0
	adds	r3, r7, #7
	ldrb	r2, [r3]
	ldr	r1, .L96
	movs	r3, r2
	lsls	r3, r3, #3
	subs	r3, r3, r2
	lsls	r3, r3, #2
	adds	r3, r1, r3
	adds	r3, r3, #24
	ldrb	r3, [r3]
.L95:
	.loc 1 305 0 discriminator 1
	movs	r0, r3
	mov	sp, r7
	add	sp, sp, #20
	@ sp needed
	pop	{r4, r7, pc}
.L97:
	.align	2
.L96:
	.word	LCDScreen
	.word	-1606090624
	.cfi_endproc
.LFE17:
	.size	LCDIF_SetLayerEnabled, .-LCDIF_SetLayerEnabled
	.section	.text.LCDIF_GetLayerPosition,"ax",%progbits
	.align	2
	.global	LCDIF_GetLayerPosition
	.code	16
	.thumb_func
	.type	LCDIF_GetLayerPosition, %function
LCDIF_GetLayerPosition:
.LFB18:
	.loc 1 308 0
	.cfi_startproc
	@ args = 0, pretend = 0, frame = 16
	@ frame_needed = 1, uses_anonymous_args = 0
	push	{r4, r7, lr}
	.cfi_def_cfa_offset 12
	.cfi_offset 4, -12
	.cfi_offset 7, -8
	.cfi_offset 14, -4
	sub	sp, sp, #20
	.cfi_def_cfa_offset 32
	add	r7, sp, #0
	.cfi_def_cfa_register 7
	movs	r2, r0
	str	r1, [r7, #8]
	movs	r3, #15
	adds	r3, r7, r3
	strb	r2, [r3]
	.loc 1 309 0
	movs	r3, #15
	adds	r3, r7, r3
	ldrb	r3, [r3]
	cmp	r3, #3
	bhi	.L99
	.loc 1 309 0 is_stmt 0 discriminator 2
	movs	r3, #15
	adds	r3, r7, r3
	ldrb	r2, [r3]
	ldr	r1, .L103
	movs	r3, r2
	lsls	r3, r3, #3
	subs	r3, r3, r2
	lsls	r3, r3, #2
	adds	r3, r1, r3
	adds	r3, r3, #25
	ldrb	r3, [r3]
	cmp	r3, #0
	bne	.L100
.L99:
	.loc 1 309 0 discriminator 3
	movs	r3, #0
	b	.L101
.L100:
	.loc 1 311 0 is_stmt 1
	ldr	r3, [r7, #8]
	cmp	r3, #0
	beq	.L102
	.loc 1 312 0
	movs	r3, #15
	adds	r3, r7, r3
	ldrb	r2, [r3]
	movs	r3, r2
	lsls	r3, r3, #3
	subs	r3, r3, r2
	lsls	r3, r3, #2
	adds	r3, r3, #24
	movs	r2, r3
	ldr	r3, .L103
	adds	r3, r2, r3
	adds	r1, r3, #2
	.loc 1 313 0
	movs	r3, #15
	adds	r3, r7, r3
	ldrb	r2, [r3]
	movs	r3, r2
	lsls	r3, r3, #3
	subs	r3, r3, r2
	lsls	r3, r3, #2
	adds	r3, r3, #32
	movs	r2, r3
	ldr	r3, .L103
	adds	r3, r2, r3
	adds	r2, r3, #2
	.loc 1 312 0
	ldr	r4, [r7, #8]
	movs	r3, r7
	movs	r0, r3
	bl	GDI_LocalToGlobalRct
	movs	r3, r7
	movs	r0, r4
	movs	r1, r3
	movs	r3, #8
	movs	r2, r3
	bl	memcpy
.L102:
	.loc 1 314 0
	movs	r3, #1
.L101:
	.loc 1 315 0
	movs	r0, r3
	mov	sp, r7
	add	sp, sp, #20
	@ sp needed
	pop	{r4, r7, pc}
.L104:
	.align	2
.L103:
	.word	LCDScreen
	.cfi_endproc
.LFE18:
	.size	LCDIF_GetLayerPosition, .-LCDIF_GetLayerPosition
	.section	.text.LCDIF_SetLayerPosition,"ax",%progbits
	.align	2
	.global	LCDIF_SetLayerPosition
	.code	16
	.thumb_func
	.type	LCDIF_SetLayerPosition, %function
LCDIF_SetLayerPosition:
.LFB19:
	.loc 1 318 0
	.cfi_startproc
	@ args = 0, pretend = 0, frame = 80
	@ frame_needed = 1, uses_anonymous_args = 0
	push	{r4, r7, lr}
	.cfi_def_cfa_offset 12
	.cfi_offset 4, -12
	.cfi_offset 7, -8
	.cfi_offset 14, -4
	sub	sp, sp, #84
	.cfi_def_cfa_offset 96
	add	r7, sp, #0
	.cfi_def_cfa_register 7
	movs	r4, r0
	adds	r0, r7, #4
	str	r1, [r0]
	str	r2, [r0, #4]
	movs	r1, r3
	movs	r3, #15
	adds	r3, r7, r3
	adds	r2, r4, #0
	strb	r2, [r3]
	movs	r3, #14
	adds	r3, r7, r3
	adds	r2, r1, #0
	strb	r2, [r3]
	.loc 1 319 0
	movs	r3, #15
	adds	r3, r7, r3
	ldrb	r3, [r3]
	cmp	r3, #3
	bls	.LCB2072
	b	.L106	@long jump
.LCB2072:
	.loc 1 319 0 is_stmt 0 discriminator 1
	movs	r3, #15
	adds	r3, r7, r3
	ldrb	r2, [r3]
	ldr	r1, .L120
	movs	r3, r2
	lsls	r3, r3, #3
	subs	r3, r3, r2
	lsls	r3, r3, #2
	adds	r3, r1, r3
	adds	r3, r3, #25
	ldrb	r3, [r3]
	cmp	r3, #0
	bne	.LCB2085
	b	.L106	@long jump
.LCB2085:
	.loc 1 320 0 is_stmt 1 discriminator 2
	adds	r3, r7, #4
	movs	r2, #0
	ldrsh	r3, [r3, r2]
	.loc 1 319 0 discriminator 2
	cmp	r3, #0
	bge	.LCB2089
	b	.L106	@long jump
.LCB2089:
	.loc 1 320 0
	adds	r3, r7, #4
	movs	r2, #2
	ldrsh	r3, [r3, r2]
	cmp	r3, #0
	bge	.LCB2093
	b	.L106	@long jump
.LCB2093:
	.loc 1 321 0 discriminator 1
	adds	r3, r7, #4
	movs	r2, #4
	ldrsh	r3, [r3, r2]
	.loc 1 320 0 discriminator 1
	cmp	r3, #0
	bge	.LCB2097
	b	.L106	@long jump
.LCB2097:
	.loc 1 321 0
	adds	r3, r7, #4
	movs	r2, #6
	ldrsh	r3, [r3, r2]
	cmp	r3, #0
	bge	.LCB2101
	b	.L106	@long jump
.LCB2101:
.LBB9:
	.loc 1 323 0
	movs	r3, #15
	adds	r3, r7, r3
	ldrb	r2, [r3]
	movs	r3, r2
	lsls	r3, r3, #3
	subs	r3, r3, r2
	lsls	r3, r3, #2
	adds	r3, r3, #24
	movs	r2, r3
	ldr	r3, .L120
	adds	r3, r2, r3
	str	r3, [r7, #68]
	.loc 1 324 0
	ldr	r3, [r7, #68]
	adds	r1, r3, #2
	ldr	r3, [r7, #68]
	adds	r3, r3, #10
	movs	r2, r3
	movs	r3, #24
	adds	r3, r7, r3
	movs	r0, r3
	bl	GDI_LocalToGlobalRct
	.loc 1 326 0
	adds	r1, r7, #4
	movs	r3, #24
	adds	r3, r7, r3
	movs	r2, #8
	movs	r0, r3
	bl	memcmp
	subs	r3, r0, #0
	bne	.LCB2132
	b	.L107	@long jump
.LCB2132:
.LBB10:
	.loc 1 329 0
	ldr	r3, [r7, #68]
	movs	r2, #6
	ldrsh	r3, [r3, r2]
	movs	r2, r3
	ldr	r3, [r7, #68]
	movs	r1, #2
	ldrsh	r3, [r3, r1]
	subs	r2, r2, r3
	adds	r3, r7, #4
	movs	r1, #4
	ldrsh	r3, [r3, r1]
	movs	r1, r3
	adds	r3, r7, #4
	movs	r0, #0
	ldrsh	r3, [r3, r0]
	subs	r3, r1, r3
	subs	r3, r2, r3
	subs	r2, r3, #1
	sbcs	r3, r3, r2
	lsls	r3, r3, #24
	lsrs	r2, r3, #24
	movs	r3, #67
	adds	r3, r7, r3
	strb	r2, [r3]
	.loc 1 330 0
	ldr	r3, [r7, #68]
	movs	r2, #8
	ldrsh	r3, [r3, r2]
	movs	r2, r3
	ldr	r3, [r7, #68]
	movs	r1, #4
	ldrsh	r3, [r3, r1]
	subs	r2, r2, r3
	adds	r3, r7, #4
	movs	r1, #6
	ldrsh	r3, [r3, r1]
	movs	r1, r3
	adds	r3, r7, #4
	movs	r0, #2
	ldrsh	r3, [r3, r0]
	subs	r3, r1, r3
	subs	r3, r2, r3
	subs	r2, r3, #1
	sbcs	r3, r3, r2
	lsls	r3, r3, #24
	lsrs	r2, r3, #24
	movs	r3, #66
	adds	r3, r7, r3
	strb	r2, [r3]
	.loc 1 331 0
	movs	r3, #16
	adds	r3, r7, r3
	adds	r2, r7, #4
	adds	r1, r7, #4
	movs	r0, r3
	bl	GDI_GlobalToLocalRct
	.loc 1 332 0
	ldr	r3, [r7, #68]
	movs	r2, #6
	ldrsh	r3, [r3, r2]
	adds	r3, r3, #1
	ldr	r2, [r7, #68]
	movs	r1, #8
	ldrsh	r2, [r2, r1]
	adds	r2, r2, #1
	muls	r3, r2
	ldr	r2, [r7, #68]
	ldrb	r2, [r2, #20]
	muls	r3, r2
	str	r3, [r7, #60]
	.loc 1 333 0
	movs	r3, #16
	adds	r3, r7, r3
	movs	r2, #4
	ldrsh	r3, [r3, r2]
	adds	r3, r3, #1
	movs	r2, #16
	adds	r2, r7, r2
	movs	r1, #6
	ldrsh	r2, [r2, r1]
	adds	r2, r2, #1
	muls	r3, r2
	ldr	r2, [r7, #68]
	ldrb	r2, [r2, #20]
	muls	r3, r2
	str	r3, [r7, #56]
	.loc 1 335 0
	nop
.L108:
	.loc 1 335 0 is_stmt 0 discriminator 3
	ldr	r3, .L120+4
	ldr	r3, [r3]
	movs	r0, r3
	bl	DL_GetItemsCount
	subs	r3, r0, #0
	bne	.L108
	.loc 1 335 0 discriminator 2
	bl	LCDIF_IsQueueRunning
	subs	r3, r0, #0
	bne	.L108
	.loc 1 337 0 is_stmt 1
	bl	__disable_interrupts
	movs	r3, r0
	str	r3, [r7, #52]
	.loc 1 339 0
	ldr	r2, [r7, #60]
	ldr	r3, [r7, #56]
	cmp	r2, r3
	beq	.L109
.LBB11:
	.loc 1 343 0
	movs	r3, #67
	adds	r3, r7, r3
	ldrb	r3, [r3]
	cmp	r3, #0
	beq	.L110
	.loc 1 343 0 is_stmt 0 discriminator 1
	ldr	r3, [r7, #56]
	movs	r0, r3
	bl	malloc
	movs	r3, r0
	str	r3, [r7, #76]
	b	.L111
.L110:
	.loc 1 344 0 is_stmt 1
	ldr	r3, [r7, #68]
	ldr	r3, [r3, #24]
	ldr	r2, [r7, #56]
	movs	r1, r2
	movs	r0, r3
	bl	realloc
	movs	r3, r0
	str	r3, [r7, #76]
.L111:
	.loc 1 346 0
	ldr	r3, [r7, #76]
	cmp	r3, #0
	bne	.L112
	.loc 1 346 0 discriminator 1
	movs	r3, #0
	b	.L119
.L112:
	.loc 1 347 0
	movs	r3, #67
	adds	r3, r7, r3
	ldrb	r3, [r3]
	cmp	r3, #0
	beq	.L114
	.loc 1 347 0 is_stmt 0 discriminator 1
	ldr	r3, [r7, #68]
	ldr	r3, [r3, #24]
	movs	r0, r3
	bl	free
.L114:
	.loc 1 348 0 is_stmt 1
	ldr	r3, [r7, #68]
	ldr	r2, [r7, #76]
	str	r2, [r3, #24]
.L109:
.LBE11:
	.loc 1 351 0
	ldr	r3, [r7, #68]
	movs	r2, #10
	adds	r1, r7, #4
	adds	r3, r3, r2
	movs	r2, #4
	movs	r0, r3
	bl	memcpy
	.loc 1 352 0
	ldr	r3, [r7, #68]
	movs	r2, #2
	movs	r1, #16
	adds	r1, r7, r1
	adds	r3, r3, r2
	movs	r2, #8
	movs	r0, r3
	bl	memcpy
	.loc 1 354 0
	movs	r3, #15
	adds	r3, r7, r3
	ldrb	r2, [r3]
	ldr	r3, .L120+8
	lsls	r2, r2, #2
	ldr	r3, [r2, r3]
	ldr	r2, [r7, #68]
	movs	r1, #10
	ldrsh	r2, [r2, r1]
	lsls	r2, r2, #16
	lsrs	r2, r2, #16
	lsls	r2, r2, #21
	lsrs	r1, r2, #21
	.loc 1 355 0
	ldr	r2, [r7, #68]
	movs	r0, #12
	ldrsh	r2, [r2, r0]
	lsls	r2, r2, #16
	lsrs	r2, r2, #16
	lsls	r2, r2, #16
	ldr	r0, .L120+12
	ands	r2, r0
	.loc 1 354 0
	orrs	r2, r1
	str	r2, [r3, #8]
	.loc 1 356 0
	movs	r3, #15
	adds	r3, r7, r3
	ldrb	r2, [r3]
	ldr	r3, .L120+8
	lsls	r2, r2, #2
	ldr	r3, [r2, r3]
	ldr	r2, [r7, #68]
	ldr	r2, [r2, #24]
	str	r2, [r3, #12]
	.loc 1 357 0
	movs	r3, #15
	adds	r3, r7, r3
	ldrb	r2, [r3]
	ldr	r3, .L120+8
	lsls	r2, r2, #2
	ldr	r3, [r2, r3]
	ldr	r2, [r7, #68]
	movs	r1, #6
	ldrsh	r2, [r2, r1]
	adds	r2, r2, #1
	lsls	r2, r2, #21
	lsrs	r1, r2, #21
	.loc 1 358 0
	ldr	r2, [r7, #68]
	movs	r0, #8
	ldrsh	r2, [r2, r0]
	adds	r2, r2, #1
	lsls	r2, r2, #16
	ldr	r0, .L120+12
	ands	r2, r0
	.loc 1 357 0
	orrs	r2, r1
	str	r2, [r3, #16]
	.loc 1 359 0
	movs	r3, #15
	adds	r3, r7, r3
	ldrb	r2, [r3]
	ldr	r3, .L120+8
	lsls	r2, r2, #2
	ldr	r3, [r2, r3]
	ldr	r2, [r7, #68]
	ldrb	r2, [r2, #20]
	lsls	r2, r2, #16
	lsrs	r2, r2, #16
	ldr	r1, [r7, #68]
	movs	r0, #6
	ldrsh	r1, [r1, r0]
	adds	r1, r1, #1
	lsls	r1, r1, #16
	lsrs	r1, r1, #16
	muls	r2, r1
	lsls	r2, r2, #16
	lsrs	r2, r2, #16
	strh	r2, [r3, #28]
	.loc 1 361 0
	ldr	r3, [r7, #52]
	movs	r0, r3
	bl	__restore_interrupts
	.loc 1 363 0
	movs	r3, #14
	adds	r3, r7, r3
	ldrb	r3, [r3]
	cmp	r3, #0
	beq	.L107
	.loc 1 363 0 is_stmt 0 discriminator 1
	ldr	r3, [r7, #68]
	ldrb	r3, [r3]
	cmp	r3, #0
	beq	.L107
.LBB12:
	.loc 1 365 0 is_stmt 1
	adds	r2, r7, #4
	movs	r3, #24
	adds	r3, r7, r3
	movs	r1, r2
	movs	r0, r3
	bl	GDI_SUBRectangles
	movs	r3, r0
	str	r3, [r7, #48]
	.loc 1 367 0
	movs	r3, #67
	adds	r3, r7, r3
	ldrb	r3, [r3]
	cmp	r3, #0
	bne	.L116
	.loc 1 367 0 is_stmt 0 discriminator 1
	movs	r3, #66
	adds	r3, r7, r3
	ldrb	r3, [r3]
	cmp	r3, #0
	bne	.L116
	.loc 1 368 0 is_stmt 1
	movs	r3, #32
	adds	r3, r7, r3
	ldr	r2, .L120+16
	adds	r1, r7, #4
	movs	r0, r3
	bl	GDI_GlobalToLocalRct
	movs	r3, #32
	adds	r3, r7, r3
	ldr	r0, [r3]
	ldr	r1, [r3, #4]
	bl	LCDIF_UpdateRectangle
.L116:
	.loc 1 369 0
	ldr	r3, [r7, #48]
	cmp	r3, #0
	beq	.L107
.LBB13:
	.loc 1 373 0
	movs	r3, #0
	str	r3, [r7, #72]
	b	.L117
.L118:
	.loc 1 374 0 discriminator 3
	ldr	r3, [r7, #72]
	lsls	r3, r3, #3
	ldr	r2, [r7, #48]
	adds	r3, r2, r3
	adds	r1, r3, #4
	movs	r3, #40
	adds	r3, r7, r3
	ldr	r2, .L120+16
	movs	r0, r3
	bl	GDI_GlobalToLocalRct
	movs	r3, #40
	adds	r3, r7, r3
	ldr	r0, [r3]
	ldr	r1, [r3, #4]
	bl	LCDIF_UpdateRectangle
	.loc 1 373 0 discriminator 3
	ldr	r3, [r7, #72]
	adds	r3, r3, #1
	str	r3, [r7, #72]
.L117:
	.loc 1 373 0 is_stmt 0 discriminator 1
	ldr	r3, [r7, #48]
	ldr	r2, [r3]
	ldr	r3, [r7, #72]
	cmp	r2, r3
	bhi	.L118
	.loc 1 377 0 is_stmt 1
	ldr	r3, [r7, #48]
	movs	r0, r3
	bl	GDI_DeleteRList
.L107:
.LBE13:
.LBE12:
.LBE10:
	.loc 1 381 0
	movs	r3, #1
	b	.L119
.L106:
.LBE9:
	.loc 1 383 0
	movs	r3, #0
.L119:
	.loc 1 384 0 discriminator 1
	movs	r0, r3
	mov	sp, r7
	add	sp, sp, #84
	@ sp needed
	pop	{r4, r7, pc}
.L121:
	.align	2
.L120:
	.word	LCDScreen
	.word	LCDIFQueue
	.word	LCDIF_LAYER
	.word	134152192
	.word	LCDScreen+8
	.cfi_endproc
.LFE19:
	.size	LCDIF_SetLayerPosition, .-LCDIF_SetLayerPosition
	.section	.text.LCDIF_GetScreenPosition,"ax",%progbits
	.align	2
	.global	LCDIF_GetScreenPosition
	.code	16
	.thumb_func
	.type	LCDIF_GetScreenPosition, %function
LCDIF_GetScreenPosition:
.LFB20:
	.loc 1 387 0
	.cfi_startproc
	@ args = 0, pretend = 0, frame = 8
	@ frame_needed = 1, uses_anonymous_args = 0
	push	{r7, lr}
	.cfi_def_cfa_offset 8
	.cfi_offset 7, -8
	.cfi_offset 14, -4
	sub	sp, sp, #8
	.cfi_def_cfa_offset 16
	add	r7, sp, #0
	.cfi_def_cfa_register 7
	str	r0, [r7, #4]
	.loc 1 388 0
	ldr	r3, [r7, #4]
	ldr	r2, .L124
	ldr	r1, .L124+4
	movs	r0, r3
	bl	GDI_LocalToGlobalRct
	.loc 1 389 0
	ldr	r0, [r7, #4]
	mov	sp, r7
	add	sp, sp, #8
	@ sp needed
	pop	{r7, pc}
.L125:
	.align	2
.L124:
	.word	LCDScreen+8
	.word	LCDScreen
	.cfi_endproc
.LFE20:
	.size	LCDIF_GetScreenPosition, .-LCDIF_GetScreenPosition
	.section	.text.LCDIF_SetScreenPosition,"ax",%progbits
	.align	2
	.global	LCDIF_SetScreenPosition
	.code	16
	.thumb_func
	.type	LCDIF_SetScreenPosition, %function
LCDIF_SetScreenPosition:
.LFB21:
	.loc 1 392 0
	.cfi_startproc
	@ args = 0, pretend = 0, frame = 40
	@ frame_needed = 1, uses_anonymous_args = 0
	push	{r4, r7, lr}
	.cfi_def_cfa_offset 12
	.cfi_offset 4, -12
	.cfi_offset 7, -8
	.cfi_offset 14, -4
	sub	sp, sp, #44
	.cfi_def_cfa_offset 56
	add	r7, sp, #0
	.cfi_def_cfa_register 7
	movs	r3, #16
	adds	r3, r7, r3
	str	r0, [r3]
	str	r1, [r3, #4]
	movs	r3, #15
	adds	r3, r7, r3
	strb	r2, [r3]
	.loc 1 393 0
	movs	r3, #28
	adds	r3, r7, r3
	ldr	r2, .L131
	ldr	r1, .L131+4
	movs	r0, r3
	bl	GDI_LocalToGlobalRct
	.loc 1 395 0
	ldr	r3, .L131+4
	ldrb	r3, [r3, #20]
	cmp	r3, #0
	bne	.L127
	.loc 1 395 0 is_stmt 0 discriminator 1
	movs	r3, #0
	b	.L130
.L127:
	.loc 1 397 0 is_stmt 1
	movs	r3, #16
	adds	r1, r7, r3
	movs	r3, #28
	adds	r3, r7, r3
	movs	r2, #8
	movs	r0, r3
	bl	memcmp
	subs	r3, r0, #0
	beq	.L129
.LBB14:
	.loc 1 399 0
	bl	__disable_interrupts
	movs	r3, r0
	str	r3, [r7, #36]
	.loc 1 401 0
	ldr	r3, .L131+4
	movs	r2, #16
	adds	r2, r7, r2
	ldr	r2, [r2]
	str	r2, [r3, #8]
	.loc 1 402 0
	ldr	r4, .L131+4
	movs	r3, r7
	ldr	r2, .L131
	movs	r1, #16
	adds	r1, r7, r1
	movs	r0, r3
	bl	GDI_GlobalToLocalRct
	movs	r3, r7
	movs	r0, r4
	movs	r1, r3
	movs	r3, #8
	movs	r2, r3
	bl	memcpy
	.loc 1 404 0
	ldr	r3, .L131+8
	ldr	r2, .L131+4
	movs	r1, #8
	ldrsh	r2, [r2, r1]
	lsls	r2, r2, #16
	lsrs	r2, r2, #16
	lsls	r2, r2, #22
	lsrs	r1, r2, #22
	.loc 1 405 0
	ldr	r2, .L131+4
	movs	r0, #10
	ldrsh	r2, [r2, r0]
	lsls	r2, r2, #16
	lsrs	r2, r2, #16
	lsls	r2, r2, #16
	ldr	r0, .L131+12
	ands	r2, r0
	.loc 1 404 0
	orrs	r2, r1
	str	r2, [r3]
	.loc 1 406 0
	ldr	r3, .L131+16
	ldr	r2, .L131+4
	movs	r1, #4
	ldrsh	r2, [r2, r1]
	subs	r2, r2, #1
	lsls	r2, r2, #21
	lsrs	r1, r2, #21
	.loc 1 407 0
	ldr	r2, .L131+4
	movs	r0, #6
	ldrsh	r2, [r2, r0]
	subs	r2, r2, #1
	lsls	r2, r2, #16
	ldr	r0, .L131+20
	ands	r2, r0
	.loc 1 406 0
	orrs	r2, r1
	str	r2, [r3]
	.loc 1 408 0
	ldr	r3, [r7, #36]
	movs	r0, r3
	bl	__restore_interrupts
	.loc 1 410 0
	movs	r3, #15
	adds	r3, r7, r3
	ldrb	r3, [r3]
	cmp	r3, #0
	beq	.L129
	.loc 1 411 0
	ldr	r3, .L131+4
	ldr	r0, [r3]
	ldr	r1, [r3, #4]
	bl	LCDIF_UpdateRectangle
.L129:
.LBE14:
	.loc 1 413 0
	movs	r3, #1
.L130:
	.loc 1 414 0 discriminator 1
	movs	r0, r3
	mov	sp, r7
	add	sp, sp, #44
	@ sp needed
	pop	{r4, r7, pc}
.L132:
	.align	2
.L131:
	.word	LCDScreen+8
	.word	LCDScreen
	.word	-1606090620
	.word	67043328
	.word	-1606090608
	.word	134152192
	.cfi_endproc
.LFE21:
	.size	LCDIF_SetScreenPosition, .-LCDIF_SetScreenPosition
	.section	.text.LCDIF_IsLayerInitialized,"ax",%progbits
	.align	2
	.global	LCDIF_IsLayerInitialized
	.code	16
	.thumb_func
	.type	LCDIF_IsLayerInitialized, %function
LCDIF_IsLayerInitialized:
.LFB22:
	.loc 1 417 0
	.cfi_startproc
	@ args = 0, pretend = 0, frame = 8
	@ frame_needed = 1, uses_anonymous_args = 0
	push	{r7, lr}
	.cfi_def_cfa_offset 8
	.cfi_offset 7, -8
	.cfi_offset 14, -4
	sub	sp, sp, #8
	.cfi_def_cfa_offset 16
	add	r7, sp, #0
	.cfi_def_cfa_register 7
	movs	r2, r0
	adds	r3, r7, #7
	strb	r2, [r3]
	.loc 1 418 0
	adds	r3, r7, #7
	ldrb	r3, [r3]
	cmp	r3, #3
	bhi	.L134
	.loc 1 418 0 is_stmt 0 discriminator 1
	adds	r3, r7, #7
	ldrb	r2, [r3]
	ldr	r1, .L137
	movs	r3, r2
	lsls	r3, r3, #3
	subs	r3, r3, r2
	lsls	r3, r3, #2
	adds	r3, r1, r3
	adds	r3, r3, #25
	ldrb	r3, [r3]
	cmp	r3, #0
	beq	.L134
	.loc 1 418 0 discriminator 3
	movs	r3, #1
	b	.L135
.L134:
	.loc 1 418 0 discriminator 4
	movs	r3, #0
.L135:
	.loc 1 418 0 discriminator 6
	lsls	r3, r3, #24
	lsrs	r3, r3, #24
	.loc 1 419 0 is_stmt 1 discriminator 6
	movs	r0, r3
	mov	sp, r7
	add	sp, sp, #8
	@ sp needed
	pop	{r7, pc}
.L138:
	.align	2
.L137:
	.word	LCDScreen
	.cfi_endproc
.LFE22:
	.size	LCDIF_IsLayerInitialized, .-LCDIF_IsLayerInitialized
	.section	.text.LCDIF_UpdateRectangle,"ax",%progbits
	.align	2
	.global	LCDIF_UpdateRectangle
	.code	16
	.thumb_func
	.type	LCDIF_UpdateRectangle, %function
LCDIF_UpdateRectangle:
.LFB23:
	.loc 1 422 0
	.cfi_startproc
	@ args = 0, pretend = 0, frame = 16
	@ frame_needed = 1, uses_anonymous_args = 0
	push	{r7, lr}
	.cfi_def_cfa_offset 8
	.cfi_offset 7, -8
	.cfi_offset 14, -4
	sub	sp, sp, #16
	.cfi_def_cfa_offset 24
	add	r7, sp, #0
	.cfi_def_cfa_register 7
	movs	r3, r7
	str	r0, [r3]
	str	r1, [r3, #4]
	.loc 1 423 0
	ldr	r2, .L142
	movs	r3, r7
	movs	r1, r2
	movs	r0, r3
	bl	GDI_ANDRectangles
	subs	r3, r0, #0
	beq	.L141
.LBB15:
	.loc 1 425 0
	movs	r3, r7
	movs	r0, r3
	bl	ILI9341_SetOutputWindow
	movs	r3, r0
	str	r3, [r7, #12]
	.loc 1 427 0
	ldr	r3, [r7, #12]
	cmp	r3, #0
	beq	.L141
	.loc 1 428 0
	ldr	r3, [r7, #12]
	movs	r0, r3
	bl	LCDIF_AddCommandToQueue
.L141:
.LBE15:
	.loc 1 430 0
	nop
	mov	sp, r7
	add	sp, sp, #16
	@ sp needed
	pop	{r7, pc}
.L143:
	.align	2
.L142:
	.word	LCDScreen
	.cfi_endproc
.LFE23:
	.size	LCDIF_UpdateRectangle, .-LCDIF_UpdateRectangle
	.section	.text.LCDIF_UpdateRectangleBlocked,"ax",%progbits
	.align	2
	.global	LCDIF_UpdateRectangleBlocked
	.code	16
	.thumb_func
	.type	LCDIF_UpdateRectangleBlocked, %function
LCDIF_UpdateRectangleBlocked:
.LFB24:
	.loc 1 433 0
	.cfi_startproc
	@ args = 0, pretend = 0, frame = 8
	@ frame_needed = 1, uses_anonymous_args = 0
	push	{r7, lr}
	.cfi_def_cfa_offset 8
	.cfi_offset 7, -8
	.cfi_offset 14, -4
	sub	sp, sp, #8
	.cfi_def_cfa_offset 16
	add	r7, sp, #0
	.cfi_def_cfa_register 7
	str	r0, [r7, #4]
	.loc 1 434 0
	ldr	r3, [r7, #4]
	cmp	r3, #0
	beq	.L148
	.loc 1 436 0
	ldr	r3, [r7, #4]
	ldrh	r2, [r3]
	ldrh	r1, [r3, #2]
	lsls	r1, r1, #16
	orrs	r2, r1
	movs	r1, #0
	movs	r1, r2
	ldrh	r2, [r3, #4]
	ldrh	r3, [r3, #6]
	lsls	r3, r3, #16
	orrs	r3, r2
	movs	r2, #0
	movs	r2, r3
	movs	r0, r1
	movs	r1, r2
	bl	LCDIF_UpdateRectangle
	.loc 1 437 0
	nop
.L147:
	.loc 1 437 0 is_stmt 0 discriminator 1
	bl	LCDIF_IsQueueRunning
	subs	r3, r0, #0
	bne	.L147
	b	.L144
.L148:
	.loc 1 434 0 is_stmt 1
	nop
.L144:
	.loc 1 438 0
	mov	sp, r7
	add	sp, sp, #8
	@ sp needed
	pop	{r7, pc}
	.cfi_endproc
.LFE24:
	.size	LCDIF_UpdateRectangleBlocked, .-LCDIF_UpdateRectangleBlocked
	.text
.Letext0:
	.file 2 "d:\\1.11\\share\\em_armgcc\\arm-none-eabi\\include\\machine\\_default_types.h"
	.file 3 "d:\\1.11\\share\\em_armgcc\\arm-none-eabi\\include\\sys\\_stdint.h"
	.file 4 "d:\\1.11\\share\\em_armgcc\\arm-none-eabi\\include\\sys\\lock.h"
	.file 5 "d:\\1.11\\share\\em_armgcc\\arm-none-eabi\\include\\sys\\_types.h"
	.file 6 "d:\\1.11\\share\\em_armgcc\\lib\\gcc\\arm-none-eabi\\5.4.1\\include\\stddef.h"
	.file 7 "d:\\1.11\\share\\em_armgcc\\arm-none-eabi\\include\\sys\\reent.h"
	.file 8 ".\\Source/systypes.h"
	.file 9 ".\\Source\\System/dlist.h"
	.file 10 ".\\Source\\Lib\\MT6261/drivers\\pll.h"
	.file 11 ".\\Source\\GUI/gditypes.h"
	.file 12 ".\\Source\\Lib\\MT6261/drivers\\lcdif.h"
	.file 13 ".\\Source\\Lib\\MT6261/drivers\\usb.h"