	.syntax unified
	.cpu arm9e
	.fpu softvfp
	.eabi_attribute 20, 1
	.eabi_attribute 21, 1
	.eabi_attribute 23, 3
	.eabi_attribute 24, 1
	.eabi_attribute 25, 1
	.eabi_attribute 26, 1
	.eabi_attribute 30, 6
	.eabi_attribute 34, 0
	.eabi_attribute 18, 4
	.thumb
	.syntax unified
	.file	"msdc.c"
	.text
.Ltext0:
	.cfi_sections	.debug_frame
	.section	.data.MSDCCONTEXT,"aw",%progbits
	.align	2
	.type	MSDCCONTEXT, %object
	.size	MSDCCONTEXT, 16
MSDCCONTEXT:
	.word	-1609367552
	.byte	19
	.space	3
	.word	-1608056832
	.byte	42
	.space	3
	.section	.text.MSDC_GetModuleContext,"ax",%progbits
	.align	2
	.code	16
	.thumb_func
	.type	MSDC_GetModuleContext, %function
MSDC_GetModuleContext:
.LFB1:
	.file 1 "Source\\Lib\\MT6261\\Drivers\\msdc.c"
	.loc 1 31 0
	.cfi_startproc
	@ args = 0, pretend = 0, frame = 8
	@ frame_needed = 1, uses_anonymous_args = 0
	push	{r7, lr}
	.cfi_def_cfa_offset 8
	.cfi_offset 7, -8
	.cfi_offset 14, -4
	sub	sp, sp, #8
	.cfi_def_cfa_offset 16
	add	r7, sp, #0
	.cfi_def_cfa_register 7
	movs	r2, r0
	adds	r3, r7, #7
	strb	r2, [r3]
	.loc 1 32 0
	adds	r3, r7, #7
	ldrb	r3, [r3]
	cmp	r3, #1
	bls	.L2
	.loc 1 32 0 discriminator 1
	movs	r3, #0
	b	.L3
.L2:
	.loc 1 33 0
	adds	r3, r7, #7
	ldrb	r3, [r3]
	lsls	r2, r3, #3
	ldr	r3, .L4
	adds	r3, r2, r3
.L3:
	.loc 1 34 0
	movs	r0, r3
	mov	sp, r7
	add	sp, sp, #8
	@ sp needed
	pop	{r7, pc}
.L5:
	.align	2
.L4:
	.word	MSDCCONTEXT
	.cfi_endproc
.LFE1:
	.size	MSDC_GetModuleContext, .-MSDC_GetModuleContext
	.section	.text.MSDC_Reset,"ax",%progbits
	.align	2
	.code	16
	.thumb_func
	.type	MSDC_Reset, %function
MSDC_Reset:
.LFB2:
	.loc 1 37 0
	.cfi_startproc
	@ args = 0, pretend = 0, frame = 8
	@ frame_needed = 1, uses_anonymous_args = 0
	push	{r7, lr}
	.cfi_def_cfa_offset 8
	.cfi_offset 7, -8
	.cfi_offset 14, -4
	sub	sp, sp, #8
	.cfi_def_cfa_offset 16
	add	r7, sp, #0
	.cfi_def_cfa_register 7
	str	r0, [r7, #4]
	.loc 1 38 0
	ldr	r3, [r7, #4]
	ldr	r3, [r3]
	ldr	r2, [r7, #4]
	ldr	r2, [r2]
	ldr	r2, [r2]
	movs	r1, #2
	orrs	r2, r1
	str	r2, [r3]
	.loc 1 39 0
	movs	r3, #250
	lsls	r3, r3, #3
	movs	r0, r3
	bl	USC_Pause_us
	.loc 1 40 0
	ldr	r3, [r7, #4]
	ldr	r3, [r3]
	ldr	r2, [r7, #4]
	ldr	r2, [r2]
	ldr	r2, [r2]
	movs	r1, #3
	bics	r2, r1
	str	r2, [r3]
	.loc 1 41 0
	nop
	mov	sp, r7
	add	sp, sp, #8
	@ sp needed
	pop	{r7, pc}
	.cfi_endproc
.LFE2:
	.size	MSDC_Reset, .-MSDC_Reset
	.section	.text.MSDC_ClockInit,"ax",%progbits
	.align	2
	.code	16
	.thumb_func
	.type	MSDC_ClockInit, %function
MSDC_ClockInit:
.LFB3:
	.loc 1 44 0
	.cfi_startproc
	@ args = 0, pretend = 0, frame = 8
	@ frame_needed = 1, uses_anonymous_args = 0
	push	{r7, lr}
	.cfi_def_cfa_offset 8
	.cfi_offset 7, -8
	.cfi_offset 14, -4
	sub	sp, sp, #8
	.cfi_def_cfa_offset 16
	add	r7, sp, #0
	.cfi_def_cfa_register 7
	str	r0, [r7, #4]
	.loc 1 45 0
	ldr	r3, [r7, #4]
	ldr	r2, [r3]
	ldr	r3, [r7, #4]
	ldr	r3, [r3]
	movs	r1, #128
	ldr	r3, [r3, r1]
	movs	r1, #128
	bics	r3, r1
	movs	r1, #128
	str	r3, [r2, r1]
	.loc 1 46 0
	ldr	r3, [r7, #4]
	ldr	r3, [r3]
	ldr	r2, [r7, #4]
	ldr	r2, [r2]
	ldr	r2, [r2, #32]
	lsls	r2, r2, #8
	lsrs	r2, r2, #8
	movs	r1, #160
	lsls	r1, r1, #23
	orrs	r2, r1
	str	r2, [r3, #32]
	.loc 1 47 0
	nop
	mov	sp, r7
	add	sp, sp, #8
	@ sp needed
	pop	{r7, pc}
	.cfi_endproc
.LFE3:
	.size	MSDC_ClockInit, .-MSDC_ClockInit
	.section	.text.MSDC_IsMultiLineSupported,"ax",%progbits
	.align	2
	.global	MSDC_IsMultiLineSupported
	.code	16
	.thumb_func
	.type	MSDC_IsMultiLineSupported, %function
MSDC_IsMultiLineSupported:
.LFB4:
	.loc 1 50 0
	.cfi_startproc
	@ args = 0, pretend = 0, frame = 8
	@ frame_needed = 1, uses_anonymous_args = 0
	push	{r7, lr}
	.cfi_def_cfa_offset 8
	.cfi_offset 7, -8
	.cfi_offset 14, -4
	sub	sp, sp, #8
	.cfi_def_cfa_offset 16
	add	r7, sp, #0
	.cfi_def_cfa_register 7
	movs	r2, r0
	adds	r3, r7, #7
	strb	r2, [r3]
	.loc 1 51 0
	adds	r3, r7, #7
	ldrb	r3, [r3]
	rsbs	r2, r3, #0
	adcs	r3, r3, r2
	lsls	r3, r3, #24
	lsrs	r3, r3, #24
	.loc 1 52 0
	movs	r0, r3
	mov	sp, r7
	add	sp, sp, #8
	@ sp needed
	pop	{r7, pc}
	.cfi_endproc
.LFE4:
	.size	MSDC_IsMultiLineSupported, .-MSDC_IsMultiLineSupported
	.text
.Letext0:
	.file 2 "d:\\1.11\\share\\em_armgcc\\arm-none-eabi\\include\\machine\\_default_types.h"
	.file 3 "d:\\1.11\\share\\em_armgcc\\arm-none-eabi\\include\\sys\\_stdint.h"
	.file 4 ".\\Source/systypes.h"
	.file 5 ".\\Source\\Lib\\MT6261/drivers\\lcdif.h"
	.file 6 ".\\Source\\Lib\\MT6261/drivers\\usb.h"
	.file 7 ".\\Source\\Lib\\MT6261/drivers\\msdc.h"