	.syntax unified
	.cpu arm9e
	.fpu softvfp
	.eabi_attribute 20, 1
	.eabi_attribute 21, 1
	.eabi_attribute 23, 3
	.eabi_attribute 24, 1
	.eabi_attribute 25, 1
	.eabi_attribute 26, 1
	.eabi_attribute 30, 6
	.eabi_attribute 34, 0
	.eabi_attribute 18, 4
	.thumb
	.syntax unified
	.file	"pmu.c"
	.text
.Ltext0:
	.cfi_sections	.debug_frame
	.global	BatCurrentLimits
	.section	.rodata.BatCurrentLimits,"a",%progbits
	.align	2
	.type	BatCurrentLimits, %object
	.size	BatCurrentLimits, 64
BatCurrentLimits:
	.short	70
	.byte	15
	.byte	18
	.short	200
	.byte	14
	.byte	24
	.short	300
	.byte	13
	.byte	40
	.short	450
	.byte	12
	.byte	89
	.short	550
	.byte	11
	.byte	89
	.short	650
	.byte	10
	.byte	89
	.short	700
	.byte	9
	.byte	89
	.short	800
	.byte	8
	.byte	89
	.short	900
	.byte	7
	.byte	89
	.short	1000
	.byte	6
	.byte	89
	.short	1100
	.byte	5
	.byte	89
	.short	1200
	.byte	4
	.byte	89
	.short	1300
	.byte	3
	.byte	89
	.short	1400
	.byte	2
	.byte	89
	.short	1500
	.byte	1
	.byte	89
	.short	1600
	.byte	0
	.byte	89
	.section	.bss.PrevChargerState,"aw",%nobits
	.type	PrevChargerState, %object
	.size	PrevChargerState, 1
PrevChargerState:
	.space	1
	.section	.bss.BatteryCharging,"aw",%nobits
	.type	BatteryCharging, %object
	.size	BatteryCharging, 1
BatteryCharging:
	.space	1
	.section	.bss.ChargerTimer,"aw",%nobits
	.align	2
	.type	ChargerTimer, %object
	.size	ChargerTimer, 4
ChargerTimer:
	.space	4
	.section	.bss.VBat,"aw",%nobits
	.align	1
	.type	VBat, %object
	.size	VBat, 2
VBat:
	.space	2
	.section	.bss.ISense,"aw",%nobits
	.align	1
	.type	ISense, %object
	.size	ISense, 2
ISense:
	.space	2
	.section	.bss.ChargeOnDebounce,"aw",%nobits
	.align	2
	.type	ChargeOnDebounce, %object
	.size	ChargeOnDebounce, 4
ChargeOnDebounce:
	.space	4
	.section	.bss.RechargeTimeout,"aw",%nobits
	.align	2
	.type	RechargeTimeout, %object
	.size	RechargeTimeout, 4
RechargeTimeout:
	.space	4
	.section	.bss.PWRKEYAppHandler,"aw",%nobits
	.align	2
	.type	PWRKEYAppHandler, %object
	.size	PWRKEYAppHandler, 4
PWRKEYAppHandler:
	.space	4
	.section	.bss.ChargeLevel,"aw",%nobits
	.align	1
	.type	ChargeLevel, %object
	.size	ChargeLevel, 2
ChargeLevel:
	.space	2
	.section	.bss.FirstMeasurememnt,"aw",%nobits
	.type	FirstMeasurememnt, %object
	.size	FirstMeasurememnt, 1
FirstMeasurememnt:
	.space	1
	.section	.bss.MathVBatArray,"aw",%nobits
	.align	2
	.type	MathVBatArray, %object
	.size	MathVBatArray, 256
MathVBatArray:
	.space	256
	.section	.bss.MathISenseArray,"aw",%nobits
	.align	2
	.type	MathISenseArray, %object
	.size	MathISenseArray, 256
MathISenseArray:
	.space	256
	.section	.text.PMU_GetChargingParams,"ax",%progbits
	.align	2
	.code	16
	.thumb_func
	.type	PMU_GetChargingParams, %function
PMU_GetChargingParams:
.LFB1:
	.file 1 "Source\\Lib\\MT6261\\Drivers\\pmu.c"
	.loc 1 81 0
	.cfi_startproc
	@ args = 0, pretend = 0, frame = 16
	@ frame_needed = 1, uses_anonymous_args = 0
	push	{r7, lr}
	.cfi_def_cfa_offset 8
	.cfi_offset 7, -8
	.cfi_offset 14, -4
	sub	sp, sp, #16
	.cfi_def_cfa_offset 24
	add	r7, sp, #0
	.cfi_def_cfa_register 7
	movs	r2, r0
	adds	r3, r7, #6
	strh	r2, [r3]
	.loc 1 82 0
	movs	r3, #15
	adds	r3, r7, r3
	movs	r2, #15
	strb	r2, [r3]
	.loc 1 84 0
	b	.L2
.L5:
	.loc 1 85 0
	movs	r3, #15
	adds	r3, r7, r3
	movs	r2, #0
	ldrsb	r2, [r3, r2]
	ldr	r3, .L6
	lsls	r2, r2, #2
	ldrh	r3, [r2, r3]
	adds	r2, r7, #6
	ldrh	r2, [r2]
	cmp	r2, r3
	bcc	.L3
	.loc 1 86 0
	movs	r3, #15
	adds	r3, r7, r3
	ldrb	r3, [r3]
	lsls	r3, r3, #24
	asrs	r3, r3, #24
	b	.L4
.L3:
	.loc 1 84 0
	movs	r3, #15
	adds	r3, r7, r3
	ldrb	r3, [r3]
	lsls	r3, r3, #24
	asrs	r3, r3, #24
	lsls	r3, r3, #24
	lsrs	r3, r3, #24
	subs	r3, r3, #1
	lsls	r3, r3, #24
	lsrs	r2, r3, #24
	movs	r3, #15
	adds	r3, r7, r3
	strb	r2, [r3]
.L2:
	.loc 1 84 0 is_stmt 0 discriminator 1
	movs	r3, #15
	adds	r3, r7, r3
	ldrb	r3, [r3]
	cmp	r3, #127
	bls	.L5
	.loc 1 88 0 is_stmt 1
	movs	r3, #1
	rsbs	r3, r3, #0
.L4:
	.loc 1 89 0
	movs	r0, r3
	mov	sp, r7
	add	sp, sp, #16
	@ sp needed
	pop	{r7, pc}
.L7:
	.align	2
.L6:
	.word	BatCurrentLimits
	.cfi_endproc
.LFE1:
	.size	PMU_GetChargingParams, .-PMU_GetChargingParams
	.section	.text.PMU_IsChargerEnabled,"ax",%progbits
	.align	2
	.code	16
	.thumb_func
	.type	PMU_IsChargerEnabled, %function
PMU_IsChargerEnabled:
.LFB2:
	.loc 1 92 0
	.cfi_startproc
	@ args = 0, pretend = 0, frame = 0
	@ frame_needed = 1, uses_anonymous_args = 0
	push	{r7, lr}
	.cfi_def_cfa_offset 8
	.cfi_offset 7, -8
	.cfi_offset 14, -4
	add	r7, sp, #0
	.cfi_def_cfa_register 7
	.loc 1 93 0
	ldr	r3, .L10
	ldrh	r3, [r3]
	lsls	r3, r3, #16
	lsrs	r3, r3, #16
	movs	r2, r3
	movs	r3, #16
	ands	r3, r2
	subs	r2, r3, #1
	sbcs	r3, r3, r2
	lsls	r3, r3, #24
	lsrs	r3, r3, #24
	.loc 1 94 0
	movs	r0, r3
	mov	sp, r7
	@ sp needed
	pop	{r7, pc}
.L11:
	.align	2
.L10:
	.word	-1603270144
	.cfi_endproc
.LFE2:
	.size	PMU_IsChargerEnabled, .-PMU_IsChargerEnabled
	.section	.text.PMU_ChargerEnable,"ax",%progbits
	.align	2
	.code	16
	.thumb_func
	.type	PMU_ChargerEnable, %function
PMU_ChargerEnable:
.LFB3:
	.loc 1 97 0
	.cfi_startproc
	@ args = 0, pretend = 0, frame = 16
	@ frame_needed = 1, uses_anonymous_args = 0
	push	{r4, r7, lr}
	.cfi_def_cfa_offset 12
	.cfi_offset 4, -12
	.cfi_offset 7, -8
	.cfi_offset 14, -4
	sub	sp, sp, #20
	.cfi_def_cfa_offset 32
	add	r7, sp, #0
	.cfi_def_cfa_register 7
	movs	r2, r0
	adds	r3, r7, #7
	strb	r2, [r3]
	.loc 1 98 0
	movs	r3, #15
	adds	r4, r7, r3
	movs	r0, #200
	bl	PMU_GetChargingParams
	movs	r3, r0
	strb	r3, [r4]
	.loc 1 100 0
	ldr	r1, .L17
	movs	r3, #15
	adds	r3, r7, r3
	ldrb	r3, [r3]
	lsls	r3, r3, #24
	asrs	r3, r3, #24
	adds	r3, r3, #1
	beq	.L13
	.loc 1 100 0 is_stmt 0 discriminator 1
	movs	r3, #15
	adds	r3, r7, r3
	ldrb	r3, [r3]
	lsls	r3, r3, #24
	asrs	r3, r3, #24
	ldr	r2, .L17+4
	lsls	r3, r3, #2
	adds	r3, r2, r3
	adds	r3, r3, #3
	ldrb	r3, [r3]
	lsls	r3, r3, #16
	lsrs	r3, r3, #16
	b	.L14
.L13:
	.loc 1 100 0 discriminator 2
	movs	r3, #0
.L14:
	.loc 1 100 0 discriminator 4
	strh	r3, [r1]
	.loc 1 101 0 is_stmt 1 discriminator 4
	ldr	r3, .L17+8
	ldr	r2, .L17+12
	strh	r2, [r3]
	.loc 1 102 0 discriminator 4
	ldr	r3, .L17+16
	movs	r2, #128
	lsls	r2, r2, #5
	strh	r2, [r3]
	.loc 1 103 0 discriminator 4
	ldr	r2, .L17+20
	ldr	r3, .L17+20
	ldrh	r3, [r3]
	lsls	r3, r3, #16
	lsrs	r3, r3, #16
	lsls	r3, r3, #16
	asrs	r3, r3, #16
	movs	r1, #115
	bics	r3, r1
	lsls	r3, r3, #16
	asrs	r3, r3, #16
	movs	r1, #19
	orrs	r3, r1
	lsls	r3, r3, #16
	asrs	r3, r3, #16
	lsls	r3, r3, #16
	lsrs	r3, r3, #16
	strh	r3, [r2]
	.loc 1 104 0 discriminator 4
	ldr	r3, .L17+24
	movs	r2, #16
	strh	r2, [r3]
	.loc 1 105 0 discriminator 4
	ldr	r3, .L17+28
	ldr	r2, .L17+32
	strh	r2, [r3]
	.loc 1 107 0 discriminator 4
	ldr	r3, .L17+36
	movs	r2, #128
	lsls	r2, r2, #4
	strh	r2, [r3]
	.loc 1 109 0 discriminator 4
	movs	r0, #0
	bl	PMU_SetChargerWDTEnabled
	.loc 1 111 0 discriminator 4
	adds	r3, r7, #7
	ldrb	r3, [r3]
	cmp	r3, #0
	beq	.L15
	.loc 1 111 0 is_stmt 0 discriminator 1
	movs	r3, #15
	adds	r3, r7, r3
	ldrb	r3, [r3]
	lsls	r3, r3, #24
	asrs	r3, r3, #24
	adds	r3, r3, #1
	beq	.L15
	.loc 1 111 0 discriminator 2
	bl	PMU_IsChargerConnected
	subs	r3, r0, #0
	beq	.L15
	.loc 1 113 0 is_stmt 1
	ldr	r2, .L17+16
	ldr	r3, .L17+16
	ldrh	r3, [r3]
	lsls	r3, r3, #16
	lsrs	r3, r3, #16
	movs	r1, #3
	orrs	r3, r1
	lsls	r3, r3, #16
	lsrs	r3, r3, #16
	strh	r3, [r2]
	.loc 1 114 0
	ldr	r1, .L17+40
	movs	r3, #15
	adds	r3, r7, r3
	ldrb	r3, [r3]
	lsls	r3, r3, #24
	asrs	r3, r3, #24
	ldr	r2, .L17+4
	lsls	r3, r3, #2
	adds	r3, r2, r3
	adds	r3, r3, #2
	ldrb	r3, [r3]
	lsls	r3, r3, #16
	asrs	r3, r3, #16
	movs	r2, #15
	ands	r3, r2
	lsls	r3, r3, #16
	asrs	r3, r3, #16
	movs	r2, #128
	lsls	r2, r2, #1
	orrs	r3, r2
	lsls	r3, r3, #16
	asrs	r3, r3, #16
	lsls	r3, r3, #16
	lsrs	r3, r3, #16
	strh	r3, [r1]
	.loc 1 115 0
	ldr	r3, .L17+44
	movs	r2, #192
	lsls	r2, r2, #6
	strh	r2, [r3]
	.loc 1 117 0
	ldr	r2, .L17+24
	ldr	r3, .L17+24
	ldrh	r3, [r3]
	lsls	r3, r3, #16
	lsrs	r3, r3, #16
	movs	r1, #96
	orrs	r3, r1
	lsls	r3, r3, #16
	lsrs	r3, r3, #16
	strh	r3, [r2]
	.loc 1 118 0
	ldr	r2, .L17+8
	ldr	r3, .L17+8
	ldrh	r3, [r3]
	lsls	r3, r3, #16
	lsrs	r3, r3, #16
	movs	r1, #24
	orrs	r3, r1
	lsls	r3, r3, #16
	lsrs	r3, r3, #16
	strh	r3, [r2]
	b	.L16
.L15:
	.loc 1 122 0
	ldr	r2, .L17+8
	ldr	r3, .L17+8
	ldrh	r3, [r3]
	lsls	r3, r3, #16
	lsrs	r3, r3, #16
	movs	r1, #24
	bics	r3, r1
	lsls	r3, r3, #16
	lsrs	r3, r3, #16
	strh	r3, [r2]
	.loc 1 123 0
	ldr	r2, .L17+16
	ldr	r3, .L17+16
	ldrh	r3, [r3]
	lsls	r3, r3, #16
	lsrs	r3, r3, #16
	movs	r1, #3
	bics	r3, r1
	lsls	r3, r3, #16
	lsrs	r3, r3, #16
	strh	r3, [r2]
	.loc 1 124 0
	ldr	r1, .L17+40
	ldr	r3, .L17+40
	ldrh	r3, [r3]
	lsls	r3, r3, #16
	lsrs	r2, r3, #16
	movs	r3, #128
	lsls	r3, r3, #1
	ands	r3, r2
	lsls	r3, r3, #16
	lsrs	r3, r3, #16
	strh	r3, [r1]
	.loc 1 125 0
	ldr	r2, .L17+24
	ldr	r3, .L17+24
	ldrh	r3, [r3]
	lsls	r3, r3, #16
	lsrs	r3, r3, #16
	movs	r1, #96
	bics	r3, r1
	lsls	r3, r3, #16
	lsrs	r3, r3, #16
	strh	r3, [r2]
.L16:
	.loc 1 127 0
	nop
	mov	sp, r7
	add	sp, sp, #20
	@ sp needed
	pop	{r4, r7, pc}
.L18:
	.align	2
.L17:
	.word	-1603270084
	.word	BatCurrentLimits
	.word	-1603270144
	.word	-28160
	.word	-1603270140
	.word	-1603270124
	.word	-1603270104
	.word	-1603270096
	.word	1220
	.word	-1603270100
	.word	-1603270136
	.word	-1603270128
	.cfi_endproc
.LFE3:
	.size	PMU_ChargerEnable, .-PMU_ChargerEnable
	.global	__aeabi_idiv
	.section	.text.PMU_FilterADCMeasures,"ax",%progbits
	.align	2
	.code	16
	.thumb_func
	.type	PMU_FilterADCMeasures, %function
PMU_FilterADCMeasures:
.LFB4:
	.loc 1 130 0
	.cfi_startproc
	@ args = 0, pretend = 0, frame = 24
	@ frame_needed = 1, uses_anonymous_args = 0
	push	{r7, lr}
	.cfi_def_cfa_offset 8
	.cfi_offset 7, -8
	.cfi_offset 14, -4
	sub	sp, sp, #24
	.cfi_def_cfa_offset 32
	add	r7, sp, #0
	.cfi_def_cfa_register 7
	str	r0, [r7, #4]
	movs	r0, r1
	movs	r1, r2
	adds	r3, r7, #2
	adds	r2, r0, #0
	strh	r2, [r3]
	movs	r3, r7
	adds	r2, r1, #0
	strh	r2, [r3]
	.loc 1 131 0
	movs	r3, #22
	adds	r3, r7, r3
	movs	r2, #1
	strh	r2, [r3]
	.loc 1 132 0
	movs	r3, #18
	adds	r3, r7, r3
	adds	r2, r7, #2
	ldrh	r2, [r2]
	strh	r2, [r3]
	movs	r3, #16
	adds	r3, r7, r3
	movs	r2, #0
	strh	r2, [r3]
	.loc 1 135 0
	b	.L20
.L25:
	.loc 1 137 0
	movs	r3, #18
	adds	r3, r7, r3
	movs	r2, #18
	adds	r2, r7, r2
	ldrh	r2, [r2]
	subs	r2, r2, #1
	strh	r2, [r3]
	movs	r3, #20
	adds	r3, r7, r3
	movs	r2, #18
	adds	r2, r7, r2
	ldrh	r2, [r2]
	strh	r2, [r3]
	.loc 1 138 0
	b	.L21
.L24:
	.loc 1 140 0
	movs	r3, #16
	adds	r3, r7, r3
	ldrh	r3, [r3]
	lsls	r3, r3, #1
	ldr	r2, [r7, #4]
	adds	r3, r2, r3
	movs	r2, #0
	ldrsh	r2, [r3, r2]
	movs	r3, #16
	adds	r3, r7, r3
	ldrh	r3, [r3]
	adds	r3, r3, #1
	lsls	r3, r3, #1
	ldr	r1, [r7, #4]
	adds	r3, r1, r3
	movs	r1, #0
	ldrsh	r3, [r3, r1]
	cmp	r2, r3
	ble	.L22
.LBB2:
	.loc 1 142 0
	movs	r3, #16
	adds	r3, r7, r3
	ldrh	r3, [r3]
	lsls	r3, r3, #1
	ldr	r2, [r7, #4]
	adds	r2, r2, r3
	movs	r3, #10
	adds	r3, r7, r3
	ldrh	r2, [r2]
	strh	r2, [r3]
	.loc 1 144 0
	movs	r3, #16
	adds	r3, r7, r3
	ldrh	r3, [r3]
	lsls	r3, r3, #1
	ldr	r2, [r7, #4]
	adds	r3, r2, r3
	movs	r2, #16
	adds	r2, r7, r2
	ldrh	r2, [r2]
	adds	r2, r2, #1
	lsls	r2, r2, #1
	ldr	r1, [r7, #4]
	adds	r2, r1, r2
	movs	r1, #0
	ldrsh	r2, [r2, r1]
	strh	r2, [r3]
	.loc 1 145 0
	movs	r3, #16
	adds	r3, r7, r3
	ldrh	r3, [r3]
	adds	r3, r3, #1
	lsls	r3, r3, #1
	ldr	r2, [r7, #4]
	adds	r3, r2, r3
	movs	r2, #10
	adds	r2, r7, r2
	ldrh	r2, [r2]
	strh	r2, [r3]
.L22:
.LBE2:
	.loc 1 147 0
	movs	r3, #20
	adds	r3, r7, r3
	ldrh	r3, [r3]
	cmp	r3, #0
	bne	.L23
	.loc 1 147 0 is_stmt 0 discriminator 1
	movs	r3, #22
	adds	r3, r7, r3
	ldrh	r3, [r3]
	rsbs	r3, r3, #0
	lsls	r3, r3, #16
	lsrs	r2, r3, #16
	movs	r3, #22
	adds	r3, r7, r3
	strh	r2, [r3]
.L23:
	.loc 1 148 0 is_stmt 1
	movs	r3, #22
	adds	r3, r7, r3
	ldrh	r1, [r3]
	movs	r3, #16
	adds	r3, r7, r3
	movs	r2, #16
	adds	r2, r7, r2
	ldrh	r2, [r2]
	adds	r2, r1, r2
	strh	r2, [r3]
.L21:
	.loc 1 138 0
	movs	r3, #20
	adds	r3, r7, r3
	ldrh	r3, [r3]
	movs	r2, #20
	adds	r2, r7, r2
	subs	r1, r3, #1
	strh	r1, [r2]
	cmp	r3, #0
	bne	.L24
.L20:
	.loc 1 135 0
	movs	r3, #18
	adds	r2, r7, r3
	movs	r3, r7
	ldrh	r2, [r2]
	ldrh	r3, [r3]
	cmp	r2, r3
	bhi	.L25
	.loc 1 152 0
	movs	r3, #0
	str	r3, [r7, #12]
	.loc 1 153 0
	b	.L26
.L27:
	.loc 1 153 0 is_stmt 0 discriminator 2
	movs	r3, #16
	adds	r3, r7, r3
	ldrh	r3, [r3]
	movs	r2, #16
	adds	r2, r7, r2
	adds	r1, r3, #1
	strh	r1, [r2]
	lsls	r3, r3, #1
	ldr	r2, [r7, #4]
	adds	r3, r2, r3
	movs	r2, #0
	ldrsh	r3, [r3, r2]
	movs	r2, r3
	ldr	r3, [r7, #12]
	adds	r3, r3, r2
	str	r3, [r7, #12]
.L26:
	.loc 1 153 0 discriminator 1
	movs	r3, #18
	adds	r3, r7, r3
	ldrh	r3, [r3]
	movs	r2, #18
	adds	r2, r7, r2
	subs	r1, r3, #1
	strh	r1, [r2]
	cmp	r3, #0
	bne	.L27
	.loc 1 154 0 is_stmt 1
	movs	r3, r7
	ldrh	r3, [r3]
	lsrs	r3, r3, #1
	lsls	r3, r3, #16
	lsrs	r3, r3, #16
	movs	r2, r3
	ldr	r3, [r7, #12]
	adds	r2, r2, r3
	movs	r3, r7
	ldrh	r3, [r3]
	movs	r1, r3
	movs	r0, r2
	bl	__aeabi_idiv
	movs	r3, r0
	str	r3, [r7, #12]
	.loc 1 156 0
	ldr	r3, [r7, #12]
	lsls	r3, r3, #16
	asrs	r3, r3, #16
	.loc 1 157 0
	movs	r0, r3
	mov	sp, r7
	add	sp, sp, #24
	@ sp needed
	pop	{r7, pc}
	.cfi_endproc
.LFE4:
	.size	PMU_FilterADCMeasures, .-PMU_FilterADCMeasures
	.section	.text.PMU_MeasureChargeParams,"ax",%progbits
	.align	2
	.code	16
	.thumb_func
	.type	PMU_MeasureChargeParams, %function
PMU_MeasureChargeParams:
.LFB5:
	.loc 1 160 0
	.cfi_startproc
	@ args = 0, pretend = 0, frame = 16
	@ frame_needed = 1, uses_anonymous_args = 0
	push	{r7, lr}
	.cfi_def_cfa_offset 8
	.cfi_offset 7, -8
	.cfi_offset 14, -4
	sub	sp, sp, #16
	.cfi_def_cfa_offset 24
	add	r7, sp, #0
	.cfi_def_cfa_register 7
	.loc 1 164 0
	movs	r3, #14
	adds	r3, r7, r3
	movs	r2, #0
	strh	r2, [r3]
	b	.L30
.L31:
	.loc 1 166 0 discriminator 3
	movs	r3, r7
	movs	r1, #3
	movs	r0, r3
	bl	AUXADC_MeasureMultiple
	.loc 1 167 0 discriminator 3
	movs	r3, #14
	adds	r3, r7, r3
	ldrh	r2, [r3]
	movs	r3, r7
	ldrh	r1, [r3]
	ldr	r3, .L44
	lsls	r2, r2, #1
	strh	r1, [r2, r3]
	.loc 1 168 0 discriminator 3
	movs	r3, #14
	adds	r3, r7, r3
	ldrh	r2, [r3]
	movs	r3, r7
	ldrh	r1, [r3, #2]
	ldr	r3, .L44+4
	lsls	r2, r2, #1
	strh	r1, [r2, r3]
	.loc 1 164 0 discriminator 3
	movs	r3, #14
	adds	r3, r7, r3
	ldrh	r2, [r3]
	movs	r3, #14
	adds	r3, r7, r3
	adds	r2, r2, #1
	strh	r2, [r3]
.L30:
	.loc 1 164 0 is_stmt 0 discriminator 1
	movs	r3, #14
	adds	r3, r7, r3
	ldrh	r3, [r3]
	cmp	r3, #127
	bls	.L31
	.loc 1 171 0 is_stmt 1
	ldr	r3, .L44
	movs	r2, #4
	movs	r1, #128
	movs	r0, r3
	bl	PMU_FilterADCMeasures
	movs	r3, r0
	lsls	r3, r3, #16
	lsrs	r2, r3, #16
	movs	r3, r7
	strh	r2, [r3]
	.loc 1 172 0
	ldr	r3, .L44+4
	movs	r2, #4
	movs	r1, #128
	movs	r0, r3
	bl	PMU_FilterADCMeasures
	movs	r3, r0
	lsls	r3, r3, #16
	lsrs	r2, r3, #16
	movs	r3, r7
	strh	r2, [r3, #2]
	.loc 1 174 0
	movs	r3, r7
	ldrh	r3, [r3]
	movs	r2, r3
	movs	r3, #175
	lsls	r3, r3, #5
	muls	r3, r2
	ldr	r1, .L44+8
	movs	r0, r3
	bl	__aeabi_idiv
	movs	r3, r0
	lsls	r3, r3, #16
	lsrs	r2, r3, #16
	ldr	r3, .L44+12
	strh	r2, [r3]
	.loc 1 175 0
	movs	r3, r7
	ldrh	r3, [r3, #2]
	movs	r2, r3
	movs	r3, #175
	lsls	r3, r3, #5
	muls	r3, r2
	ldr	r1, .L44+8
	movs	r0, r3
	bl	__aeabi_idiv
	movs	r3, r0
	movs	r2, r3
	movs	r3, #12
	adds	r3, r7, r3
	strh	r2, [r3]
	.loc 1 176 0
	movs	r3, #12
	adds	r3, r7, r3
	movs	r2, #0
	ldrsh	r3, [r3, r2]
	ldr	r2, .L44+12
	ldrh	r2, [r2]
	cmp	r3, r2
	blt	.L32
	.loc 1 176 0 is_stmt 0 discriminator 1
	movs	r3, #12
	adds	r3, r7, r3
	movs	r2, #0
	ldrsh	r3, [r3, r2]
	ldr	r2, .L44+12
	ldrh	r2, [r2]
	subs	r3, r3, r2
	lsls	r3, r3, #16
	lsrs	r3, r3, #16
	adds	r2, r3, #0
	lsls	r2, r2, #2
	adds	r3, r2, r3
	lsls	r3, r3, #16
	lsrs	r2, r3, #16
	b	.L33
.L32:
	.loc 1 176 0 discriminator 2
	movs	r2, #0
.L33:
	.loc 1 176 0 discriminator 4
	ldr	r3, .L44+16
	strh	r2, [r3]
	.loc 1 178 0 is_stmt 1 discriminator 4
	ldr	r3, .L44+12
	ldrh	r3, [r3]
	ldr	r2, .L44+20
	cmp	r3, r2
	bls	.L34
	.loc 1 178 0 is_stmt 0 discriminator 1
	ldr	r3, .L44+12
	ldrh	r3, [r3]
	ldr	r2, .L44+24
	mov	ip, r2
	add	r3, r3, ip
	lsls	r3, r3, #16
	lsrs	r3, r3, #16
	lsls	r3, r3, #16
	asrs	r3, r3, #16
	b	.L35
.L34:
	.loc 1 178 0 discriminator 2
	movs	r3, #0
.L35:
	.loc 1 178 0 discriminator 4
	movs	r2, #12
	adds	r2, r7, r2
	strh	r3, [r2]
.LBB3:
	.loc 1 179 0 is_stmt 1 discriminator 4
	movs	r3, #12
	adds	r3, r7, r3
	movs	r2, #0
	ldrsh	r3, [r3, r2]
	movs	r2, #250
	lsls	r2, r2, #2
	muls	r2, r3
	movs	r3, #225
	lsls	r1, r3, #2
	movs	r0, r2
	bl	__aeabi_idiv
	movs	r3, r0
	str	r3, [r7, #8]
	movs	r3, #250
	lsls	r3, r3, #2
	str	r3, [r7, #4]
	ldr	r2, [r7, #8]
	ldr	r3, [r7, #4]
	cmp	r3, r2
	ble	.L36
	movs	r3, r2
.L36:
.LBE3:
	movs	r2, #12
	adds	r2, r7, r2
	strh	r3, [r2]
	.loc 1 181 0 discriminator 4
	movs	r3, #12
	adds	r3, r7, r3
	movs	r2, #0
	ldrsh	r3, [r3, r2]
	ldr	r2, .L44+28
	ldrh	r2, [r2]
	cmp	r3, r2
	beq	.L43
	.loc 1 183 0
	ldr	r3, .L44+32
	ldrb	r3, [r3]
	cmp	r3, #0
	beq	.L38
	.loc 1 185 0
	movs	r3, #12
	adds	r3, r7, r3
	ldrh	r2, [r3]
	ldr	r3, .L44+28
	strh	r2, [r3]
	.loc 1 186 0
	ldr	r3, .L44+32
	movs	r2, #0
	strb	r2, [r3]
	.loc 1 194 0
	b	.L43
.L38:
	.loc 1 190 0
	movs	r3, #12
	adds	r3, r7, r3
	ldrh	r2, [r3]
	ldr	r3, .L44+28
	ldrh	r3, [r3]
	subs	r3, r2, r3
	lsls	r3, r3, #16
	lsrs	r2, r3, #16
	movs	r3, #12
	adds	r3, r7, r3
	strh	r2, [r3]
	.loc 1 191 0
	movs	r3, #12
	adds	r3, r7, r3
	movs	r2, #0
	ldrsh	r3, [r3, r2]
	cmp	r3, #0
	bge	.L39
	.loc 1 191 0 is_stmt 0 discriminator 1
	movs	r3, #12
	adds	r3, r7, r3
	movs	r2, #0
	ldrsh	r3, [r3, r2]
	subs	r3, r3, #7
	cmp	r3, #0
	bge	.L40
	adds	r3, r3, #7
.L40:
	asrs	r3, r3, #3
	lsls	r3, r3, #16
	lsrs	r3, r3, #16
	b	.L41
.L39:
	.loc 1 191 0 discriminator 2
	movs	r3, #12
	adds	r3, r7, r3
	movs	r2, #0
	ldrsh	r3, [r3, r2]
	adds	r3, r3, #7
	cmp	r3, #0
	bge	.L42
	adds	r3, r3, #7
.L42:
	asrs	r3, r3, #3
	lsls	r3, r3, #16
	lsrs	r3, r3, #16
.L41:
	.loc 1 191 0 discriminator 4
	ldr	r2, .L44+28
	ldrh	r2, [r2]
	adds	r3, r3, r2
	lsls	r3, r3, #16
	lsrs	r2, r3, #16
	ldr	r3, .L44+28
	strh	r2, [r3]
.L43:
	.loc 1 194 0 is_stmt 1
	nop
	mov	sp, r7
	add	sp, sp, #16
	@ sp needed
	pop	{r7, pc}
.L45:
	.align	2
.L44:
	.word	MathVBatArray
	.word	MathISenseArray
	.word	1023
	.word	VBat
	.word	ISense
	.word	3099
	.word	-3100
	.word	ChargeLevel
	.word	FirstMeasurememnt
	.cfi_endproc
.LFE5:
	.size	PMU_MeasureChargeParams, .-PMU_MeasureChargeParams
	.section	.rodata
	.align	2
.LC9:
	.ascii	"connected\000"
	.align	2
.LC11:
	.ascii	"disconnected\000"
	.align	2
.LC13:
	.ascii	"PMU charger %s!\015\012\000"
	.align	2
.LC19:
	.ascii	"PMU charging complete!\015\000"
	.align	2
.LC23:
	.ascii	"PMU restart charging!\015\000"
	.align	2
.LC25:
	.ascii	"PMU charging started!\015\000"
	.section	.text.PMU_ChargerTimerHandler,"ax",%progbits
	.align	2
	.code	16
	.thumb_func
	.type	PMU_ChargerTimerHandler, %function
PMU_ChargerTimerHandler:
.LFB6:
	.loc 1 197 0
	.cfi_startproc
	@ args = 0, pretend = 0, frame = 16
	@ frame_needed = 1, uses_anonymous_args = 0
	push	{r4, r7, lr}
	.cfi_def_cfa_offset 12
	.cfi_offset 4, -12
	.cfi_offset 7, -8
	.cfi_offset 14, -4
	sub	sp, sp, #20
	.cfi_def_cfa_offset 32
	add	r7, sp, #0
	.cfi_def_cfa_register 7
	str	r0, [r7, #4]
	.loc 1 198 0
	movs	r3, #15
	adds	r4, r7, r3
	bl	PMU_IsChargerConnected
	movs	r3, r0
	strb	r3, [r4]
	.loc 1 200 0
	ldr	r3, .L66
	ldrb	r3, [r3]
	movs	r2, #15
	adds	r2, r7, r2
	ldrb	r2, [r2]
	cmp	r2, r3
	beq	.L47
	.loc 1 202 0
	movs	r3, #15
	adds	r3, r7, r3
	ldrb	r3, [r3]
	cmp	r3, #0
	beq	.L48
	.loc 1 202 0 is_stmt 0 discriminator 1
	ldr	r3, .L66+4
	b	.L49
.L48:
	.loc 1 202 0 discriminator 2
	ldr	r3, .L66+8
.L49:
	.loc 1 202 0 discriminator 4
	ldr	r2, .L66+12
	movs	r1, r3
	movs	r0, r2
	bl	printf
	.loc 1 202 0 is_stmt 1 discriminator 4
	ldr	r3, .L66+16
	ldr	r3, [r3]
	ldr	r3, [r3, #8]
	.loc 1 202 0 discriminator 4
	movs	r0, r3
	bl	fflush
	.loc 1 203 0 discriminator 4
	ldr	r3, .L66
	movs	r2, #15
	adds	r2, r7, r2
	ldrb	r2, [r2]
	strb	r2, [r3]
	.loc 1 204 0 discriminator 4
	movs	r3, #15
	adds	r3, r7, r3
	ldrb	r3, [r3]
	movs	r0, r3
	bl	PMU_ChargerEnable
.L47:
	.loc 1 206 0
	bl	PMU_MeasureChargeParams
	.loc 1 208 0
	movs	r3, #15
	adds	r3, r7, r3
	ldrb	r3, [r3]
	cmp	r3, #0
	bne	.LCB924
	b	.L50	@long jump
.LCB924:
	.loc 1 210 0
	ldr	r3, .L66+20
	ldrh	r3, [r3]
	lsls	r3, r3, #16
	lsrs	r3, r3, #16
	movs	r2, r3
	movs	r3, #4
	ands	r3, r2
	beq	.L51
	.loc 1 212 0
	ldr	r3, .L66+20
	ldrh	r3, [r3]
	lsls	r3, r3, #16
	lsrs	r3, r3, #16
	movs	r2, r3
	movs	r3, #2
	ands	r3, r2
	beq	.L51
	.loc 1 213 0
	ldr	r2, .L66+20
	ldr	r3, .L66+20
	ldrh	r3, [r3]
	lsls	r3, r3, #16
	lsrs	r3, r3, #16
	movs	r1, #2
	bics	r3, r1
	lsls	r3, r3, #16
	lsrs	r3, r3, #16
	strh	r3, [r2]
.L51:
	.loc 1 215 0
	ldr	r3, .L66+24
	ldrh	r3, [r3]
	cmp	r3, #0
	beq	.L52
	.loc 1 217 0
	ldr	r3, .L66+24
	ldrh	r3, [r3]
	cmp	r3, #25
	bhi	.L53
	.loc 1 219 0
	ldr	r3, .L66+28
	movs	r2, #0
	str	r2, [r3]
	.loc 1 220 0
	movs	r0, #0
	bl	PMU_ChargerEnable
	.loc 1 221 0
	ldr	r3, .L66+32
	ldrb	r3, [r3]
	cmp	r3, #0
	beq	.L62
	.loc 1 222 0
	ldr	r3, .L66+36
	movs	r0, r3
	bl	puts
	.loc 1 222 0
	ldr	r3, .L66+16
	ldr	r3, [r3]
	ldr	r3, [r3, #8]
	.loc 1 222 0
	movs	r0, r3
	bl	fflush
	b	.L62
.L53:
	.loc 1 224 0
	ldr	r3, .L66+28
	ldr	r3, [r3]
	cmp	r3, #5
	bhi	.L62
	.loc 1 224 0 is_stmt 0 discriminator 1
	ldr	r3, .L66+28
	ldr	r3, [r3]
	adds	r2, r3, #1
	ldr	r3, .L66+28
	str	r2, [r3]
	b	.L62
.L52:
	.loc 1 228 0 is_stmt 1
	ldr	r3, .L66+28
	ldr	r3, [r3]
	cmp	r3, #0
	beq	.L57
	.loc 1 228 0 is_stmt 0 discriminator 1
	ldr	r3, .L66+28
	ldr	r3, [r3]
	subs	r2, r3, #1
	ldr	r3, .L66+28
	str	r2, [r3]
.L57:
	.loc 1 229 0 is_stmt 1
	ldr	r3, .L66+40
	ldrh	r3, [r3]
	ldr	r2, .L66+44
	cmp	r3, r2
	bhi	.L58
	.loc 1 231 0
	ldr	r3, .L66+48
	ldr	r3, [r3]
	cmp	r3, #0
	beq	.L59
	.loc 1 231 0 is_stmt 0 discriminator 1
	ldr	r3, .L66+48
	ldr	r3, [r3]
	subs	r2, r3, #1
	ldr	r3, .L66+48
	str	r2, [r3]
	b	.L62
.L59:
	.loc 1 234 0 is_stmt 1
	ldr	r3, .L66+52
	movs	r0, r3
	bl	puts
	.loc 1 234 0
	ldr	r3, .L66+16
	ldr	r3, [r3]
	ldr	r3, [r3, #8]
	.loc 1 234 0
	movs	r0, r3
	bl	fflush
	.loc 1 235 0
	bl	PMU_IsChargerEnabled
	subs	r3, r0, #0
	beq	.L61
	.loc 1 235 0 is_stmt 0 discriminator 1
	movs	r0, #0
	bl	PMU_ChargerEnable
.L61:
	.loc 1 236 0 is_stmt 1
	movs	r0, #1
	bl	PMU_ChargerEnable
	.loc 1 237 0
	ldr	r3, .L66+48
	movs	r2, #20
	str	r2, [r3]
	b	.L62
.L58:
	.loc 1 240 0
	ldr	r3, .L66+48
	movs	r2, #0
	str	r2, [r3]
	b	.L62
.L50:
	.loc 1 243 0
	ldr	r3, .L66+48
	movs	r2, #0
	str	r2, [r3]
	ldr	r3, .L66+48
	ldr	r2, [r3]
	ldr	r3, .L66+28
	str	r2, [r3]
.L62:
	.loc 1 245 0
	ldr	r3, .L66+32
	ldrb	r3, [r3]
	movs	r2, r3
	ldr	r3, .L66+28
	ldr	r3, [r3]
	subs	r3, r3, #6
	rsbs	r1, r3, #0
	adcs	r3, r3, r1
	lsls	r3, r3, #24
	lsrs	r3, r3, #24
	cmp	r2, r3
	beq	.L65
	.loc 1 247 0
	ldr	r3, .L66+32
	ldrb	r3, [r3]
	cmp	r3, #0
	bne	.L64
	.loc 1 247 0 is_stmt 0 discriminator 1
	ldr	r3, .L66+28
	ldr	r3, [r3]
	cmp	r3, #6
	bne	.L64
	.loc 1 249 0 is_stmt 1
	ldr	r3, .L66+32
	movs	r2, #1
	strb	r2, [r3]
	.loc 1 250 0
	ldr	r3, .L66+56
	movs	r0, r3
	bl	puts
	.loc 1 250 0
	ldr	r3, .L66+16
	ldr	r3, [r3]
	ldr	r3, [r3, #8]
	.loc 1 250 0
	movs	r0, r3
	bl	fflush
	.loc 1 254 0
	b	.L65
.L64:
	.loc 1 252 0
	ldr	r3, .L66+28
	ldr	r3, [r3]
	cmp	r3, #0
	bne	.L65
	.loc 1 252 0 is_stmt 0 discriminator 1
	ldr	r3, .L66+32
	movs	r2, #0
	strb	r2, [r3]
.L65:
	.loc 1 254 0 is_stmt 1
	nop
	mov	sp, r7
	add	sp, sp, #20
	@ sp needed
	pop	{r4, r7, pc}
.L67:
	.align	2
.L66:
	.word	PrevChargerState
	.word	.LC9
	.word	.LC11
	.word	.LC13
	.word	_impure_ptr
	.word	-1603270140
	.word	ISense
	.word	ChargeOnDebounce
	.word	BatteryCharging
	.word	.LC19
	.word	VBat
	.word	3799
	.word	RechargeTimeout
	.word	.LC23
	.word	.LC25
	.cfi_endproc
.LFE6:
	.size	PMU_ChargerTimerHandler, .-PMU_ChargerTimerHandler
	.section	.text.PMU_InterruptHandler,"ax",%progbits
	.align	2
	.code	16
	.thumb_func
	.type	PMU_InterruptHandler, %function
PMU_InterruptHandler:
.LFB7:
	.loc 1 257 0
	.cfi_startproc
	@ args = 0, pretend = 0, frame = 0
	@ frame_needed = 1, uses_anonymous_args = 0
	push	{r7, lr}
	.cfi_def_cfa_offset 8
	.cfi_offset 7, -8
	.cfi_offset 14, -4
	add	r7, sp, #0
	.cfi_def_cfa_register 7
	.loc 1 258 0
	ldr	r3, .L69
	movs	r2, #0
	str	r2, [r3]
	.loc 1 259 0
	ldr	r3, .L69+4
	movs	r2, #0
	strb	r2, [r3]
	.loc 1 260 0
	bl	USB_OnCableDisconnect
	.loc 1 261 0
	nop
	mov	sp, r7
	@ sp needed
	pop	{r7, pc}
.L70:
	.align	2
.L69:
	.word	ChargeOnDebounce
	.word	BatteryCharging
	.cfi_endproc
.LFE7:
	.size	PMU_InterruptHandler, .-PMU_InterruptHandler
	.section	.text.PMU_PWRKeyInterruptHandler,"ax",%progbits
	.align	2
	.code	16
	.thumb_func
	.type	PMU_PWRKeyInterruptHandler, %function
PMU_PWRKeyInterruptHandler:
.LFB8:
	.loc 1 264 0
	.cfi_startproc
	@ args = 0, pretend = 0, frame = 0
	@ frame_needed = 1, uses_anonymous_args = 0
	push	{r4, r5, r7, lr}
	.cfi_def_cfa_offset 16
	.cfi_offset 4, -16
	.cfi_offset 5, -12
	.cfi_offset 7, -8
	.cfi_offset 14, -4
	add	r7, sp, #0
	.cfi_def_cfa_register 7
	.loc 1 266 0
	ldr	r3, .L74
	ldr	r3, [r3]
	cmp	r3, #0
	beq	.L73
	.loc 1 267 0
	ldr	r3, .L74
	ldr	r4, [r3]
	bl	PMU_IsPowerKeyPressed
	movs	r3, r0
	movs	r0, r3
	blx	r4
.L73:
	.loc 1 269 0
	nop
	mov	sp, r7
	@ sp needed
	pop	{r4, r5, r7, pc}
.L75:
	.align	2
.L74:
	.word	PWRKEYAppHandler
	.cfi_endproc
.LFE8:
	.size	PMU_PWRKeyInterruptHandler, .-PMU_PWRKeyInterruptHandler
	.section	.text.PMU_IsPowerKeyPressed,"ax",%progbits
	.align	2
	.global	PMU_IsPowerKeyPressed
	.code	16
	.thumb_func
	.type	PMU_IsPowerKeyPressed, %function
PMU_IsPowerKeyPressed:
.LFB9:
	.loc 1 272 0
	.cfi_startproc
	@ args = 0, pretend = 0, frame = 0
	@ frame_needed = 1, uses_anonymous_args = 0
	push	{r7, lr}
	.cfi_def_cfa_offset 8
	.cfi_offset 7, -8
	.cfi_offset 14, -4
	add	r7, sp, #0
	.cfi_def_cfa_register 7
	.loc 1 273 0
	ldr	r3, .L78
	ldrh	r3, [r3]
	lsls	r3, r3, #16
	lsrs	r3, r3, #16
	lsls	r3, r3, #16
	asrs	r3, r3, #16
	mvns	r3, r3
	lsls	r3, r3, #16
	lsrs	r3, r3, #16
	lsrs	r3, r3, #15
	lsls	r3, r3, #24
	lsrs	r3, r3, #24
	.loc 1 274 0
	movs	r0, r3
	mov	sp, r7
	@ sp needed
	pop	{r7, pc}
.L79:
	.align	2
.L78:
	.word	-1603270016
	.cfi_endproc
.LFE9:
	.size	PMU_IsPowerKeyPressed, .-PMU_IsPowerKeyPressed
	.section	.text.PMU_SetPWRKEYHandler,"ax",%progbits
	.align	2
	.global	PMU_SetPWRKEYHandler
	.code	16
	.thumb_func
	.type	PMU_SetPWRKEYHandler, %function
PMU_SetPWRKEYHandler:
.LFB10:
	.loc 1 277 0
	.cfi_startproc
	@ args = 0, pretend = 0, frame = 16
	@ frame_needed = 1, uses_anonymous_args = 0
	push	{r7, lr}
	.cfi_def_cfa_offset 8
	.cfi_offset 7, -8
	.cfi_offset 14, -4
	sub	sp, sp, #16
	.cfi_def_cfa_offset 24
	add	r7, sp, #0
	.cfi_def_cfa_register 7
	str	r0, [r7, #4]
	.loc 1 279 0
	bl	__disable_interrupts
	movs	r3, r0
	str	r3, [r7, #12]
	.loc 1 281 0
	ldr	r3, .L81
	ldr	r2, [r7, #4]
	str	r2, [r3]
	.loc 1 282 0
	ldr	r3, [r7, #12]
	movs	r0, r3
	bl	__restore_interrupts
	.loc 1 284 0
	nop
	mov	sp, r7
	add	sp, sp, #16
	@ sp needed
	pop	{r7, pc}
.L82:
	.align	2
.L81:
	.word	PWRKEYAppHandler
	.cfi_endproc
.LFE10:
	.size	PMU_SetPWRKEYHandler, .-PMU_SetPWRKEYHandler
	.section	.rodata
	.align	2
.LC31:
	.ascii	"PWRKEY long press function set to \000"
	.align	2
.LC34:
	.ascii	"LPF_REBOOT\000"
	.align	2
.LC36:
	.ascii	"LPF_SHUTDOWN\000"
	.align	2
.LC38:
	.ascii	"%s\015\012\000"
	.section	.text.PMU_SetPWRKEYLongPressFunction,"ax",%progbits
	.align	2
	.global	PMU_SetPWRKEYLongPressFunction
	.code	16
	.thumb_func
	.type	PMU_SetPWRKEYLongPressFunction, %function
PMU_SetPWRKEYLongPressFunction:
.LFB11:
	.loc 1 287 0
	.cfi_startproc
	@ args = 0, pretend = 0, frame = 16
	@ frame_needed = 1, uses_anonymous_args = 0
	push	{r7, lr}
	.cfi_def_cfa_offset 8
	.cfi_offset 7, -8
	.cfi_offset 14, -4
	sub	sp, sp, #16
	.cfi_def_cfa_offset 24
	add	r7, sp, #0
	.cfi_def_cfa_register 7
	movs	r2, r0
	adds	r3, r7, #7
	strb	r2, [r3]
	adds	r3, r7, #6
	adds	r2, r1, #0
	strb	r2, [r3]
	.loc 1 288 0
	bl	__disable_interrupts
	movs	r3, r0
	str	r3, [r7, #12]
	.loc 1 290 0
	ldr	r3, .L91
	movs	r0, r3
	bl	printf
	.loc 1 290 0
	ldr	r3, .L91+4
	ldr	r3, [r3]
	ldr	r3, [r3, #8]
	.loc 1 290 0
	movs	r0, r3
	bl	fflush
	.loc 1 292 0
	adds	r3, r7, #7
	ldrb	r3, [r3]
	cmp	r3, #0
	bne	.L84
	.loc 1 292 0 is_stmt 0 discriminator 1
	ldr	r2, .L91+8
	ldr	r3, .L91+8
	ldrh	r3, [r3]
	lsls	r3, r3, #16
	lsrs	r3, r3, #16
	movs	r1, #64
	bics	r3, r1
	lsls	r3, r3, #16
	lsrs	r3, r3, #16
	strh	r3, [r2]
	b	.L85
.L84:
	.loc 1 293 0 is_stmt 1
	adds	r3, r7, #7
	ldrb	r3, [r3]
	cmp	r3, #1
	bne	.L90
	.loc 1 293 0 is_stmt 0 discriminator 1
	ldr	r2, .L91+8
	ldr	r3, .L91+8
	ldrh	r3, [r3]
	lsls	r3, r3, #16
	lsrs	r3, r3, #16
	movs	r1, #64
	orrs	r3, r1
	lsls	r3, r3, #16
	lsrs	r3, r3, #16
	strh	r3, [r2]
.L85:
	.loc 1 296 0 is_stmt 1
	ldr	r1, .L91+8
	ldr	r3, .L91+8
	ldrh	r3, [r3]
	lsls	r3, r3, #16
	lsrs	r3, r3, #16
	movs	r2, r3
	movs	r3, #1
	bics	r2, r3
	adds	r3, r7, #6
	ldrb	r3, [r3]
	orrs	r3, r2
	subs	r2, r3, #1
	sbcs	r3, r3, r2
	lsls	r3, r3, #24
	lsrs	r3, r3, #24
	lsls	r3, r3, #16
	lsrs	r3, r3, #16
	strh	r3, [r1]
	.loc 1 298 0
	ldr	r2, .L91+8
	ldr	r3, .L91+8
	ldrh	r3, [r3]
	lsls	r3, r3, #16
	lsrs	r3, r3, #16
	movs	r1, #16
	bics	r3, r1
	lsls	r3, r3, #16
	lsrs	r3, r3, #16
	strh	r3, [r2]
	.loc 1 299 0
	ldr	r2, .L91+8
	ldr	r3, .L91+8
	ldrh	r3, [r3]
	lsls	r3, r3, #16
	lsrs	r3, r3, #16
	movs	r1, #16
	orrs	r3, r1
	lsls	r3, r3, #16
	lsrs	r3, r3, #16
	strh	r3, [r2]
	.loc 1 300 0
	ldr	r2, .L91+8
	ldr	r3, .L91+8
	ldrh	r3, [r3]
	lsls	r3, r3, #16
	lsrs	r3, r3, #16
	movs	r1, #16
	bics	r3, r1
	lsls	r3, r3, #16
	lsrs	r3, r3, #16
	strh	r3, [r2]
	.loc 1 302 0
	adds	r3, r7, #7
	ldrb	r3, [r3]
	cmp	r3, #0
	bne	.L88
	.loc 1 302 0 is_stmt 0 discriminator 1
	ldr	r3, .L91+12
	b	.L89
.L88:
	.loc 1 302 0 discriminator 2
	ldr	r3, .L91+16
.L89:
	.loc 1 302 0 discriminator 4
	ldr	r2, .L91+20
	movs	r1, r3
	movs	r0, r2
	bl	printf
	.loc 1 302 0 is_stmt 1 discriminator 4
	ldr	r3, .L91+4
	ldr	r3, [r3]
	ldr	r3, [r3, #8]
	.loc 1 302 0 discriminator 4
	movs	r0, r3
	bl	fflush
	.loc 1 304 0 discriminator 4
	ldr	r3, [r7, #12]
	movs	r0, r3
	bl	__restore_interrupts
	b	.L83
.L90:
	.loc 1 294 0
	nop
.L83:
	.loc 1 305 0
	mov	sp, r7
	add	sp, sp, #16
	@ sp needed
	pop	{r7, pc}
.L92:
	.align	2
.L91:
	.word	.LC31
	.word	_impure_ptr
	.word	-1603268864
	.word	.LC34
	.word	.LC36
	.word	.LC38
	.cfi_endproc
.LFE11:
	.size	PMU_SetPWRKEYLongPressFunction, .-PMU_SetPWRKEYLongPressFunction
	.section	.text.PMU_SetChargerWDTEnabled,"ax",%progbits
	.align	2
	.global	PMU_SetChargerWDTEnabled
	.code	16
	.thumb_func
	.type	PMU_SetChargerWDTEnabled, %function
PMU_SetChargerWDTEnabled:
.LFB12:
	.loc 1 308 0
	.cfi_startproc
	@ args = 0, pretend = 0, frame = 8
	@ frame_needed = 1, uses_anonymous_args = 0
	push	{r7, lr}
	.cfi_def_cfa_offset 8
	.cfi_offset 7, -8
	.cfi_offset 14, -4
	sub	sp, sp, #8
	.cfi_def_cfa_offset 16
	add	r7, sp, #0
	.cfi_def_cfa_register 7
	movs	r2, r0
	adds	r3, r7, #7
	strb	r2, [r3]
	.loc 1 309 0
	ldr	r2, .L98
	ldr	r3, .L98
	ldrh	r3, [r3]
	lsls	r3, r3, #16
	lsrs	r3, r3, #16
	movs	r1, #32
	orrs	r3, r1
	lsls	r3, r3, #16
	lsrs	r3, r3, #16
	strh	r3, [r2]
	.loc 1 310 0
	adds	r3, r7, #7
	ldrb	r3, [r3]
	cmp	r3, #0
	beq	.L94
	.loc 1 310 0 is_stmt 0 discriminator 1
	ldr	r2, .L98
	ldr	r3, .L98
	ldrh	r3, [r3]
	lsls	r3, r3, #16
	lsrs	r3, r3, #16
	movs	r1, #16
	orrs	r3, r1
	lsls	r3, r3, #16
	lsrs	r3, r3, #16
	strh	r3, [r2]
	b	.L97
.L94:
	.loc 1 311 0 is_stmt 1
	ldr	r2, .L98
	ldr	r3, .L98
	ldrh	r3, [r3]
	lsls	r3, r3, #16
	lsrs	r3, r3, #16
	movs	r1, #16
	bics	r3, r1
	lsls	r3, r3, #16
	lsrs	r3, r3, #16
	strh	r3, [r2]
.L97:
	.loc 1 313 0
	nop
.L96:
	.loc 1 313 0 is_stmt 0 discriminator 1
	ldr	r3, .L98
	ldrh	r3, [r3]
	lsls	r3, r3, #16
	lsrs	r3, r3, #16
	lsls	r3, r3, #16
	asrs	r3, r3, #16
	bmi	.L96
	.loc 1 315 0 is_stmt 1
	ldr	r1, .L98
	ldr	r3, .L98
	ldrh	r3, [r3]
	lsls	r3, r3, #16
	lsrs	r3, r3, #16
	movs	r2, #128
	lsls	r2, r2, #2
	orrs	r3, r2
	lsls	r3, r3, #16
	lsrs	r3, r3, #16
	strh	r3, [r1]
	.loc 1 316 0
	nop
	mov	sp, r7
	add	sp, sp, #8
	@ sp needed
	pop	{r7, pc}
.L99:
	.align	2
.L98:
	.word	-1603270108
	.cfi_endproc
.LFE12:
	.size	PMU_SetChargerWDTEnabled, .-PMU_SetChargerWDTEnabled
	.section	.text.PMU_SetChargerWDTInterval,"ax",%progbits
	.align	2
	.global	PMU_SetChargerWDTInterval
	.code	16
	.thumb_func
	.type	PMU_SetChargerWDTInterval, %function
PMU_SetChargerWDTInterval:
.LFB13:
	.loc 1 319 0
	.cfi_startproc
	@ args = 0, pretend = 0, frame = 8
	@ frame_needed = 1, uses_anonymous_args = 0
	push	{r7, lr}
	.cfi_def_cfa_offset 8
	.cfi_offset 7, -8
	.cfi_offset 14, -4
	sub	sp, sp, #8
	.cfi_def_cfa_offset 16
	add	r7, sp, #0
	.cfi_def_cfa_register 7
	movs	r2, r0
	adds	r3, r7, #7
	strb	r2, [r3]
	.loc 1 320 0
	ldr	r1, .L102
	ldr	r3, .L102
	ldrh	r3, [r3]
	lsls	r3, r3, #16
	lsrs	r3, r3, #16
	lsls	r3, r3, #16
	asrs	r3, r3, #16
	movs	r2, #15
	bics	r3, r2
	lsls	r2, r3, #16
	asrs	r2, r2, #16
	adds	r3, r7, #7
	ldrb	r3, [r3]
	lsls	r3, r3, #16
	asrs	r3, r3, #16
	movs	r0, #15
	ands	r3, r0
	lsls	r3, r3, #16
	asrs	r3, r3, #16
	orrs	r3, r2
	lsls	r3, r3, #16
	asrs	r3, r3, #16
	movs	r2, #32
	orrs	r3, r2
	lsls	r3, r3, #16
	asrs	r3, r3, #16
	lsls	r3, r3, #16
	lsrs	r3, r3, #16
	strh	r3, [r1]
	.loc 1 322 0
	nop
.L101:
	.loc 1 322 0 is_stmt 0 discriminator 1
	ldr	r3, .L102
	ldrh	r3, [r3]
	lsls	r3, r3, #16
	lsrs	r3, r3, #16
	lsls	r3, r3, #16
	asrs	r3, r3, #16
	bmi	.L101
	.loc 1 324 0 is_stmt 1
	ldr	r1, .L102
	ldr	r3, .L102
	ldrh	r3, [r3]
	lsls	r3, r3, #16
	lsrs	r3, r3, #16
	movs	r2, #128
	lsls	r2, r2, #2
	orrs	r3, r2
	lsls	r3, r3, #16
	lsrs	r3, r3, #16
	strh	r3, [r1]
	.loc 1 325 0
	nop
	mov	sp, r7
	add	sp, sp, #8
	@ sp needed
	pop	{r7, pc}
.L103:
	.align	2
.L102:
	.word	-1603270108
	.cfi_endproc
.LFE13:
	.size	PMU_SetChargerWDTInterval, .-PMU_SetChargerWDTInterval
	.section	.text.PMU_IsChargerConnected,"ax",%progbits
	.align	2
	.global	PMU_IsChargerConnected
	.code	16
	.thumb_func
	.type	PMU_IsChargerConnected, %function
PMU_IsChargerConnected:
.LFB14:
	.loc 1 328 0
	.cfi_startproc
	@ args = 0, pretend = 0, frame = 0
	@ frame_needed = 1, uses_anonymous_args = 0
	push	{r7, lr}
	.cfi_def_cfa_offset 8
	.cfi_offset 7, -8
	.cfi_offset 14, -4
	add	r7, sp, #0
	.cfi_def_cfa_register 7
	.loc 1 329 0
	ldr	r3, .L106
	ldrh	r3, [r3]
	lsls	r3, r3, #16
	lsrs	r3, r3, #16
	movs	r2, r3
	movs	r3, #32
	ands	r3, r2
	subs	r2, r3, #1
	sbcs	r3, r3, r2
	lsls	r3, r3, #24
	lsrs	r3, r3, #24
	.loc 1 330 0
	movs	r0, r3
	mov	sp, r7
	@ sp needed
	pop	{r7, pc}
.L107:
	.align	2
.L106:
	.word	-1603270144
	.cfi_endproc
.LFE14:
	.size	PMU_IsChargerConnected, .-PMU_IsChargerConnected
	.section	.text.PMU_IsBatteryCharging,"ax",%progbits
	.align	2
	.global	PMU_IsBatteryCharging
	.code	16
	.thumb_func
	.type	PMU_IsBatteryCharging, %function
PMU_IsBatteryCharging:
.LFB15:
	.loc 1 333 0
	.cfi_startproc
	@ args = 0, pretend = 0, frame = 0
	@ frame_needed = 1, uses_anonymous_args = 0
	push	{r7, lr}
	.cfi_def_cfa_offset 8
	.cfi_offset 7, -8
	.cfi_offset 14, -4
	add	r7, sp, #0
	.cfi_def_cfa_register 7
	.loc 1 335 0
	ldr	r3, .L110
	ldrb	r3, [r3]
	.loc 1 339 0
	movs	r0, r3
	mov	sp, r7
	@ sp needed
	pop	{r7, pc}
.L111:
	.align	2
.L110:
	.word	BatteryCharging
	.cfi_endproc
.LFE15:
	.size	PMU_IsBatteryCharging, .-PMU_IsBatteryCharging
	.section	.text.PMU_GetBatteryVoltageMV,"ax",%progbits
	.align	2
	.global	PMU_GetBatteryVoltageMV
	.code	16
	.thumb_func
	.type	PMU_GetBatteryVoltageMV, %function
PMU_GetBatteryVoltageMV:
.LFB16:
	.loc 1 342 0
	.cfi_startproc
	@ args = 0, pretend = 0, frame = 0
	@ frame_needed = 1, uses_anonymous_args = 0
	push	{r7, lr}
	.cfi_def_cfa_offset 8
	.cfi_offset 7, -8
	.cfi_offset 14, -4
	add	r7, sp, #0
	.cfi_def_cfa_register 7
	.loc 1 344 0
	bl	PMU_MeasureChargeParams
	.loc 1 345 0
	ldr	r3, .L114
	ldrh	r3, [r3]
	.loc 1 349 0
	movs	r0, r3
	mov	sp, r7
	@ sp needed
	pop	{r7, pc}
.L115:
	.align	2
.L114:
	.word	VBat
	.cfi_endproc
.LFE16:
	.size	PMU_GetBatteryVoltageMV, .-PMU_GetBatteryVoltageMV
	.section	.text.PMU_GetBatteryChargeLevel,"ax",%progbits
	.align	2
	.global	PMU_GetBatteryChargeLevel
	.code	16
	.thumb_func
	.type	PMU_GetBatteryChargeLevel, %function
PMU_GetBatteryChargeLevel:
.LFB17:
	.loc 1 352 0
	.cfi_startproc
	@ args = 0, pretend = 0, frame = 0
	@ frame_needed = 1, uses_anonymous_args = 0
	push	{r7, lr}
	.cfi_def_cfa_offset 8
	.cfi_offset 7, -8
	.cfi_offset 14, -4
	add	r7, sp, #0
	.cfi_def_cfa_register 7
	.loc 1 354 0
	ldr	r3, .L118
	ldrh	r3, [r3]
	.loc 1 358 0
	movs	r0, r3
	mov	sp, r7
	@ sp needed
	pop	{r7, pc}
.L119:
	.align	2
.L118:
	.word	ChargeLevel
	.cfi_endproc
.LFE17:
	.size	PMU_GetBatteryChargeLevel, .-PMU_GetBatteryChargeLevel
	.section	.text.PMU_EnableUSBDLMode,"ax",%progbits
	.align	2
	.global	PMU_EnableUSBDLMode
	.code	16
	.thumb_func
	.type	PMU_EnableUSBDLMode, %function
PMU_EnableUSBDLMode:
.LFB18:
	.loc 1 361 0
	.cfi_startproc
	@ args = 0, pretend = 0, frame = 0
	@ frame_needed = 1, uses_anonymous_args = 0
	push	{r7, lr}
	.cfi_def_cfa_offset 8
	.cfi_offset 7, -8
	.cfi_offset 14, -4
	add	r7, sp, #0
	.cfi_def_cfa_register 7
	.loc 1 362 0
	ldr	r2, .L121
	ldr	r3, .L121
	ldrh	r3, [r3]
	lsls	r3, r3, #16
	lsrs	r3, r3, #16
	lsls	r3, r3, #18
	lsrs	r3, r3, #18
	lsls	r3, r3, #16
	lsrs	r3, r3, #16
	strh	r3, [r2]
	.loc 1 363 0
	ldr	r2, .L121+4
	ldr	r3, .L121+4
	ldrh	r3, [r3]
	lsls	r3, r3, #16
	lsrs	r3, r3, #16
	movs	r1, #16
	orrs	r3, r1
	lsls	r3, r3, #16
	lsrs	r3, r3, #16
	strh	r3, [r2]
	.loc 1 364 0
	nop
	mov	sp, r7
	@ sp needed
	pop	{r7, pc}
.L122:
	.align	2
.L121:
	.word	-1603270104
	.word	-1603270016
	.cfi_endproc
.LFE18:
	.size	PMU_EnableUSBDLMode, .-PMU_EnableUSBDLMode
	.section	.text.PMU_DisableUSBDLMode,"ax",%progbits
	.align	2
	.global	PMU_DisableUSBDLMode
	.code	16
	.thumb_func
	.type	PMU_DisableUSBDLMode, %function
PMU_DisableUSBDLMode:
.LFB19:
	.loc 1 367 0
	.cfi_startproc
	@ args = 0, pretend = 0, frame = 0
	@ frame_needed = 1, uses_anonymous_args = 0
	push	{r7, lr}
	.cfi_def_cfa_offset 8
	.cfi_offset 7, -8
	.cfi_offset 14, -4
	add	r7, sp, #0
	.cfi_def_cfa_register 7
	.loc 1 368 0
	ldr	r2, .L124
	ldr	r3, .L124
	ldrh	r3, [r3]
	lsls	r3, r3, #16
	lsrs	r3, r3, #16
	movs	r1, #16
	bics	r3, r1
	lsls	r3, r3, #16
	lsrs	r3, r3, #16
	strh	r3, [r2]
	.loc 1 370 0
	ldr	r1, .L124+4
	ldr	r3, .L124+4
	ldrh	r3, [r3]
	lsls	r3, r3, #16
	lsrs	r3, r3, #16
	lsls	r3, r3, #16
	asrs	r3, r3, #16
	lsls	r3, r3, #18
	lsrs	r3, r3, #18
	lsls	r3, r3, #16
	asrs	r3, r3, #16
	movs	r2, #128
	lsls	r2, r2, #7
	orrs	r3, r2
	lsls	r3, r3, #16
	asrs	r3, r3, #16
	lsls	r3, r3, #16
	lsrs	r3, r3, #16
	strh	r3, [r1]
	.loc 1 374 0
	nop
	mov	sp, r7
	@ sp needed
	pop	{r7, pc}
.L125:
	.align	2
.L124:
	.word	-1603270016
	.word	-1603270104
	.cfi_endproc
.LFE19:
	.size	PMU_DisableUSBDLMode, .-PMU_DisableUSBDLMode
	.section	.text.PMU_SetVibrationOutput,"ax",%progbits
	.align	2
	.global	PMU_SetVibrationOutput
	.code	16
	.thumb_func
	.type	PMU_SetVibrationOutput, %function
PMU_SetVibrationOutput:
.LFB20:
	.loc 1 377 0
	.cfi_startproc
	@ args = 0, pretend = 0, frame = 16
	@ frame_needed = 1, uses_anonymous_args = 0
	push	{r7, lr}
	.cfi_def_cfa_offset 8
	.cfi_offset 7, -8
	.cfi_offset 14, -4
	sub	sp, sp, #16
	.cfi_def_cfa_offset 24
	add	r7, sp, #0
	.cfi_def_cfa_register 7
	movs	r2, r0
	adds	r3, r7, #7
	strb	r2, [r3]
	.loc 1 379 0
	adds	r3, r7, #7
	ldrb	r3, [r3]
	subs	r2, r3, #1
	sbcs	r3, r3, r2
	lsls	r3, r3, #24
	lsrs	r2, r3, #24
	movs	r3, #14
	adds	r3, r7, r3
	strh	r2, [r3]
	.loc 1 382 0
	ldr	r2, .L127
	movs	r3, #14
	adds	r3, r7, r3
	ldrh	r3, [r3]
	movs	r1, #2
	orrs	r3, r1
	lsls	r3, r3, #16
	lsrs	r3, r3, #16
	strh	r3, [r2]
	.loc 1 389 0
	nop
	mov	sp, r7
	add	sp, sp, #16
	@ sp needed
	pop	{r7, pc}
.L128:
	.align	2
.L127:
	.word	-1603272272
	.cfi_endproc
.LFE20:
	.size	PMU_SetVibrationOutput, .-PMU_SetVibrationOutput
	.section	.text.PMU_DisableISINKs,"ax",%progbits
	.align	2
	.global	PMU_DisableISINKs
	.code	16
	.thumb_func
	.type	PMU_DisableISINKs, %function
PMU_DisableISINKs:
.LFB21:
	.loc 1 392 0
	.cfi_startproc
	@ args = 0, pretend = 0, frame = 0
	@ frame_needed = 1, uses_anonymous_args = 0
	push	{r7, lr}
	.cfi_def_cfa_offset 8
	.cfi_offset 7, -8
	.cfi_offset 14, -4
	add	r7, sp, #0
	.cfi_def_cfa_register 7
	.loc 1 393 0
	movs	r1, #0
	movs	r0, #0
	bl	PMU_SetISINKOutput
	.loc 1 394 0
	movs	r1, #0
	movs	r0, #1
	bl	PMU_SetISINKOutput
	.loc 1 395 0
	nop
	mov	sp, r7
	@ sp needed
	pop	{r7, pc}
	.cfi_endproc
.LFE21:
	.size	PMU_DisableISINKs, .-PMU_DisableISINKs
	.section	.text.PMU_SetISINKMode,"ax",%progbits
	.align	2
	.global	PMU_SetISINKMode
	.code	16
	.thumb_func
	.type	PMU_SetISINKMode, %function
PMU_SetISINKMode:
.LFB22:
	.loc 1 398 0
	.cfi_startproc
	@ args = 0, pretend = 0, frame = 8
	@ frame_needed = 1, uses_anonymous_args = 0
	push	{r7, lr}
	.cfi_def_cfa_offset 8
	.cfi_offset 7, -8
	.cfi_offset 14, -4
	sub	sp, sp, #8
	.cfi_def_cfa_offset 16
	add	r7, sp, #0
	.cfi_def_cfa_register 7
	movs	r2, r0
	adds	r3, r7, #7
	strb	r2, [r3]
	.loc 1 399 0
	adds	r3, r7, #7
	ldrb	r3, [r3]
	cmp	r3, #0
	beq	.L131
	.loc 1 399 0 is_stmt 0 discriminator 1
	ldr	r3, .L134
	movs	r2, #0
	strh	r2, [r3]
	.loc 1 401 0 is_stmt 1 discriminator 1
	b	.L133
.L131:
	.loc 1 400 0
	ldr	r3, .L134
	movs	r2, #1
	strh	r2, [r3]
.L133:
	.loc 1 401 0
	nop
	mov	sp, r7
	add	sp, sp, #8
	@ sp needed
	pop	{r7, pc}
.L135:
	.align	2
.L134:
	.word	-1603269632
	.cfi_endproc
.LFE22:
	.size	PMU_SetISINKMode, .-PMU_SetISINKMode
	.section	.text.PMU_SetISINKOutput,"ax",%progbits
	.align	2
	.global	PMU_SetISINKOutput
	.code	16
	.thumb_func
	.type	PMU_SetISINKOutput, %function
PMU_SetISINKOutput:
.LFB23:
	.loc 1 404 0
	.cfi_startproc
	@ args = 0, pretend = 0, frame = 16
	@ frame_needed = 1, uses_anonymous_args = 0
	push	{r7, lr}
	.cfi_def_cfa_offset 8
	.cfi_offset 7, -8
	.cfi_offset 14, -4
	sub	sp, sp, #16
	.cfi_def_cfa_offset 24
	add	r7, sp, #0
	.cfi_def_cfa_register 7
	movs	r2, r0
	adds	r3, r7, #7
	strb	r2, [r3]
	adds	r3, r7, #6
	adds	r2, r1, #0
	strb	r2, [r3]
	.loc 1 407 0
	adds	r3, r7, #7
	ldrb	r3, [r3]
	cmp	r3, #0
	bne	.L137
	.loc 1 407 0 is_stmt 0 discriminator 1
	ldr	r3, .L144
	str	r3, [r7, #12]
	b	.L138
.L137:
	.loc 1 408 0 is_stmt 1
	adds	r3, r7, #7
	ldrb	r3, [r3]
	cmp	r3, #1
	bne	.L143
	.loc 1 408 0 is_stmt 0 discriminator 1
	ldr	r3, .L144+4
	str	r3, [r7, #12]
.L138:
	.loc 1 411 0 is_stmt 1
	adds	r3, r7, #6
	ldrb	r3, [r3]
	cmp	r3, #0
	beq	.L141
	.loc 1 411 0 is_stmt 0 discriminator 1
	ldr	r3, [r7, #12]
	ldrh	r3, [r3]
	lsls	r3, r3, #16
	lsrs	r3, r3, #16
	movs	r2, #1
	orrs	r3, r2
	lsls	r3, r3, #16
	lsrs	r2, r3, #16
	ldr	r3, [r7, #12]
	strh	r2, [r3]
	b	.L142
.L141:
	.loc 1 412 0 is_stmt 1
	ldr	r3, [r7, #12]
	ldrh	r3, [r3]
	lsls	r3, r3, #16
	lsrs	r3, r3, #16
	movs	r2, #1
	bics	r3, r2
	lsls	r3, r3, #16
	lsrs	r2, r3, #16
	ldr	r3, [r7, #12]
	strh	r2, [r3]
.L142:
	.loc 1 414 0
	ldr	r3, [r7, #12]
	ldrh	r3, [r3]
	lsls	r3, r3, #16
	lsrs	r3, r3, #16
	movs	r2, #1
	bics	r3, r2
	lsls	r3, r3, #16
	lsrs	r2, r3, #16
	ldr	r3, [r7, #12]
	strh	r2, [r3]
	b	.L136
.L143:
	.loc 1 409 0
	nop
.L136:
	.loc 1 415 0
	mov	sp, r7
	add	sp, sp, #16
	@ sp needed
	pop	{r7, pc}
.L145:
	.align	2
.L144:
	.word	-1603269616
	.word	-1603269600
	.cfi_endproc
.LFE23:
	.size	PMU_SetISINKOutput, .-PMU_SetISINKOutput
	.section	.text.PMU_SetISINKParameters,"ax",%progbits
	.align	2
	.global	PMU_SetISINKParameters
	.code	16
	.thumb_func
	.type	PMU_SetISINKParameters, %function
PMU_SetISINKParameters:
.LFB24:
	.loc 1 418 0
	.cfi_startproc
	@ args = 0, pretend = 0, frame = 16
	@ frame_needed = 1, uses_anonymous_args = 0
	push	{r4, r7, lr}
	.cfi_def_cfa_offset 12
	.cfi_offset 4, -12
	.cfi_offset 7, -8
	.cfi_offset 14, -4
	sub	sp, sp, #20
	.cfi_def_cfa_offset 32
	add	r7, sp, #0
	.cfi_def_cfa_register 7
	movs	r4, r0
	movs	r0, r1
	movs	r1, r2
	adds	r3, r7, #7
	adds	r2, r4, #0
	strb	r2, [r3]
	adds	r3, r7, #6
	adds	r2, r0, #0
	strb	r2, [r3]
	adds	r3, r7, #5
	adds	r2, r1, #0
	strb	r2, [r3]
	.loc 1 422 0
	adds	r3, r7, #7
	ldrb	r3, [r3]
	cmp	r3, #0
	bne	.L147
	.loc 1 422 0 is_stmt 0 discriminator 1
	ldr	r3, .L162
	str	r3, [r7, #12]
	b	.L148
.L147:
	.loc 1 423 0 is_stmt 1
	adds	r3, r7, #7
	ldrb	r3, [r3]
	cmp	r3, #1
	beq	.LCB2106
	b	.L161	@long jump
.LCB2106:
	.loc 1 423 0 is_stmt 0 discriminator 1
	ldr	r3, .L162+4
	str	r3, [r7, #12]
.L148:
	.loc 1 426 0 is_stmt 1
	adds	r3, r7, #5
	ldrb	r3, [r3]
	subs	r2, r3, #1
	sbcs	r3, r3, r2
	lsls	r3, r3, #24
	lsrs	r2, r3, #24
	movs	r3, #10
	adds	r3, r7, r3
	strh	r2, [r3]
	.loc 1 428 0
	adds	r3, r7, #6
	ldrb	r3, [r3]
	cmp	r3, #8
	bhi	.L146
	lsls	r2, r3, #2
	ldr	r3, .L162+8
	adds	r3, r2, r3
	ldr	r3, [r3]
	mov	pc, r3
	.section	.rodata.PMU_SetISINKParameters,"a",%progbits
	.align	2
.L152:
	.word	.L151
	.word	.L153
	.word	.L154
	.word	.L155
	.word	.L156
	.word	.L157
	.word	.L158
	.word	.L159
	.word	.L160
	.section	.text.PMU_SetISINKParameters
.L151:
	.loc 1 431 0
	ldr	r3, [r7, #12]
	movs	r2, #10
	adds	r2, r7, r2
	ldrh	r2, [r2]
	strh	r2, [r3]
	.loc 1 432 0
	b	.L146
.L153:
	.loc 1 434 0
	movs	r3, #10
	adds	r3, r7, r3
	ldrh	r3, [r3]
	movs	r2, #16
	orrs	r3, r2
	lsls	r3, r3, #16
	lsrs	r2, r3, #16
	ldr	r3, [r7, #12]
	strh	r2, [r3]
	.loc 1 435 0
	b	.L146
.L154:
	.loc 1 437 0
	movs	r3, #10
	adds	r3, r7, r3
	ldrh	r3, [r3]
	movs	r2, #32
	orrs	r3, r2
	lsls	r3, r3, #16
	lsrs	r2, r3, #16
	ldr	r3, [r7, #12]
	strh	r2, [r3]
	.loc 1 438 0
	b	.L146
.L155:
	.loc 1 440 0
	movs	r3, #10
	adds	r3, r7, r3
	ldrh	r3, [r3]
	movs	r2, #48
	orrs	r3, r2
	lsls	r3, r3, #16
	lsrs	r2, r3, #16
	ldr	r3, [r7, #12]
	strh	r2, [r3]
	.loc 1 441 0
	b	.L146
.L156:
	.loc 1 443 0
	movs	r3, #10
	adds	r3, r7, r3
	ldrh	r3, [r3]
	movs	r2, #96
	orrs	r3, r2
	lsls	r3, r3, #16
	lsrs	r2, r3, #16
	ldr	r3, [r7, #12]
	strh	r2, [r3]
	.loc 1 444 0
	b	.L146
.L157:
	.loc 1 446 0
	movs	r3, #10
	adds	r3, r7, r3
	ldrh	r3, [r3]
	movs	r2, #112
	orrs	r3, r2
	lsls	r3, r3, #16
	lsrs	r2, r3, #16
	ldr	r3, [r7, #12]
	strh	r2, [r3]
	.loc 1 447 0
	b	.L146
.L158:
	.loc 1 449 0
	movs	r3, #10
	adds	r3, r7, r3
	ldrh	r3, [r3]
	movs	r2, #152
	lsls	r2, r2, #1
	orrs	r3, r2
	lsls	r3, r3, #16
	lsrs	r2, r3, #16
	ldr	r3, [r7, #12]
	strh	r2, [r3]
	.loc 1 450 0
	b	.L146
.L159:
	.loc 1 452 0
	movs	r3, #10
	adds	r3, r7, r3
	ldrh	r3, [r3]
	movs	r2, #176
	lsls	r2, r2, #1
	orrs	r3, r2
	lsls	r3, r3, #16
	lsrs	r2, r3, #16
	ldr	r3, [r7, #12]
	strh	r2, [r3]
	.loc 1 453 0
	b	.L146
.L160:
	.loc 1 455 0
	movs	r3, #10
	adds	r3, r7, r3
	ldrh	r3, [r3]
	movs	r2, #184
	lsls	r2, r2, #1
	orrs	r3, r2
	lsls	r3, r3, #16
	lsrs	r2, r3, #16
	ldr	r3, [r7, #12]
	strh	r2, [r3]
	.loc 1 456 0
	nop
	b	.L146
.L161:
	.loc 1 424 0
	nop
.L146:
	.loc 1 458 0
	mov	sp, r7
	add	sp, sp, #20
	@ sp needed
	pop	{r4, r7, pc}
.L163:
	.align	2
.L162:
	.word	-1603269616
	.word	-1603269600
	.word	.L152
	.cfi_endproc
.LFE24:
	.size	PMU_SetISINKParameters, .-PMU_SetISINKParameters
	.section	.text.PMU_TurnOnVUSB,"ax",%progbits
	.align	2
	.global	PMU_TurnOnVUSB
	.code	16
	.thumb_func
	.type	PMU_TurnOnVUSB, %function
PMU_TurnOnVUSB:
.LFB25:
	.loc 1 461 0
	.cfi_startproc
	@ args = 0, pretend = 0, frame = 8
	@ frame_needed = 1, uses_anonymous_args = 0
	push	{r7, lr}
	.cfi_def_cfa_offset 8
	.cfi_offset 7, -8
	.cfi_offset 14, -4
	sub	sp, sp, #8
	.cfi_def_cfa_offset 16
	add	r7, sp, #0
	.cfi_def_cfa_register 7
	movs	r2, r0
	adds	r3, r7, #7
	strb	r2, [r3]
	.loc 1 462 0
	adds	r3, r7, #7
	ldrb	r3, [r3]
	cmp	r3, #0
	beq	.L165
	.loc 1 462 0 is_stmt 0 discriminator 1
	ldr	r2, .L168
	ldr	r3, .L168
	ldrh	r3, [r3]
	lsls	r3, r3, #16
	lsrs	r3, r3, #16
	movs	r1, #1
	orrs	r3, r1
	lsls	r3, r3, #16
	lsrs	r3, r3, #16
	strh	r3, [r2]
	.loc 1 464 0 is_stmt 1 discriminator 1
	b	.L167
.L165:
	.loc 1 463 0
	ldr	r2, .L168
	ldr	r3, .L168
	ldrh	r3, [r3]
	lsls	r3, r3, #16
	lsrs	r3, r3, #16
	movs	r1, #1
	bics	r3, r1
	lsls	r3, r3, #16
	lsrs	r3, r3, #16
	strh	r3, [r2]
.L167:
	.loc 1 464 0
	nop
	mov	sp, r7
	add	sp, sp, #8
	@ sp needed
	pop	{r7, pc}
.L169:
	.align	2
.L168:
	.word	-1603272352
	.cfi_endproc
.LFE25:
	.size	PMU_TurnOnVUSB, .-PMU_TurnOnVUSB
	.section	.text.PMU_TurnOnVMC,"ax",%progbits
	.align	2
	.global	PMU_TurnOnVMC
	.code	16
	.thumb_func
	.type	PMU_TurnOnVMC, %function
PMU_TurnOnVMC:
.LFB26:
	.loc 1 467 0
	.cfi_startproc
	@ args = 0, pretend = 0, frame = 16
	@ frame_needed = 1, uses_anonymous_args = 0
	push	{r7, lr}
	.cfi_def_cfa_offset 8
	.cfi_offset 7, -8
	.cfi_offset 14, -4
	sub	sp, sp, #16
	.cfi_def_cfa_offset 24
	add	r7, sp, #0
	.cfi_def_cfa_register 7
	movs	r2, r0
	adds	r3, r7, #7
	strb	r2, [r3]
	.loc 1 468 0
	adds	r3, r7, #7
	ldrb	r3, [r3]
	subs	r2, r3, #1
	sbcs	r3, r3, r2
	lsls	r3, r3, #24
	lsrs	r2, r3, #24
	movs	r3, #14
	adds	r3, r7, r3
	strh	r2, [r3]
	.loc 1 470 0
	ldr	r1, .L171
	ldr	r3, .L171
	ldrh	r3, [r3]
	lsls	r3, r3, #16
	lsrs	r3, r3, #16
	movs	r2, #3
	bics	r3, r2
	lsls	r3, r3, #16
	lsrs	r2, r3, #16
	movs	r3, #14
	adds	r3, r7, r3
	ldrh	r3, [r3]
	orrs	r3, r2
	lsls	r3, r3, #16
	lsrs	r3, r3, #16
	movs	r2, #2
	orrs	r3, r2
	lsls	r3, r3, #16
	lsrs	r3, r3, #16
	strh	r3, [r1]
	.loc 1 475 0
	nop
	mov	sp, r7
	add	sp, sp, #16
	@ sp needed
	pop	{r7, pc}
.L172:
	.align	2
.L171:
	.word	-1603272256
	.cfi_endproc
.LFE26:
	.size	PMU_TurnOnVMC, .-PMU_TurnOnVMC
	.section	.text.PMU_SetVoltageVMC,"ax",%progbits
	.align	2
	.global	PMU_SetVoltageVMC
	.code	16
	.thumb_func
	.type	PMU_SetVoltageVMC, %function
PMU_SetVoltageVMC:
.LFB27:
	.loc 1 478 0
	.cfi_startproc
	@ args = 0, pretend = 0, frame = 8
	@ frame_needed = 1, uses_anonymous_args = 0
	push	{r7, lr}
	.cfi_def_cfa_offset 8
	.cfi_offset 7, -8
	.cfi_offset 14, -4
	sub	sp, sp, #8
	.cfi_def_cfa_offset 16
	add	r7, sp, #0
	.cfi_def_cfa_register 7
	movs	r2, r0
	adds	r3, r7, #7
	strb	r2, [r3]
	.loc 1 479 0
	adds	r3, r7, #7
	ldrb	r3, [r3]
	cmp	r3, #0
	beq	.L175
	blt	.L174
	subs	r3, r3, #2
	cmp	r3, #2
	bhi	.L174
.L175:
	.loc 1 485 0
	ldr	r1, .L177
	ldr	r3, .L177
	ldrh	r3, [r3]
	lsls	r3, r3, #16
	lsrs	r3, r3, #16
	lsls	r3, r3, #16
	asrs	r3, r3, #16
	movs	r2, #112
	bics	r3, r2
	lsls	r2, r3, #16
	asrs	r2, r2, #16
	adds	r3, r7, #7
	ldrb	r3, [r3]
	lsls	r3, r3, #4
	lsls	r3, r3, #16
	asrs	r3, r3, #16
	movs	r0, #112
	ands	r3, r0
	lsls	r3, r3, #16
	asrs	r3, r3, #16
	orrs	r3, r2
	lsls	r3, r3, #16
	asrs	r3, r3, #16
	lsls	r3, r3, #16
	lsrs	r3, r3, #16
	strh	r3, [r1]
	.loc 1 487 0
	movs	r3, #1
	b	.L176
.L174:
	.loc 1 489 0
	movs	r3, #0
.L176:
	.loc 1 491 0
	movs	r0, r3
	mov	sp, r7
	add	sp, sp, #8
	@ sp needed
	pop	{r7, pc}
.L178:
	.align	2
.L177:
	.word	-1603272256
	.cfi_endproc
.LFE27:
	.size	PMU_SetVoltageVMC, .-PMU_SetVoltageVMC
	.section	.text.PMU_GetSelectedVoltageVMC,"ax",%progbits
	.align	2
	.global	PMU_GetSelectedVoltageVMC
	.code	16
	.thumb_func
	.type	PMU_GetSelectedVoltageVMC, %function
PMU_GetSelectedVoltageVMC:
.LFB28:
	.loc 1 494 0
	.cfi_startproc
	@ args = 0, pretend = 0, frame = 8
	@ frame_needed = 1, uses_anonymous_args = 0
	push	{r7, lr}
	.cfi_def_cfa_offset 8
	.cfi_offset 7, -8
	.cfi_offset 14, -4
	sub	sp, sp, #8
	.cfi_def_cfa_offset 16
	add	r7, sp, #0
	.cfi_def_cfa_register 7
	.loc 1 495 0
	ldr	r3, .L181
	ldrh	r3, [r3]
	lsls	r3, r3, #16
	lsrs	r3, r3, #16
	movs	r2, r3
	movs	r3, #112
	ands	r3, r2
	asrs	r2, r3, #4
	adds	r3, r7, #7
	strb	r2, [r3]
	.loc 1 497 0
	adds	r3, r7, #7
	ldrb	r3, [r3]
	.loc 1 498 0
	movs	r0, r3
	mov	sp, r7
	add	sp, sp, #8
	@ sp needed
	pop	{r7, pc}
.L182:
	.align	2
.L181:
	.word	-1603272256
	.cfi_endproc
.LFE28:
	.size	PMU_GetSelectedVoltageVMC, .-PMU_GetSelectedVoltageVMC
	.section	.rodata
	.align	2
.LC44:
	.ascii	":\015\000"
	.align	2
.LC49:
	.ascii	" Battery charger...\000"
	.align	2
.LC51:
	.ascii	"Failed! Can not enable AUXADC.\015\000"
	.align	2
.LC55:
	.ascii	"Failed! Can not create timer.\015\000"
	.align	2
.LC58:
	.ascii	"Failed! Can not register interrupt.\015\000"
	.align	2
.LC60:
	.ascii	"Complete.\015\000"
	.align	2
.LC62:
	.ascii	" Registering powerkey handler...\000"
	.align	2
.LC65:
	.ascii	"Failed!\015\000"
	.align	2
.LC67:
	.ascii	"PMU initialization Failed!\015\000"
	.section	.text.PMU_Initialize,"ax",%progbits
	.align	2
	.global	PMU_Initialize
	.code	16
	.thumb_func
	.type	PMU_Initialize, %function
PMU_Initialize:
.LFB29:
	.loc 1 501 0
	.cfi_startproc
	@ args = 0, pretend = 0, frame = 8
	@ frame_needed = 1, uses_anonymous_args = 0
	push	{r7, lr}
	.cfi_def_cfa_offset 8
	.cfi_offset 7, -8
	.cfi_offset 14, -4
	sub	sp, sp, #16
	.cfi_def_cfa_offset 24
	add	r7, sp, #8
	.cfi_def_cfa 7, 16
	.loc 1 502 0
	adds	r3, r7, #7
	movs	r2, #1
	strb	r2, [r3]
	.loc 1 504 0
	bl	PMU_DisableUSBDLMode
	.loc 1 509 0
	ldr	r3, .L194
	movs	r0, r3
	bl	puts
	.loc 1 509 0
	ldr	r3, .L194+4
	ldr	r3, [r3]
	ldr	r3, [r3, #8]
	.loc 1 509 0
	movs	r0, r3
	bl	fflush
	.loc 1 513 0
	ldr	r3, .L194+8
	movs	r2, #250
	lsls	r2, r2, #2
	strh	r2, [r3]
	.loc 1 514 0
	ldr	r3, .L194+12
	movs	r2, #1
	strb	r2, [r3]
	.loc 1 518 0
	ldr	r3, .L194+16
	movs	r0, r3
	bl	printf
	.loc 1 518 0
	ldr	r3, .L194+4
	ldr	r3, [r3]
	ldr	r3, [r3, #8]
	.loc 1 518 0
	movs	r0, r3
	bl	fflush
	.loc 1 520 0
	bl	AUXADC_Enable
	subs	r3, r0, #0
	bne	.L184
	.loc 1 522 0
	ldr	r3, .L194+20
	movs	r0, r3
	bl	puts
	.loc 1 522 0
	ldr	r3, .L194+4
	ldr	r3, [r3]
	ldr	r3, [r3, #8]
	.loc 1 522 0
	movs	r0, r3
	bl	fflush
	.loc 1 523 0
	adds	r3, r7, #7
	movs	r2, #0
	strb	r2, [r3]
	.loc 1 524 0
	b	.L185
.L184:
	.loc 1 526 0
	ldr	r3, .L194+24
	ldr	r3, [r3]
	cmp	r3, #0
	bne	.L186
	.loc 1 528 0
	ldr	r1, .L194+28
	movs	r3, #250
	lsls	r3, r3, #1
	movs	r2, #3
	movs	r0, r3
	bl	LRT_Create
	movs	r2, r0
	ldr	r3, .L194+24
	str	r2, [r3]
	.loc 1 529 0
	ldr	r3, .L194+24
	ldr	r3, [r3]
	cmp	r3, #0
	bne	.L186
	.loc 1 531 0
	ldr	r3, .L194+32
	movs	r0, r3
	bl	puts
	.loc 1 531 0
	ldr	r3, .L194+4
	ldr	r3, [r3]
	ldr	r3, [r3, #8]
	.loc 1 531 0
	movs	r0, r3
	bl	fflush
	.loc 1 532 0
	adds	r3, r7, #7
	movs	r2, #0
	strb	r2, [r3]
	.loc 1 533 0
	b	.L185
.L186:
	.loc 1 536 0
	ldr	r1, .L194+36
	movs	r3, #0
	str	r3, [sp, #4]
	movs	r3, #0
	str	r3, [sp]
	movs	r3, #1
	movs	r2, #0
	movs	r0, #26
	bl	NVIC_RegisterEINT
	subs	r3, r0, #0
	beq	.L187
	.loc 1 538 0
	movs	r0, #26
	bl	NVIC_EnableEINT
	subs	r3, r0, #0
	.loc 1 537 0
	bne	.L185
.L187:
	.loc 1 540 0
	ldr	r3, .L194+40
	movs	r0, r3
	bl	puts
	.loc 1 540 0
	ldr	r3, .L194+4
	ldr	r3, [r3]
	ldr	r3, [r3, #8]
	.loc 1 540 0
	movs	r0, r3
	bl	fflush
	.loc 1 541 0
	adds	r3, r7, #7
	movs	r2, #0
	strb	r2, [r3]
	.loc 1 542 0
	nop
.L185:
	.loc 1 547 0
	adds	r3, r7, #7
	ldrb	r3, [r3]
	cmp	r3, #0
	beq	.L188
	.loc 1 547 0 is_stmt 0 discriminator 1
	ldr	r3, .L194+44
	movs	r0, r3
	bl	puts
	.loc 1 547 0 is_stmt 1 discriminator 1
	ldr	r3, .L194+4
	ldr	r3, [r3]
	ldr	r3, [r3, #8]
	.loc 1 547 0 discriminator 1
	movs	r0, r3
	bl	fflush
	b	.L189
.L188:
	.loc 1 550 0
	movs	r0, #26
	bl	NVIC_UnregisterEINT
	.loc 1 551 0
	bl	AUXADC_Disable
	.loc 1 552 0
	ldr	r3, .L194+24
	ldr	r3, [r3]
	cmp	r3, #0
	beq	.L189
	.loc 1 554 0
	ldr	r3, .L194+24
	ldr	r3, [r3]
	movs	r0, r3
	bl	LRT_Destroy
	.loc 1 555 0
	ldr	r3, .L194+24
	movs	r2, #0
	str	r2, [r3]
.L189:
	.loc 1 564 0
	ldr	r3, .L194+48
	movs	r0, r3
	bl	printf
	.loc 1 564 0
	ldr	r3, .L194+4
	ldr	r3, [r3]
	ldr	r3, [r3, #8]
	.loc 1 564 0
	movs	r0, r3
	bl	fflush
	.loc 1 565 0
	ldr	r1, .L194+52
	movs	r3, #1
	str	r3, [sp, #4]
	movs	r3, #0
	str	r3, [sp]
	movs	r3, #0
	movs	r2, #0
	movs	r0, #25
	bl	NVIC_RegisterEINT
	subs	r3, r0, #0
	beq	.L190
	.loc 1 567 0
	ldr	r3, .L194+44
	movs	r0, r3
	bl	puts
	.loc 1 567 0
	ldr	r3, .L194+4
	ldr	r3, [r3]
	ldr	r3, [r3, #8]
	.loc 1 567 0
	movs	r0, r3
	bl	fflush
	b	.L191
.L190:
	.loc 1 570 0
	ldr	r3, .L194+56
	movs	r0, r3
	bl	puts
	.loc 1 570 0
	ldr	r3, .L194+4
	ldr	r3, [r3]
	ldr	r3, [r3, #8]
	.loc 1 570 0
	movs	r0, r3
	bl	fflush
	.loc 1 571 0
	adds	r3, r7, #7
	movs	r2, #0
	strb	r2, [r3]
.L191:
	.loc 1 575 0
	adds	r3, r7, #7
	ldrb	r3, [r3]
	cmp	r3, #0
	bne	.L192
	.loc 1 575 0 is_stmt 0 discriminator 1
	ldr	r3, .L194+60
	movs	r0, r3
	bl	puts
	.loc 1 575 0 is_stmt 1 discriminator 1
	ldr	r3, .L194+4
	ldr	r3, [r3]
	ldr	r3, [r3, #8]
	.loc 1 575 0 discriminator 1
	movs	r0, r3
	bl	fflush
.L192:
	.loc 1 577 0
	adds	r3, r7, #7
	ldrb	r3, [r3]
	.loc 1 578 0
	movs	r0, r3
	mov	sp, r7
	add	sp, sp, #8
	@ sp needed
	pop	{r7, pc}
.L195:
	.align	2
.L194:
	.word	.LC44
	.word	_impure_ptr
	.word	ChargeLevel
	.word	FirstMeasurememnt
	.word	.LC49
	.word	.LC51
	.word	ChargerTimer
	.word	PMU_ChargerTimerHandler
	.word	.LC55
	.word	PMU_InterruptHandler
	.word	.LC58
	.word	.LC60
	.word	.LC62
	.word	PMU_PWRKeyInterruptHandler
	.word	.LC65
	.word	.LC67
	.cfi_endproc
.LFE29:
	.size	PMU_Initialize, .-PMU_Initialize
	.text
.Letext0:
	.file 2 "d:\\1.11\\share\\em_armgcc\\arm-none-eabi\\include\\machine\\_default_types.h"
	.file 3 "d:\\1.11\\share\\em_armgcc\\arm-none-eabi\\include\\sys\\_stdint.h"
	.file 4 "d:\\1.11\\share\\em_armgcc\\arm-none-eabi\\include\\sys\\lock.h"
	.file 5 "d:\\1.11\\share\\em_armgcc\\arm-none-eabi\\include\\sys\\_types.h"
	.file 6 "d:\\1.11\\share\\em_armgcc\\lib\\gcc\\arm-none-eabi\\5.4.1\\include\\stddef.h"
	.file 7 "d:\\1.11\\share\\em_armgcc\\arm-none-eabi\\include\\sys\\reent.h"
	.file 8 ".\\Source/systypes.h"
	.file 9 ".\\Source\\System/dlist.h"
	.file 10 ".\\Source\\Lib\\MT6261/drivers\\pmu.h"
	.file 11 ".\\Source\\Lib\\MT6261/drivers\\lcdif.h"
	.file 12 ".\\Source\\Lib\\MT6261/drivers\\usb.h"
	.file 13 ".\\Source\\System/lrtimer.h"