	.syntax unified
	.cpu arm9e
	.fpu softvfp
	.eabi_attribute 20, 1
	.eabi_attribute 21, 1
	.eabi_attribute 23, 3
	.eabi_attribute 24, 1
	.eabi_attribute 25, 1
	.eabi_attribute 26, 1
	.eabi_attribute 30, 6
	.eabi_attribute 34, 0
	.eabi_attribute 18, 4
	.thumb
	.syntax unified
	.file	"rtc.c"
	.text
.Ltext0:
	.cfi_sections	.debug_frame
	.section	.rodata.DayInMonth,"a",%progbits
	.align	2
	.type	DayInMonth, %object
	.size	DayInMonth, 13
DayInMonth:
	.byte	0
	.byte	31
	.byte	28
	.byte	31
	.byte	30
	.byte	31
	.byte	30
	.byte	31
	.byte	31
	.byte	30
	.byte	31
	.byte	30
	.byte	31
	.section	.text.RTC_WaitCBUSY,"ax",%progbits
	.align	2
	.code	16
	.thumb_func
	.type	RTC_WaitCBUSY, %function
RTC_WaitCBUSY:
.LFB1:
	.file 1 "Source\\Lib\\MT6261\\Drivers\\rtc.c"
	.loc 1 27 0
	.cfi_startproc
	@ args = 0, pretend = 0, frame = 0
	@ frame_needed = 1, uses_anonymous_args = 0
	push	{r7, lr}
	.cfi_def_cfa_offset 8
	.cfi_offset 7, -8
	.cfi_offset 14, -4
	add	r7, sp, #0
	.cfi_def_cfa_register 7
	.loc 1 28 0
	nop
.L2:
	.loc 1 28 0 is_stmt 0 discriminator 1
	ldr	r3, .L3
	ldrh	r3, [r3]
	lsls	r3, r3, #16
	lsrs	r3, r3, #16
	movs	r2, r3
	movs	r3, #64
	ands	r3, r2
	bne	.L2
	.loc 1 29 0 is_stmt 1
	nop
	mov	sp, r7
	@ sp needed
	pop	{r7, pc}
.L4:
	.align	2
.L3:
	.word	-1603207168
	.cfi_endproc
.LFE1:
	.size	RTC_WaitCBUSY, .-RTC_WaitCBUSY
	.section	.text.RTC_UpdateContext,"ax",%progbits
	.align	2
	.code	16
	.thumb_func
	.type	RTC_UpdateContext, %function
RTC_UpdateContext:
.LFB2:
	.loc 1 32 0
	.cfi_startproc
	@ args = 0, pretend = 0, frame = 0
	@ frame_needed = 1, uses_anonymous_args = 0
	push	{r7, lr}
	.cfi_def_cfa_offset 8
	.cfi_offset 7, -8
	.cfi_offset 14, -4
	add	r7, sp, #0
	.cfi_def_cfa_register 7
	.loc 1 33 0
	ldr	r3, .L6
	movs	r2, #1
	strh	r2, [r3]
	.loc 1 34 0
	bl	RTC_WaitCBUSY
	.loc 1 35 0
	nop
	mov	sp, r7
	@ sp needed
	pop	{r7, pc}
.L7:
	.align	2
.L6:
	.word	-1603207052
	.cfi_endproc
.LFE2:
	.size	RTC_UpdateContext, .-RTC_UpdateContext
	.section	.text.RTC_Unprotect,"ax",%progbits
	.align	2
	.code	16
	.thumb_func
	.type	RTC_Unprotect, %function
RTC_Unprotect:
.LFB3:
	.loc 1 38 0
	.cfi_startproc
	@ args = 0, pretend = 0, frame = 0
	@ frame_needed = 1, uses_anonymous_args = 0
	push	{r7, lr}
	.cfi_def_cfa_offset 8
	.cfi_offset 7, -8
	.cfi_offset 14, -4
	add	r7, sp, #0
	.cfi_def_cfa_register 7
	.loc 1 39 0
	ldr	r3, .L9
	ldr	r2, .L9+4
	strh	r2, [r3]
	.loc 1 40 0
	bl	RTC_UpdateContext
	.loc 1 41 0
	ldr	r3, .L9
	ldr	r2, .L9+8
	strh	r2, [r3]
	.loc 1 42 0
	bl	RTC_UpdateContext
	.loc 1 43 0
	nop
	mov	sp, r7
	@ sp needed
	pop	{r7, pc}
.L10:
	.align	2
.L9:
	.word	-1603207064
	.word	22634
	.word	-28362
	.cfi_endproc
.LFE3:
	.size	RTC_Unprotect, .-RTC_Unprotect
	.section	.text.RTC_SetPowerkey,"ax",%progbits
	.align	2
	.code	16
	.thumb_func
	.type	RTC_SetPowerkey, %function
RTC_SetPowerkey:
.LFB4:
	.loc 1 46 0
	.cfi_startproc
	@ args = 0, pretend = 0, frame = 0
	@ frame_needed = 1, uses_anonymous_args = 0
	push	{r7, lr}
	.cfi_def_cfa_offset 8
	.cfi_offset 7, -8
	.cfi_offset 14, -4
	add	r7, sp, #0
	.cfi_def_cfa_register 7
	.loc 1 47 0
	ldr	r3, .L12
	ldr	r2, .L12+4
	strh	r2, [r3]
	.loc 1 48 0
	ldr	r3, .L12+8
	ldr	r2, .L12+12
	strh	r2, [r3]
	.loc 1 49 0
	bl	RTC_UpdateContext
	.loc 1 50 0
	nop
	mov	sp, r7
	@ sp needed
	pop	{r7, pc}
.L13:
	.align	2
.L12:
	.word	-1603207088
	.word	-23721
	.word	-1603207084
	.word	26578
	.cfi_endproc
.LFE4:
	.size	RTC_SetPowerkey, .-RTC_SetPowerkey
	.section	.text.RTC_SetOSC32CON,"ax",%progbits
	.align	2
	.code	16
	.thumb_func
	.type	RTC_SetOSC32CON, %function
RTC_SetOSC32CON:
.LFB5:
	.loc 1 53 0
	.cfi_startproc
	@ args = 0, pretend = 0, frame = 8
	@ frame_needed = 1, uses_anonymous_args = 0
	push	{r7, lr}
	.cfi_def_cfa_offset 8
	.cfi_offset 7, -8
	.cfi_offset 14, -4
	sub	sp, sp, #8
	.cfi_def_cfa_offset 16
	add	r7, sp, #0
	.cfi_def_cfa_register 7
	movs	r2, r0
	adds	r3, r7, #6
	strh	r2, [r3]
	.loc 1 54 0
	ldr	r3, .L15
	ldr	r2, .L15+4
	strh	r2, [r3]
	.loc 1 55 0
	bl	RTC_WaitCBUSY
	.loc 1 56 0
	ldr	r3, .L15
	ldr	r2, .L15+8
	strh	r2, [r3]
	.loc 1 57 0
	bl	RTC_WaitCBUSY
	.loc 1 58 0
	ldr	r2, .L15
	adds	r3, r7, #6
	ldrh	r3, [r3]
	strh	r3, [r2]
	.loc 1 59 0
	bl	RTC_WaitCBUSY
	.loc 1 60 0
	nop
	mov	sp, r7
	add	sp, sp, #8
	@ sp needed
	pop	{r7, pc}
.L16:
	.align	2
.L15:
	.word	-1603207092
	.word	6743
	.word	11112
	.cfi_endproc
.LFE5:
	.size	RTC_SetOSC32CON, .-RTC_SetOSC32CON
	.global	__aeabi_idiv
	.global	__aeabi_uidiv
	.global	__aeabi_uidivmod
	.section	.text.RTC_DayOfWeek,"ax",%progbits
	.align	2
	.code	16
	.thumb_func
	.type	RTC_DayOfWeek, %function
RTC_DayOfWeek:
.LFB6:
	.loc 1 63 0
	.cfi_startproc
	@ args = 0, pretend = 0, frame = 24
	@ frame_needed = 1, uses_anonymous_args = 0
	push	{r4, r7, lr}
	.cfi_def_cfa_offset 12
	.cfi_offset 4, -12
	.cfi_offset 7, -8
	.cfi_offset 14, -4
	sub	sp, sp, #28
	.cfi_def_cfa_offset 40
	add	r7, sp, #0
	.cfi_def_cfa_register 7
	str	r0, [r7, #4]
	.loc 1 66 0
	ldr	r3, [r7, #4]
	ldrb	r3, [r3, #2]
	movs	r2, r3
	movs	r3, #14
	subs	r3, r3, r2
	movs	r1, #12
	movs	r0, r3
	bl	__aeabi_idiv
	movs	r3, r0
	str	r3, [r7, #20]
	.loc 1 67 0
	ldr	r3, [r7, #4]
	ldrh	r3, [r3, #4]
	movs	r2, r3
	ldr	r3, [r7, #20]
	subs	r3, r2, r3
	str	r3, [r7, #16]
	.loc 1 68 0
	ldr	r3, [r7, #4]
	ldrb	r3, [r3, #2]
	movs	r1, r3
	ldr	r2, [r7, #20]
	movs	r3, r2
	lsls	r3, r3, #1
	adds	r3, r3, r2
	lsls	r3, r3, #2
	adds	r3, r1, r3
	subs	r3, r3, #2
	str	r3, [r7, #12]
	.loc 1 69 0
	ldr	r3, [r7, #4]
	ldrb	r3, [r3]
	movs	r2, r3
	ldr	r3, [r7, #16]
	adds	r2, r2, r3
	ldr	r3, [r7, #16]
	lsrs	r3, r3, #2
	adds	r4, r2, r3
	ldr	r3, [r7, #16]
	movs	r1, #100
	movs	r0, r3
	bl	__aeabi_uidiv
	movs	r3, r0
	subs	r4, r4, r3
	ldr	r2, [r7, #16]
	movs	r3, #200
	lsls	r1, r3, #1
	movs	r0, r2
	bl	__aeabi_uidiv
	movs	r3, r0
	adds	r4, r4, r3
	ldr	r2, [r7, #12]
	movs	r3, r2
	lsls	r3, r3, #5
	subs	r3, r3, r2
	movs	r1, #12
	movs	r0, r3
	bl	__aeabi_uidiv
	movs	r3, r0
	adds	r3, r4, r3
	ldr	r2, .L21
	mov	ip, r2
	add	r3, r3, ip
	movs	r1, #7
	movs	r0, r3
	bl	__aeabi_uidivmod
	movs	r3, r1
	str	r3, [r7, #8]
	.loc 1 71 0
	ldr	r3, [r7, #8]
	cmp	r3, #0
	beq	.L18
	.loc 1 71 0 is_stmt 0 discriminator 1
	ldr	r3, [r7, #8]
	lsls	r3, r3, #24
	lsrs	r3, r3, #24
	b	.L19
.L18:
	.loc 1 71 0 discriminator 2
	movs	r3, #7
.L19:
	.loc 1 72 0 is_stmt 1 discriminator 4
	movs	r0, r3
	mov	sp, r7
	add	sp, sp, #28
	@ sp needed
	pop	{r4, r7, pc}
.L22:
	.align	2
.L21:
	.word	7000
	.cfi_endproc
.LFE6:
	.size	RTC_DayOfWeek, .-RTC_DayOfWeek
	.section	.rodata
	.align	2
.LC0:
	.ascii	"settings invalid - \000"
	.align	2
.LC3:
	.ascii	"reconfigured!\015\000"
	.align	2
.LC5:
	.ascii	"Complete.\015\000"
	.section	.text.RTC_Initialize,"ax",%progbits
	.align	2
	.global	RTC_Initialize
	.code	16
	.thumb_func
	.type	RTC_Initialize, %function
RTC_Initialize:
.LFB7:
	.loc 1 75 0
	.cfi_startproc
	@ args = 0, pretend = 0, frame = 16
	@ frame_needed = 1, uses_anonymous_args = 0
	push	{r7, lr}
	.cfi_def_cfa_offset 8
	.cfi_offset 7, -8
	.cfi_offset 14, -4
	sub	sp, sp, #16
	.cfi_def_cfa_offset 24
	add	r7, sp, #0
	.cfi_def_cfa_register 7
	.loc 1 76 0
	ldr	r3, .L26
	movs	r0, r3
	bl	RTC_SetOSC32CON
	.loc 1 77 0
	bl	RTC_Unprotect
	.loc 1 79 0
	bl	RTC_IsValidState
	subs	r3, r0, #0
	bne	.L24
.LBB2:
	.loc 1 84 0
	ldr	r3, .L26+4
	movs	r0, r3
	bl	printf
	.loc 1 84 0
	ldr	r3, .L26+8
	ldr	r3, [r3]
	ldr	r3, [r3, #8]
	.loc 1 84 0
	movs	r0, r3
	bl	fflush
	.loc 1 86 0
	bl	RTC_SetPowerkey
	.loc 1 88 0
	ldr	r3, .L26+12
	movs	r2, #134
	lsls	r2, r2, #7
	strh	r2, [r3]
	.loc 1 89 0
	bl	RTC_UpdateContext
	.loc 1 91 0
	ldr	r3, .L26+16
	ldr	r2, .L26+20
	strh	r2, [r3]
	.loc 1 92 0
	bl	RTC_UpdateContext
	.loc 1 93 0
	ldr	r3, .L26+16
	movs	r2, #10
	strh	r2, [r3]
	.loc 1 94 0
	bl	RTC_UpdateContext
	.loc 1 95 0
	ldr	r3, .L26+16
	movs	r2, #2
	strh	r2, [r3]
	.loc 1 96 0
	bl	RTC_UpdateContext
	.loc 1 98 0
	ldr	r3, .L26+24
	movs	r2, #0
	strh	r2, [r3]
	.loc 1 99 0
	ldr	r3, .L26+28
	movs	r2, #0
	strh	r2, [r3]
	.loc 1 100 0
	ldr	r3, .L26+32
	movs	r2, #127
	strh	r2, [r3]
	.loc 1 101 0
	bl	RTC_UpdateContext
	.loc 1 102 0
	ldr	r3, .L26+36
	ldrh	r3, [r3]
	.loc 1 104 0
	adds	r3, r7, #4
	movs	r2, #10
	movs	r1, #0
	movs	r0, r3
	bl	memset
	.loc 1 105 0
	adds	r3, r7, #4
	movs	r2, #1
	strb	r2, [r3, #4]
	.loc 1 106 0
	adds	r3, r7, #4
	movs	r2, #1
	strb	r2, [r3, #6]
	.loc 1 107 0
	adds	r3, r7, #4
	movs	r2, #250
	lsls	r2, r2, #3
	strh	r2, [r3, #8]
	.loc 1 108 0
	adds	r3, r7, #4
	adds	r3, r3, #4
	movs	r0, r3
	bl	RTC_DayOfWeek
	movs	r3, r0
	movs	r2, r3
	adds	r3, r7, #4
	strb	r2, [r3, #5]
	.loc 1 109 0
	adds	r3, r7, #4
	movs	r0, r3
	bl	RTC_SetDateTime
	.loc 1 110 0
	adds	r3, r7, #4
	movs	r1, #0
	movs	r0, r3
	bl	RTC_SetAlarmDateTime
	.loc 1 112 0
	ldr	r3, .L26+40
	movs	r0, r3
	bl	puts
	.loc 1 112 0
	ldr	r3, .L26+8
	ldr	r3, [r3]
	ldr	r3, [r3, #8]
	.loc 1 112 0
	movs	r0, r3
	bl	fflush
	.loc 1 113 0
	movs	r3, #1
	b	.L25
.L24:
.LBE2:
	.loc 1 115 0
	ldr	r3, .L26+44
	movs	r0, r3
	bl	puts
	.loc 1 115 0
	ldr	r3, .L26+8
	ldr	r3, [r3]
	ldr	r3, [r3, #8]
	.loc 1 115 0
	movs	r0, r3
	bl	fflush
	.loc 1 116 0
	movs	r3, #1
.L25:
	.loc 1 117 0 discriminator 1
	movs	r0, r3
	mov	sp, r7
	add	sp, sp, #16
	@ sp needed
	pop	{r7, pc}
.L27:
	.align	2
.L26:
	.word	1039
	.word	.LC0
	.word	_impure_ptr
	.word	-1603207168
	.word	-1603207048
	.word	-32766
	.word	-1603207156
	.word	-1603207160
	.word	-1603207152
	.word	-1603207164
	.word	.LC3
	.word	.LC5
	.cfi_endproc
.LFE7:
	.size	RTC_Initialize, .-RTC_Initialize
	.section	.text.RTC_LockBBPower,"ax",%progbits
	.align	2
	.global	RTC_LockBBPower
	.code	16
	.thumb_func
	.type	RTC_LockBBPower, %function
RTC_LockBBPower:
.LFB8:
	.loc 1 120 0
	.cfi_startproc
	@ args = 0, pretend = 0, frame = 0
	@ frame_needed = 1, uses_anonymous_args = 0
	push	{r7, lr}
	.cfi_def_cfa_offset 8
	.cfi_offset 7, -8
	.cfi_offset 14, -4
	add	r7, sp, #0
	.cfi_def_cfa_register 7
	.loc 1 121 0
	ldr	r2, .L30
	ldr	r3, .L30
	ldrh	r3, [r3]
	lsls	r3, r3, #16
	lsrs	r3, r3, #16
	movs	r1, #4
	orrs	r3, r1
	lsls	r3, r3, #16
	lsrs	r3, r3, #16
	lsls	r3, r3, #16
	asrs	r3, r3, #16
	movs	r1, #255
	ands	r3, r1
	lsls	r3, r3, #16
	asrs	r3, r3, #16
	ldr	r1, .L30+4
	orrs	r3, r1
	lsls	r3, r3, #16
	asrs	r3, r3, #16
	lsls	r3, r3, #16
	lsrs	r3, r3, #16
	strh	r3, [r2]
	.loc 1 122 0
	bl	RTC_UpdateContext
	.loc 1 123 0
	ldr	r3, .L30
	ldrh	r3, [r3]
	lsls	r3, r3, #16
	lsrs	r3, r3, #16
	movs	r2, r3
	movs	r3, #4
	ands	r3, r2
	subs	r2, r3, #1
	sbcs	r3, r3, r2
	lsls	r3, r3, #24
	lsrs	r3, r3, #24
	.loc 1 124 0
	movs	r0, r3
	mov	sp, r7
	@ sp needed
	pop	{r7, pc}
.L31:
	.align	2
.L30:
	.word	-1603207168
	.word	17160
	.cfi_endproc
.LFE8:
	.size	RTC_LockBBPower, .-RTC_LockBBPower
	.section	.text.RTC_UnlockBBPower,"ax",%progbits
	.align	2
	.global	RTC_UnlockBBPower
	.code	16
	.thumb_func
	.type	RTC_UnlockBBPower, %function
RTC_UnlockBBPower:
.LFB9:
	.loc 1 127 0
	.cfi_startproc
	@ args = 0, pretend = 0, frame = 0
	@ frame_needed = 1, uses_anonymous_args = 0
	push	{r7, lr}
	.cfi_def_cfa_offset 8
	.cfi_offset 7, -8
	.cfi_offset 14, -4
	add	r7, sp, #0
	.cfi_def_cfa_register 7
	.loc 1 128 0
	ldr	r1, .L34
	ldr	r3, .L34
	ldrh	r3, [r3]
	lsls	r3, r3, #16
	lsrs	r3, r3, #16
	lsls	r3, r3, #16
	asrs	r3, r3, #16
	movs	r2, #251
	ands	r3, r2
	lsls	r3, r3, #16
	asrs	r3, r3, #16
	movs	r2, #134
	lsls	r2, r2, #7
	orrs	r3, r2
	lsls	r3, r3, #16
	asrs	r3, r3, #16
	lsls	r3, r3, #16
	lsrs	r3, r3, #16
	strh	r3, [r1]
	.loc 1 129 0
	bl	RTC_UpdateContext
	.loc 1 130 0
	ldr	r3, .L34
	ldrh	r3, [r3]
	lsls	r3, r3, #16
	lsrs	r3, r3, #16
	movs	r2, r3
	movs	r3, #4
	ands	r3, r2
	rsbs	r2, r3, #0
	adcs	r3, r3, r2
	lsls	r3, r3, #24
	lsrs	r3, r3, #24
	.loc 1 131 0
	movs	r0, r3
	mov	sp, r7
	@ sp needed
	pop	{r7, pc}
.L35:
	.align	2
.L34:
	.word	-1603207168
	.cfi_endproc
.LFE9:
	.size	RTC_UnlockBBPower, .-RTC_UnlockBBPower
	.section	.text.RTC_EnablePowerUp,"ax",%progbits
	.align	2
	.global	RTC_EnablePowerUp
	.code	16
	.thumb_func
	.type	RTC_EnablePowerUp, %function
RTC_EnablePowerUp:
.LFB10:
	.loc 1 134 0
	.cfi_startproc
	@ args = 0, pretend = 0, frame = 0
	@ frame_needed = 1, uses_anonymous_args = 0
	push	{r7, lr}
	.cfi_def_cfa_offset 8
	.cfi_offset 7, -8
	.cfi_offset 14, -4
	add	r7, sp, #0
	.cfi_def_cfa_register 7
	.loc 1 135 0
	ldr	r1, .L38
	ldr	r3, .L38
	ldrh	r3, [r3]
	lsls	r3, r3, #16
	lsrs	r3, r3, #16
	movs	r2, #1
	orrs	r3, r2
	lsls	r3, r3, #16
	lsrs	r3, r3, #16
	lsls	r3, r3, #16
	asrs	r3, r3, #16
	movs	r2, #255
	ands	r3, r2
	lsls	r3, r3, #16
	asrs	r3, r3, #16
	movs	r2, #134
	lsls	r2, r2, #7
	orrs	r3, r2
	lsls	r3, r3, #16
	asrs	r3, r3, #16
	lsls	r3, r3, #16
	lsrs	r3, r3, #16
	strh	r3, [r1]
	.loc 1 136 0
	bl	RTC_UpdateContext
	.loc 1 137 0
	ldr	r3, .L38
	ldrh	r3, [r3]
	lsls	r3, r3, #16
	lsrs	r3, r3, #16
	movs	r2, r3
	movs	r3, #1
	ands	r3, r2
	subs	r2, r3, #1
	sbcs	r3, r3, r2
	lsls	r3, r3, #24
	lsrs	r3, r3, #24
	.loc 1 138 0
	movs	r0, r3
	mov	sp, r7
	@ sp needed
	pop	{r7, pc}
.L39:
	.align	2
.L38:
	.word	-1603207168
	.cfi_endproc
.LFE10:
	.size	RTC_EnablePowerUp, .-RTC_EnablePowerUp
	.section	.text.RTC_DisablePowerUp,"ax",%progbits
	.align	2
	.global	RTC_DisablePowerUp
	.code	16
	.thumb_func
	.type	RTC_DisablePowerUp, %function
RTC_DisablePowerUp:
.LFB11:
	.loc 1 141 0
	.cfi_startproc
	@ args = 0, pretend = 0, frame = 0
	@ frame_needed = 1, uses_anonymous_args = 0
	push	{r7, lr}
	.cfi_def_cfa_offset 8
	.cfi_offset 7, -8
	.cfi_offset 14, -4
	add	r7, sp, #0
	.cfi_def_cfa_register 7
	.loc 1 142 0
	ldr	r1, .L42
	ldr	r3, .L42
	ldrh	r3, [r3]
	lsls	r3, r3, #16
	lsrs	r3, r3, #16
	lsls	r3, r3, #16
	asrs	r3, r3, #16
	movs	r2, #254
	ands	r3, r2
	lsls	r3, r3, #16
	asrs	r3, r3, #16
	movs	r2, #134
	lsls	r2, r2, #7
	orrs	r3, r2
	lsls	r3, r3, #16
	asrs	r3, r3, #16
	lsls	r3, r3, #16
	lsrs	r3, r3, #16
	strh	r3, [r1]
	.loc 1 143 0
	bl	RTC_UpdateContext
	.loc 1 144 0
	ldr	r3, .L42
	ldrh	r3, [r3]
	lsls	r3, r3, #16
	lsrs	r3, r3, #16
	movs	r2, r3
	movs	r3, #1
	ands	r3, r2
	rsbs	r2, r3, #0
	adcs	r3, r3, r2
	lsls	r3, r3, #24
	lsrs	r3, r3, #24
	.loc 1 145 0
	movs	r0, r3
	mov	sp, r7
	@ sp needed
	pop	{r7, pc}
.L43:
	.align	2
.L42:
	.word	-1603207168
	.cfi_endproc
.LFE11:
	.size	RTC_DisablePowerUp, .-RTC_DisablePowerUp
	.section	.text.RTC_IsValidState,"ax",%progbits
	.align	2
	.global	RTC_IsValidState
	.code	16
	.thumb_func
	.type	RTC_IsValidState, %function
RTC_IsValidState:
.LFB12:
	.loc 1 148 0
	.cfi_startproc
	@ args = 0, pretend = 0, frame = 0
	@ frame_needed = 1, uses_anonymous_args = 0
	push	{r7, lr}
	.cfi_def_cfa_offset 8
	.cfi_offset 7, -8
	.cfi_offset 14, -4
	add	r7, sp, #0
	.cfi_def_cfa_register 7
	.loc 1 149 0
	ldr	r3, .L48
	ldrh	r3, [r3]
	lsls	r3, r3, #16
	lsrs	r3, r3, #16
	movs	r2, r3
	movs	r3, #1
	ands	r3, r2
	.loc 1 151 0
	bne	.L45
	.loc 1 150 0
	ldr	r3, .L48+4
	ldrh	r3, [r3]
	lsls	r3, r3, #16
	lsrs	r3, r3, #16
	.loc 1 149 0
	ldr	r2, .L48+8
	cmp	r3, r2
	bne	.L45
	.loc 1 151 0 discriminator 3
	ldr	r3, .L48+12
	ldrh	r3, [r3]
	lsls	r3, r3, #16
	lsrs	r3, r3, #16
	ldr	r2, .L48+16
	cmp	r3, r2
	bne	.L45
	.loc 1 151 0 is_stmt 0 discriminator 2
	movs	r3, #1
	b	.L46
.L45:
	.loc 1 151 0 discriminator 1
	movs	r3, #0
.L46:
	.loc 1 149 0 is_stmt 1
	lsls	r3, r3, #24
	lsrs	r3, r3, #24
	.loc 1 152 0
	movs	r0, r3
	mov	sp, r7
	@ sp needed
	pop	{r7, pc}
.L49:
	.align	2
.L48:
	.word	-1603207048
	.word	-1603207088
	.word	41815
	.word	-1603207084
	.word	26578
	.cfi_endproc
.LFE12:
	.size	RTC_IsValidState, .-RTC_IsValidState
	.section	.text.RTC_IsAlarmActive,"ax",%progbits
	.align	2
	.global	RTC_IsAlarmActive
	.code	16
	.thumb_func
	.type	RTC_IsAlarmActive, %function
RTC_IsAlarmActive:
.LFB13:
	.loc 1 155 0
	.cfi_startproc
	@ args = 0, pretend = 0, frame = 8
	@ frame_needed = 1, uses_anonymous_args = 0
	push	{r7, lr}
	.cfi_def_cfa_offset 8
	.cfi_offset 7, -8
	.cfi_offset 14, -4
	sub	sp, sp, #8
	.cfi_def_cfa_offset 16
	add	r7, sp, #0
	.cfi_def_cfa_register 7
	.loc 1 158 0
	bl	RTC_IsValidState
	subs	r3, r0, #0
	bne	.L51
	.loc 1 158 0 is_stmt 0 discriminator 1
	movs	r3, #0
	b	.L52
.L51:
	.loc 1 160 0 is_stmt 1
	ldr	r3, .L55
	ldrh	r3, [r3]
	lsls	r3, r3, #16
	lsrs	r2, r3, #16
	ldr	r3, .L55+4
	ldrh	r3, [r3]
	lsls	r3, r3, #16
	lsrs	r1, r3, #16
	adds	r3, r7, #6
	ands	r2, r1
	strh	r2, [r3]
	.loc 1 162 0
	ldr	r3, .L55+8
	ldrh	r3, [r3]
	lsls	r3, r3, #16
	lsrs	r3, r3, #16
	movs	r2, r3
	movs	r3, #1
	ands	r3, r2
	beq	.L53
	.loc 1 162 0 is_stmt 0 discriminator 1
	adds	r3, r7, #6
	ldrh	r3, [r3]
	movs	r2, #1
	ands	r3, r2
	beq	.L53
	.loc 1 162 0 discriminator 3
	movs	r3, #1
	b	.L54
.L53:
	.loc 1 162 0 discriminator 4
	movs	r3, #0
.L54:
	.loc 1 162 0 discriminator 6
	lsls	r3, r3, #24
	lsrs	r3, r3, #24
.L52:
	.loc 1 163 0 is_stmt 1
	movs	r0, r3
	mov	sp, r7
	add	sp, sp, #8
	@ sp needed
	pop	{r7, pc}
.L56:
	.align	2
.L55:
	.word	-1603207160
	.word	-1603207164
	.word	-1603207168
	.cfi_endproc
.LFE13:
	.size	RTC_IsAlarmActive, .-RTC_IsAlarmActive
	.section	.text.RTC_GetDateTime,"ax",%progbits
	.align	2
	.global	RTC_GetDateTime
	.code	16
	.thumb_func
	.type	RTC_GetDateTime, %function
RTC_GetDateTime:
.LFB14:
	.loc 1 166 0
	.cfi_startproc
	@ args = 0, pretend = 0, frame = 24
	@ frame_needed = 1, uses_anonymous_args = 0
	push	{r7, lr}
	.cfi_def_cfa_offset 8
	.cfi_offset 7, -8
	.cfi_offset 14, -4
	sub	sp, sp, #24
	.cfi_def_cfa_offset 32
	add	r7, sp, #0
	.cfi_def_cfa_register 7
	str	r0, [r7, #4]
	.loc 1 169 0
	ldr	r3, .L59
	ldrh	r3, [r3]
	lsls	r3, r3, #16
	lsrs	r3, r3, #16
	lsls	r3, r3, #24
	lsrs	r2, r3, #24
	movs	r3, #12
	adds	r3, r7, r3
	strb	r2, [r3]
	.loc 1 170 0
	ldr	r3, .L59+4
	ldrh	r3, [r3]
	lsls	r3, r3, #16
	lsrs	r3, r3, #16
	lsls	r3, r3, #24
	lsrs	r2, r3, #24
	movs	r3, #12
	adds	r3, r7, r3
	strb	r2, [r3, #1]
	.loc 1 171 0
	ldr	r3, .L59+8
	ldrh	r3, [r3]
	lsls	r3, r3, #16
	lsrs	r3, r3, #16
	lsls	r3, r3, #24
	lsrs	r2, r3, #24
	movs	r3, #12
	adds	r3, r7, r3
	strb	r2, [r3, #2]
	.loc 1 173 0
	ldr	r3, .L59+12
	ldrh	r3, [r3]
	lsls	r3, r3, #16
	lsrs	r3, r3, #16
	lsls	r3, r3, #24
	lsrs	r2, r3, #24
	movs	r3, #12
	adds	r3, r7, r3
	strb	r2, [r3, #4]
	.loc 1 174 0
	ldr	r3, .L59+16
	ldrh	r3, [r3]
	lsls	r3, r3, #16
	lsrs	r3, r3, #16
	lsls	r3, r3, #24
	lsrs	r2, r3, #24
	movs	r3, #12
	adds	r3, r7, r3
	strb	r2, [r3, #5]
	.loc 1 175 0
	ldr	r3, .L59+20
	ldrh	r3, [r3]
	lsls	r3, r3, #16
	lsrs	r3, r3, #16
	lsls	r3, r3, #24
	lsrs	r2, r3, #24
	movs	r3, #12
	adds	r3, r7, r3
	strb	r2, [r3, #6]
	.loc 1 176 0
	ldr	r3, .L59+24
	ldrh	r3, [r3]
	lsls	r3, r3, #16
	lsrs	r3, r3, #16
	movs	r2, #250
	lsls	r2, r2, #3
	mov	ip, r2
	add	r3, r3, ip
	lsls	r3, r3, #16
	lsrs	r2, r3, #16
	movs	r3, #12
	adds	r3, r7, r3
	strh	r2, [r3, #8]
	.loc 1 178 0
	ldr	r2, [r7, #4]
	movs	r3, #12
	adds	r3, r7, r3
	movs	r0, r2
	movs	r1, r3
	movs	r3, #10
	movs	r2, r3
	bl	memcpy
	.loc 1 179 0
	ldr	r0, [r7, #4]
	mov	sp, r7
	add	sp, sp, #24
	@ sp needed
	pop	{r7, pc}
.L60:
	.align	2
.L59:
	.word	-1603207148
	.word	-1603207144
	.word	-1603207140
	.word	-1603207136
	.word	-1603207132
	.word	-1603207128
	.word	-1603207124
	.cfi_endproc
.LFE14:
	.size	RTC_GetDateTime, .-RTC_GetDateTime
	.section	.text.RTC_SetDateTime,"ax",%progbits
	.align	2
	.global	RTC_SetDateTime
	.code	16
	.thumb_func
	.type	RTC_SetDateTime, %function
RTC_SetDateTime:
.LFB15:
	.loc 1 182 0
	.cfi_startproc
	@ args = 0, pretend = 0, frame = 16
	@ frame_needed = 1, uses_anonymous_args = 0
	push	{r4, r7, lr}
	.cfi_def_cfa_offset 12
	.cfi_offset 4, -12
	.cfi_offset 7, -8
	.cfi_offset 14, -4
	sub	sp, sp, #20
	.cfi_def_cfa_offset 32
	add	r7, sp, #0
	.cfi_def_cfa_register 7
	str	r0, [r7, #4]
	.loc 1 185 0
	ldr	r3, [r7, #4]
	cmp	r3, #0
	bne	.L62
	.loc 1 185 0 discriminator 1
	movs	r3, #0
	b	.L63
.L62:
	.loc 1 186 0
	ldr	r3, [r7, #4]
	ldrh	r3, [r3, #8]
	ldr	r2, .L73
	cmp	r3, r2
	bls	.L64
	.loc 1 186 0 is_stmt 0 discriminator 1
	movs	r3, #0
	b	.L63
.L64:
	.loc 1 187 0 is_stmt 1
	ldr	r3, [r7, #4]
	ldrb	r3, [r3, #6]
	cmp	r3, #0
	beq	.L65
	.loc 1 187 0 is_stmt 0 discriminator 2
	ldr	r3, [r7, #4]
	ldrb	r3, [r3, #6]
	cmp	r3, #12
	bls	.L66
.L65:
	.loc 1 187 0 discriminator 3
	movs	r3, #0
	b	.L63
.L66:
	.loc 1 188 0 is_stmt 1
	ldr	r3, [r7, #4]
	ldrb	r3, [r3, #2]
	cmp	r3, #23
	bhi	.L67
	.loc 1 189 0 discriminator 1
	ldr	r3, [r7, #4]
	ldrb	r3, [r3, #1]
	.loc 1 188 0 discriminator 1
	cmp	r3, #59
	bhi	.L67
	.loc 1 189 0
	ldr	r3, [r7, #4]
	ldrb	r3, [r3]
	cmp	r3, #59
	bls	.L68
.L67:
	.loc 1 189 0 is_stmt 0 discriminator 1
	movs	r3, #0
	b	.L63
.L68:
	.loc 1 191 0 is_stmt 1
	ldr	r3, [r7, #4]
	ldrh	r3, [r3, #8]
	movs	r2, #3
	ands	r3, r2
	lsls	r3, r3, #16
	lsrs	r3, r3, #16
	.loc 1 193 0
	bne	.L69
	.loc 1 192 0
	ldr	r3, [r7, #4]
	ldrh	r3, [r3, #8]
	movs	r1, #100
	movs	r0, r3
	bl	__aeabi_uidivmod
	movs	r3, r1
	lsls	r3, r3, #16
	lsrs	r3, r3, #16
	.loc 1 191 0
	bne	.L70
	.loc 1 192 0
	ldr	r3, [r7, #4]
	ldrh	r2, [r3, #8]
	movs	r3, #200
	lsls	r1, r3, #1
	movs	r0, r2
	bl	__aeabi_uidivmod
	movs	r3, r1
	lsls	r3, r3, #16
	lsrs	r3, r3, #16
	bne	.L69
.L70:
	.loc 1 193 0 discriminator 3
	ldr	r3, [r7, #4]
	ldrb	r3, [r3, #6]
	cmp	r3, #2
	bne	.L69
	.loc 1 193 0 is_stmt 0 discriminator 2
	movs	r2, #1
	b	.L71
.L69:
	.loc 1 193 0 discriminator 1
	movs	r2, #0
.L71:
	.loc 1 191 0 is_stmt 1
	movs	r3, #15
	adds	r3, r7, r3
	strb	r2, [r3]
	.loc 1 195 0
	ldr	r3, [r7, #4]
	ldrb	r3, [r3, #4]
	cmp	r3, #0
	beq	.L72
	.loc 1 195 0 is_stmt 0 discriminator 1
	ldr	r3, [r7, #4]
	ldrb	r3, [r3, #4]
	movs	r2, r3
	ldr	r3, [r7, #4]
	ldrb	r3, [r3, #6]
	movs	r1, r3
	ldr	r3, .L73+4
	ldrb	r3, [r3, r1]
	movs	r1, r3
	movs	r3, #15
	adds	r3, r7, r3
	ldrb	r3, [r3]
	adds	r3, r1, r3
	cmp	r2, r3
	bgt	.L72
	.loc 1 197 0 is_stmt 1
	ldr	r2, .L73+8
	ldr	r3, [r7, #4]
	ldrb	r3, [r3]
	lsls	r3, r3, #16
	lsrs	r3, r3, #16
	strh	r3, [r2]
	.loc 1 198 0
	ldr	r2, .L73+12
	ldr	r3, [r7, #4]
	ldrb	r3, [r3, #1]
	lsls	r3, r3, #16
	lsrs	r3, r3, #16
	strh	r3, [r2]
	.loc 1 199 0
	ldr	r2, .L73+16
	ldr	r3, [r7, #4]
	ldrb	r3, [r3, #2]
	lsls	r3, r3, #16
	lsrs	r3, r3, #16
	strh	r3, [r2]
	.loc 1 200 0
	ldr	r2, .L73+20
	ldr	r3, [r7, #4]
	ldrh	r3, [r3, #8]
	ldr	r1, .L73+24
	mov	ip, r1
	add	r3, r3, ip
	lsls	r3, r3, #16
	lsrs	r3, r3, #16
	strh	r3, [r2]
	.loc 1 201 0
	ldr	r2, .L73+28
	ldr	r3, [r7, #4]
	ldrb	r3, [r3, #6]
	lsls	r3, r3, #16
	lsrs	r3, r3, #16
	strh	r3, [r2]
	.loc 1 202 0
	ldr	r4, .L73+32
	ldr	r3, [r7, #4]
	adds	r3, r3, #4
	movs	r0, r3
	bl	RTC_DayOfWeek
	movs	r3, r0
	lsls	r3, r3, #16
	lsrs	r3, r3, #16
	strh	r3, [r4]
	.loc 1 203 0
	ldr	r2, .L73+36
	ldr	r3, [r7, #4]
	ldrb	r3, [r3, #4]
	lsls	r3, r3, #16
	lsrs	r3, r3, #16
	strh	r3, [r2]
	.loc 1 205 0
	bl	RTC_UpdateContext
	.loc 1 206 0
	movs	r3, #1
	b	.L63
.L72:
	.loc 1 209 0
	movs	r3, #0
.L63:
	.loc 1 210 0
	movs	r0, r3
	mov	sp, r7
	add	sp, sp, #20
	@ sp needed
	pop	{r4, r7, pc}
.L74:
	.align	2
.L73:
	.word	2127
	.word	DayInMonth
	.word	-1603207148
	.word	-1603207144
	.word	-1603207140
	.word	-1603207124
	.word	-2000
	.word	-1603207128
	.word	-1603207132
	.word	-1603207136
	.cfi_endproc
.LFE15:
	.size	RTC_SetDateTime, .-RTC_SetDateTime
	.section	.text.RTC_GetAlarmDateTime,"ax",%progbits
	.align	2
	.global	RTC_GetAlarmDateTime
	.code	16
	.thumb_func
	.type	RTC_GetAlarmDateTime, %function
RTC_GetAlarmDateTime:
.LFB16:
	.loc 1 213 0
	.cfi_startproc
	@ args = 0, pretend = 0, frame = 24
	@ frame_needed = 1, uses_anonymous_args = 0
	push	{r7, lr}
	.cfi_def_cfa_offset 8
	.cfi_offset 7, -8
	.cfi_offset 14, -4
	sub	sp, sp, #24
	.cfi_def_cfa_offset 32
	add	r7, sp, #0
	.cfi_def_cfa_register 7
	str	r0, [r7, #4]
	.loc 1 216 0
	ldr	r3, .L77
	ldrh	r3, [r3]
	lsls	r3, r3, #16
	lsrs	r3, r3, #16
	lsls	r3, r3, #24
	lsrs	r2, r3, #24
	movs	r3, #12
	adds	r3, r7, r3
	strb	r2, [r3]
	.loc 1 217 0
	ldr	r3, .L77+4
	ldrh	r3, [r3]
	lsls	r3, r3, #16
	lsrs	r3, r3, #16
	lsls	r3, r3, #24
	lsrs	r2, r3, #24
	movs	r3, #12
	adds	r3, r7, r3
	strb	r2, [r3, #1]
	.loc 1 218 0
	ldr	r3, .L77+8
	ldrh	r3, [r3]
	lsls	r3, r3, #16
	lsrs	r3, r3, #16
	lsls	r3, r3, #24
	lsrs	r2, r3, #24
	movs	r3, #12
	adds	r3, r7, r3
	strb	r2, [r3, #2]
	.loc 1 220 0
	ldr	r3, .L77+12
	ldrh	r3, [r3]
	lsls	r3, r3, #16
	lsrs	r3, r3, #16
	lsls	r3, r3, #24
	lsrs	r2, r3, #24
	movs	r3, #12
	adds	r3, r7, r3
	strb	r2, [r3, #4]
	.loc 1 221 0
	ldr	r3, .L77+16
	ldrh	r3, [r3]
	lsls	r3, r3, #16
	lsrs	r3, r3, #16
	lsls	r3, r3, #24
	lsrs	r2, r3, #24
	movs	r3, #12
	adds	r3, r7, r3
	strb	r2, [r3, #5]
	.loc 1 222 0
	ldr	r3, .L77+20
	ldrh	r3, [r3]
	lsls	r3, r3, #16
	lsrs	r3, r3, #16
	lsls	r3, r3, #24
	lsrs	r2, r3, #24
	movs	r3, #12
	adds	r3, r7, r3
	strb	r2, [r3, #6]
	.loc 1 223 0
	ldr	r3, .L77+24
	ldrh	r3, [r3]
	lsls	r3, r3, #16
	lsrs	r3, r3, #16
	movs	r2, #250
	lsls	r2, r2, #3
	mov	ip, r2
	add	r3, r3, ip
	lsls	r3, r3, #16
	lsrs	r2, r3, #16
	movs	r3, #12
	adds	r3, r7, r3
	strh	r2, [r3, #8]
	.loc 1 225 0
	ldr	r2, [r7, #4]
	movs	r3, #12
	adds	r3, r7, r3
	movs	r0, r2
	movs	r1, r3
	movs	r3, #10
	movs	r2, r3
	bl	memcpy
	.loc 1 226 0
	ldr	r0, [r7, #4]
	mov	sp, r7
	add	sp, sp, #24
	@ sp needed
	pop	{r7, pc}
.L78:
	.align	2
.L77:
	.word	-1603207120
	.word	-1603207116
	.word	-1603207112
	.word	-1603207108
	.word	-1603207104
	.word	-1603207100
	.word	-1603207096
	.cfi_endproc
.LFE16:
	.size	RTC_GetAlarmDateTime, .-RTC_GetAlarmDateTime
	.section	.text.RTC_SetAlarmDateTime,"ax",%progbits
	.align	2
	.global	RTC_SetAlarmDateTime
	.code	16
	.thumb_func
	.type	RTC_SetAlarmDateTime, %function
RTC_SetAlarmDateTime:
.LFB17:
	.loc 1 229 0
	.cfi_startproc
	@ args = 0, pretend = 0, frame = 16
	@ frame_needed = 1, uses_anonymous_args = 0
	push	{r4, r7, lr}
	.cfi_def_cfa_offset 12
	.cfi_offset 4, -12
	.cfi_offset 7, -8
	.cfi_offset 14, -4
	sub	sp, sp, #20
	.cfi_def_cfa_offset 32
	add	r7, sp, #0
	.cfi_def_cfa_register 7
	str	r0, [r7, #4]
	movs	r2, r1
	adds	r3, r7, #3
	strb	r2, [r3]
	.loc 1 232 0
	ldr	r3, [r7, #4]
	cmp	r3, #0
	bne	.L80
	.loc 1 232 0 discriminator 1
	movs	r3, #0
	b	.L81
.L80:
	.loc 1 234 0
	ldr	r3, [r7, #4]
	ldrb	r3, [r3, #2]
	cmp	r3, #23
	bls	.LCB1262
	b	.L82	@long jump
.LCB1262:
	.loc 1 235 0 discriminator 1
	ldr	r3, [r7, #4]
	ldrb	r3, [r3, #1]
	.loc 1 234 0 discriminator 1
	cmp	r3, #59
	bls	.LCB1266
	b	.L82	@long jump
.LCB1266:
	.loc 1 236 0
	ldr	r3, [r7, #4]
	ldrb	r3, [r3]
	.loc 1 235 0
	cmp	r3, #59
	bls	.LCB1270
	b	.L82	@long jump
.LCB1270:
	.loc 1 239 0
	ldr	r3, [r7, #4]
	ldrh	r3, [r3, #8]
	ldr	r2, .L91
	cmp	r3, r2
	bls	.L83
	.loc 1 239 0 is_stmt 0 discriminator 1
	movs	r3, #0
	b	.L81
.L83:
	.loc 1 240 0 is_stmt 1
	ldr	r3, [r7, #4]
	ldrb	r3, [r3, #6]
	cmp	r3, #0
	beq	.L84
	.loc 1 240 0 is_stmt 0 discriminator 2
	ldr	r3, [r7, #4]
	ldrb	r3, [r3, #6]
	cmp	r3, #12
	bls	.L85
.L84:
	.loc 1 240 0 discriminator 3
	movs	r3, #0
	b	.L81
.L85:
	.loc 1 242 0 is_stmt 1
	ldr	r3, [r7, #4]
	ldrh	r3, [r3, #8]
	movs	r2, #3
	ands	r3, r2
	lsls	r3, r3, #16
	lsrs	r3, r3, #16
	.loc 1 244 0
	bne	.L86
	.loc 1 243 0
	ldr	r3, [r7, #4]
	ldrh	r3, [r3, #8]
	movs	r1, #100
	movs	r0, r3
	bl	__aeabi_uidivmod
	movs	r3, r1
	lsls	r3, r3, #16
	lsrs	r3, r3, #16
	.loc 1 242 0
	bne	.L87
	.loc 1 243 0
	ldr	r3, [r7, #4]
	ldrh	r2, [r3, #8]
	movs	r3, #200
	lsls	r1, r3, #1
	movs	r0, r2
	bl	__aeabi_uidivmod
	movs	r3, r1
	lsls	r3, r3, #16
	lsrs	r3, r3, #16
	bne	.L86
.L87:
	.loc 1 244 0 discriminator 3
	ldr	r3, [r7, #4]
	ldrb	r3, [r3, #6]
	cmp	r3, #2
	bne	.L86
	.loc 1 244 0 is_stmt 0 discriminator 2
	movs	r2, #1
	b	.L88
.L86:
	.loc 1 244 0 discriminator 1
	movs	r2, #0
.L88:
	.loc 1 242 0 is_stmt 1
	movs	r3, #15
	adds	r3, r7, r3
	strb	r2, [r3]
	.loc 1 246 0
	ldr	r3, [r7, #4]
	ldrb	r3, [r3, #4]
	cmp	r3, #0
	beq	.L82
	.loc 1 246 0 is_stmt 0 discriminator 1
	ldr	r3, [r7, #4]
	ldrb	r3, [r3, #4]
	movs	r2, r3
	ldr	r3, [r7, #4]
	ldrb	r3, [r3, #6]
	movs	r1, r3
	ldr	r3, .L91+4
	ldrb	r3, [r3, r1]
	movs	r1, r3
	movs	r3, #15
	adds	r3, r7, r3
	ldrb	r3, [r3]
	adds	r3, r1, r3
	cmp	r2, r3
	bgt	.L82
.LBB3:
	.loc 1 250 0 is_stmt 1
	ldr	r2, .L91+8
	ldr	r3, [r7, #4]
	ldrb	r3, [r3, #2]
	lsls	r3, r3, #16
	lsrs	r3, r3, #16
	strh	r3, [r2]
	.loc 1 251 0
	ldr	r2, .L91+12
	ldr	r3, [r7, #4]
	ldrb	r3, [r3, #1]
	lsls	r3, r3, #16
	lsrs	r3, r3, #16
	strh	r3, [r2]
	.loc 1 252 0
	ldr	r2, .L91+16
	ldr	r3, [r7, #4]
	ldrb	r3, [r3]
	lsls	r3, r3, #16
	lsrs	r3, r3, #16
	strh	r3, [r2]
	.loc 1 254 0
	ldr	r2, .L91+20
	ldr	r3, [r7, #4]
	ldrh	r3, [r3, #8]
	ldr	r1, .L91+24
	mov	ip, r1
	add	r3, r3, ip
	lsls	r3, r3, #16
	lsrs	r3, r3, #16
	strh	r3, [r2]
	.loc 1 255 0
	ldr	r2, .L91+28
	ldr	r3, [r7, #4]
	ldrb	r3, [r3, #6]
	lsls	r3, r3, #16
	lsrs	r3, r3, #16
	strh	r3, [r2]
	.loc 1 256 0
	ldr	r4, .L91+32
	ldr	r3, [r7, #4]
	adds	r3, r3, #4
	movs	r0, r3
	bl	RTC_DayOfWeek
	movs	r3, r0
	lsls	r3, r3, #16
	lsrs	r3, r3, #16
	strh	r3, [r4]
	.loc 1 257 0
	ldr	r2, .L91+36
	ldr	r3, [r7, #4]
	ldrb	r3, [r3, #4]
	lsls	r3, r3, #16
	lsrs	r3, r3, #16
	strh	r3, [r2]
	.loc 1 259 0
	bl	__disable_interrupts
	movs	r3, r0
	str	r3, [r7, #8]
	.loc 1 261 0
	ldr	r2, .L91+40
	adds	r3, r7, #3
	ldrb	r3, [r3]
	cmp	r3, #0
	beq	.L89
	.loc 1 261 0 is_stmt 0 discriminator 1
	ldr	r3, .L91+40
	ldrh	r3, [r3]
	lsls	r3, r3, #16
	lsrs	r3, r3, #16
	movs	r1, #1
	orrs	r3, r1
	lsls	r3, r3, #16
	lsrs	r3, r3, #16
	b	.L90
.L89:
	.loc 1 261 0 discriminator 2
	ldr	r3, .L91+40
	ldrh	r3, [r3]
	lsls	r3, r3, #16
	lsrs	r3, r3, #16
	movs	r1, #1
	bics	r3, r1
	lsls	r3, r3, #16
	lsrs	r3, r3, #16
.L90:
	.loc 1 261 0 discriminator 4
	strh	r3, [r2]
	.loc 1 262 0 is_stmt 1 discriminator 4
	ldr	r3, .L91+44
	movs	r2, #16
	strh	r2, [r3]
	.loc 1 264 0 discriminator 4
	bl	RTC_UpdateContext
	.loc 1 265 0 discriminator 4
	ldr	r3, [r7, #8]
	movs	r0, r3
	bl	__restore_interrupts
	.loc 1 267 0 discriminator 4
	movs	r3, #1
	b	.L81
.L82:
.LBE3:
	.loc 1 270 0
	movs	r3, #0
.L81:
	.loc 1 271 0
	movs	r0, r3
	mov	sp, r7
	add	sp, sp, #20
	@ sp needed
	pop	{r4, r7, pc}
.L92:
	.align	2
.L91:
	.word	2127
	.word	DayInMonth
	.word	-1603207112
	.word	-1603207116
	.word	-1603207120
	.word	-1603207096
	.word	-2000
	.word	-1603207100
	.word	-1603207104
	.word	-1603207108
	.word	-1603207160
	.word	-1603207152
	.cfi_endproc
.LFE17:
	.size	RTC_SetAlarmDateTime, .-RTC_SetAlarmDateTime
	.section	.text.RTC_SetCIIEnable,"ax",%progbits
	.align	2
	.global	RTC_SetCIIEnable
	.code	16
	.thumb_func
	.type	RTC_SetCIIEnable, %function
RTC_SetCIIEnable:
.LFB18:
	.loc 1 274 0
	.cfi_startproc
	@ args = 0, pretend = 0, frame = 16
	@ frame_needed = 1, uses_anonymous_args = 0
	push	{r7, lr}
	.cfi_def_cfa_offset 8
	.cfi_offset 7, -8
	.cfi_offset 14, -4
	sub	sp, sp, #16
	.cfi_def_cfa_offset 24
	add	r7, sp, #0
	.cfi_def_cfa_register 7
	movs	r2, r0
	adds	r3, r7, #6
	strh	r2, [r3]
	adds	r3, r7, #5
	adds	r2, r1, #0
	strb	r2, [r3]
	.loc 1 277 0
	adds	r3, r7, #6
	adds	r2, r7, #6
	ldrh	r2, [r2]
	lsls	r2, r2, #22
	lsrs	r2, r2, #22
	strh	r2, [r3]
	.loc 1 280 0
	bl	__disable_interrupts
	movs	r3, r0
	str	r3, [r7, #12]
	.loc 1 281 0
	ldr	r2, .L96
	adds	r3, r7, #6
	ldrh	r3, [r3]
	strh	r3, [r2]
	.loc 1 282 0
	ldr	r2, .L96+4
	adds	r3, r7, #5
	ldrb	r3, [r3]
	cmp	r3, #0
	beq	.L94
	.loc 1 282 0 is_stmt 0 discriminator 1
	ldr	r3, .L96+4
	ldrh	r3, [r3]
	lsls	r3, r3, #16
	lsrs	r3, r3, #16
	movs	r1, #2
	orrs	r3, r1
	lsls	r3, r3, #16
	lsrs	r3, r3, #16
	b	.L95
.L94:
	.loc 1 282 0 discriminator 2
	ldr	r3, .L96+4
	ldrh	r3, [r3]
	lsls	r3, r3, #16
	lsrs	r3, r3, #16
	movs	r1, #2
	bics	r3, r1
	lsls	r3, r3, #16
	lsrs	r3, r3, #16
.L95:
	.loc 1 282 0 discriminator 4
	strh	r3, [r2]
	.loc 1 283 0 is_stmt 1 discriminator 4
	bl	RTC_UpdateContext
	.loc 1 284 0 discriminator 4
	ldr	r3, [r7, #12]
	movs	r0, r3
	bl	__restore_interrupts
	.loc 1 285 0 discriminator 4
	nop
	mov	sp, r7
	add	sp, sp, #16
	@ sp needed
	pop	{r7, pc}
.L97:
	.align	2
.L96:
	.word	-1603207156
	.word	-1603207160
	.cfi_endproc
.LFE18:
	.size	RTC_SetCIIEnable, .-RTC_SetCIIEnable
	.section	.text.RTC_Sleep,"ax",%progbits
	.align	2
	.global	RTC_Sleep
	.code	16
	.thumb_func
	.type	RTC_Sleep, %function
RTC_Sleep:
.LFB19:
	.loc 1 288 0
	.cfi_startproc
	@ args = 0, pretend = 0, frame = 0
	@ frame_needed = 1, uses_anonymous_args = 0
	push	{r7, lr}
	.cfi_def_cfa_offset 8
	.cfi_offset 7, -8
	.cfi_offset 14, -4
	add	r7, sp, #0
	.cfi_def_cfa_register 7
	.loc 1 289 0
	nop
	mov	sp, r7
	@ sp needed
	pop	{r7, pc}
	.cfi_endproc
.LFE19:
	.size	RTC_Sleep, .-RTC_Sleep
	.section	.text.RTC_Resume,"ax",%progbits
	.align	2
	.global	RTC_Resume
	.code	16
	.thumb_func
	.type	RTC_Resume, %function
RTC_Resume:
.LFB20:
	.loc 1 292 0
	.cfi_startproc
	@ args = 0, pretend = 0, frame = 0
	@ frame_needed = 1, uses_anonymous_args = 0
	push	{r7, lr}
	.cfi_def_cfa_offset 8
	.cfi_offset 7, -8
	.cfi_offset 14, -4
	add	r7, sp, #0
	.cfi_def_cfa_register 7
	.loc 1 293 0
	nop
	mov	sp, r7
	@ sp needed
	pop	{r7, pc}
	.cfi_endproc
.LFE20:
	.size	RTC_Resume, .-RTC_Resume
	.text
.Letext0:
	.file 2 "d:\\1.11\\share\\em_armgcc\\arm-none-eabi\\include\\machine\\_default_types.h"
	.file 3 "d:\\1.11\\share\\em_armgcc\\arm-none-eabi\\include\\sys\\_stdint.h"
	.file 4 "d:\\1.11\\share\\em_armgcc\\arm-none-eabi\\include\\sys\\lock.h"
	.file 5 "d:\\1.11\\share\\em_armgcc\\arm-none-eabi\\include\\sys\\_types.h"
	.file 6 "d:\\1.11\\share\\em_armgcc\\lib\\gcc\\arm-none-eabi\\5.4.1\\include\\stddef.h"
	.file 7 "d:\\1.11\\share\\em_armgcc\\arm-none-eabi\\include\\sys\\reent.h"
	.file 8 ".\\Source/systypes.h"
	.file 9 ".\\Source\\Lib\\MT6261/drivers\\rtc.h"
	.file 10 ".\\Source\\Lib\\MT6261/drivers\\lcdif.h"
	.file 11 ".\\Source\\Lib\\MT6261/drivers\\usb.h"