	.syntax unified
	.cpu arm9e
	.fpu softvfp
	.eabi_attribute 20, 1
	.eabi_attribute 21, 1
	.eabi_attribute 23, 3
	.eabi_attribute 24, 1
	.eabi_attribute 25, 1
	.eabi_attribute 26, 1
	.eabi_attribute 30, 6
	.eabi_attribute 34, 0
	.eabi_attribute 18, 4
	.thumb
	.syntax unified
	.file	"usb.c"
	.text
.Ltext0:
	.cfi_sections	.debug_frame
	.global	EPFIFOSize
	.section	.rodata.EPFIFOSize,"a",%progbits
	.align	2
	.type	EPFIFOSize, %object
	.size	EPFIFOSize, 7
EPFIFOSize:
	.byte	64
	.byte	64
	.byte	64
	.byte	16
	.byte	16
	.byte	64
	.byte	64
	.comm	USB_OnDeviceActive,4,4
	.comm	EPState,168,4
	.section	.bss.USBDeviceState,"aw",%nobits
	.type	USBDeviceState, %object
	.size	USBDeviceState, 1
USBDeviceState:
	.space	1
	.section	.bss.SetupBuffer,"aw",%nobits
	.align	2
	.type	SetupBuffer, %object
	.size	SetupBuffer, 8
SetupBuffer:
	.space	8
	.section	.text.USB_EPFIFORead,"ax",%progbits
	.align	2
	.code	16
	.thumb_func
	.type	USB_EPFIFORead, %function
USB_EPFIFORead:
.LFB1:
	.file 1 "Source\\Lib\\MT6261\\Drivers\\usb.c"
	.loc 1 42 0
	.cfi_startproc
	@ args = 0, pretend = 0, frame = 24
	@ frame_needed = 1, uses_anonymous_args = 0
	push	{r7, lr}
	.cfi_def_cfa_offset 8
	.cfi_offset 7, -8
	.cfi_offset 14, -4
	sub	sp, sp, #24
	.cfi_def_cfa_offset 32
	add	r7, sp, #0
	.cfi_def_cfa_register 7
	str	r1, [r7, #8]
	str	r2, [r7, #4]
	movs	r3, #15
	adds	r3, r7, r3
	adds	r2, r0, #0
	strb	r2, [r3]
	.loc 1 43 0
	ldr	r3, [r7, #4]
	str	r3, [r7, #20]
	.loc 1 45 0
	movs	r3, #15
	adds	r3, r7, r3
	ldrb	r3, [r3]
	cmp	r3, #4
	bls	.L2
	.loc 1 45 0 is_stmt 0 discriminator 1
	movs	r3, #15
	adds	r3, r7, r3
	movs	r2, #15
	adds	r2, r7, r2
	ldrb	r2, [r2]
	subs	r2, r2, #4
	strb	r2, [r3]
.L2:
	.loc 1 46 0 is_stmt 1
	ldr	r2, .L6
	movs	r3, #15
	adds	r3, r7, r3
	ldrb	r3, [r3]
	strb	r3, [r2]
	.loc 1 48 0
	b	.L3
.L5:
	.loc 1 49 0
	ldr	r3, [r7, #20]
	cmp	r3, #0
	beq	.L4
	.loc 1 49 0 discriminator 1
	ldr	r3, [r7, #20]
	adds	r2, r3, #1
	str	r2, [r7, #20]
	movs	r2, #15
	adds	r2, r7, r2
	ldrb	r2, [r2]
	lsls	r2, r2, #2
	ldr	r1, .L6+4
	mov	ip, r1
	add	r2, r2, ip
	ldrb	r2, [r2]
	lsls	r2, r2, #24
	lsrs	r2, r2, #24
	strb	r2, [r3]
	b	.L3
.L4:
	.loc 1 50 0
	movs	r3, #15
	adds	r3, r7, r3
	ldrb	r3, [r3]
	lsls	r3, r3, #2
	ldr	r2, .L6+4
	mov	ip, r2
	add	r3, r3, ip
	ldrb	r3, [r3]
.L3:
	.loc 1 48 0
	ldr	r3, [r7, #8]
	subs	r2, r3, #1
	str	r2, [r7, #8]
	cmp	r3, #0
	bne	.L5
	.loc 1 51 0
	nop
	mov	sp, r7
	add	sp, sp, #24
	@ sp needed
	pop	{r7, pc}
.L7:
	.align	2
.L6:
	.word	-1601175538
	.word	-1601175520
	.cfi_endproc
.LFE1:
	.size	USB_EPFIFORead, .-USB_EPFIFORead
	.section	.text.USB_EPFIFOWrite,"ax",%progbits
	.align	2
	.code	16
	.thumb_func
	.type	USB_EPFIFOWrite, %function
USB_EPFIFOWrite:
.LFB2:
	.loc 1 54 0
	.cfi_startproc
	@ args = 0, pretend = 0, frame = 24
	@ frame_needed = 1, uses_anonymous_args = 0
	push	{r7, lr}
	.cfi_def_cfa_offset 8
	.cfi_offset 7, -8
	.cfi_offset 14, -4
	sub	sp, sp, #24
	.cfi_def_cfa_offset 32
	add	r7, sp, #0
	.cfi_def_cfa_register 7
	str	r1, [r7, #8]
	str	r2, [r7, #4]
	movs	r3, #15
	adds	r3, r7, r3
	adds	r2, r0, #0
	strb	r2, [r3]
	.loc 1 55 0
	ldr	r3, [r7, #4]
	str	r3, [r7, #20]
	.loc 1 57 0
	ldr	r2, .L11
	movs	r3, #15
	adds	r3, r7, r3
	ldrb	r3, [r3]
	strb	r3, [r2]
	.loc 1 59 0
	b	.L9
.L10:
	.loc 1 60 0
	movs	r3, #15
	adds	r3, r7, r3
	ldrb	r3, [r3]
	lsls	r3, r3, #2
	ldr	r2, .L11+4
	mov	ip, r2
	add	r3, r3, ip
	movs	r1, r3
	ldr	r3, [r7, #20]
	adds	r2, r3, #1
	str	r2, [r7, #20]
	ldrb	r3, [r3]
	strb	r3, [r1]
.L9:
	.loc 1 59 0
	ldr	r3, [r7, #8]
	subs	r2, r3, #1
	str	r2, [r7, #8]
	cmp	r3, #0
	bne	.L10
	.loc 1 61 0
	nop
	mov	sp, r7
	add	sp, sp, #24
	@ sp needed
	pop	{r7, pc}
.L12:
	.align	2
.L11:
	.word	-1601175538
	.word	-1601175520
	.cfi_endproc
.LFE2:
	.size	USB_EPFIFOWrite, .-USB_EPFIFOWrite
	.section	.text.USB_EP0Handler,"ax",%progbits
	.align	2
	.code	16
	.thumb_func
	.type	USB_EP0Handler, %function
USB_EP0Handler:
.LFB3:
	.loc 1 64 0
	.cfi_startproc
	@ args = 0, pretend = 0, frame = 16
	@ frame_needed = 1, uses_anonymous_args = 0
	push	{r7, lr}
	.cfi_def_cfa_offset 8
	.cfi_offset 7, -8
	.cfi_offset 14, -4
	sub	sp, sp, #16
	.cfi_def_cfa_offset 24
	add	r7, sp, #0
	.cfi_def_cfa_register 7
	movs	r2, r0
	adds	r3, r7, #7
	strb	r2, [r3]
	.loc 1 65 0
	ldr	r3, .L20
	ldrb	r3, [r3, #1]
	cmp	r3, #0
	bne	.L14
.LBB2:
	.loc 1 67 0
	movs	r0, #0
	bl	USB_GetOUTDataLength
	movs	r3, r0
	str	r3, [r7, #12]
	.loc 1 69 0
	ldr	r3, [r7, #12]
	cmp	r3, #7
	bls	.L15
	.loc 1 71 0
	ldr	r3, .L20+4
	movs	r2, r3
	movs	r1, #8
	movs	r0, #0
	bl	USB_EPFIFORead
	.loc 1 72 0
	ldr	r3, .L20+4
	movs	r0, r3
	bl	USB9_HandleSetupRequest
	b	.L17
.L15:
	.loc 1 74 0
	ldr	r3, [r7, #12]
	cmp	r3, #0
	beq	.L17
	.loc 1 74 0 is_stmt 0 discriminator 1
	movs	r3, #1
	movs	r2, #1
	movs	r1, #0
	movs	r0, #0
	bl	USB_UpdateEPState
	b	.L17
.L14:
.LBE2:
	.loc 1 76 0 is_stmt 1
	ldr	r3, .L20
	ldrb	r3, [r3, #1]
	cmp	r3, #1
	bne	.L17
	.loc 1 78 0
	movs	r0, #0
	bl	USB_DataReceive
	subs	r3, r0, #0
	beq	.L17
	.loc 1 80 0
	ldr	r3, .L20+4
	movs	r0, r3
	bl	USB9_HandleSetupRequest
	.loc 1 81 0
	ldr	r3, .L20
	movs	r2, #0
	strb	r2, [r3, #1]
.L17:
	.loc 1 84 0
	ldr	r3, .L20
	ldrb	r3, [r3, #1]
	cmp	r3, #2
	bne	.L19
	.loc 1 86 0
	movs	r0, #0
	bl	USB_DataTransmit
	subs	r3, r0, #0
	beq	.L19
	.loc 1 87 0
	ldr	r3, .L20
	movs	r2, #0
	strb	r2, [r3, #1]
.L19:
	.loc 1 89 0
	nop
	mov	sp, r7
	add	sp, sp, #16
	@ sp needed
	pop	{r7, pc}
.L21:
	.align	2
.L20:
	.word	EPState
	.word	SetupBuffer
	.cfi_endproc
.LFE3:
	.size	USB_EP0Handler, .-USB_EP0Handler
	.section	.rodata
	.align	2
.LC3:
	.ascii	"Can not initialize USB device interface.\015\000"
	.section	.text.USB_ResetDevice,"ax",%progbits
	.align	2
	.code	16
	.thumb_func
	.type	USB_ResetDevice, %function
USB_ResetDevice:
.LFB4:
	.loc 1 92 0
	.cfi_startproc
	@ args = 0, pretend = 0, frame = 0
	@ frame_needed = 1, uses_anonymous_args = 0
	push	{r7, lr}
	.cfi_def_cfa_offset 8
	.cfi_offset 7, -8
	.cfi_offset 14, -4
	add	r7, sp, #0
	.cfi_def_cfa_register 7
	.loc 1 93 0
	ldr	r3, .L26
	movs	r2, #16
	strb	r2, [r3]
	.loc 1 95 0
	ldr	r3, .L26+4
	movs	r2, #128
	strb	r2, [r3]
	.loc 1 96 0
	ldr	r3, .L26+4
	movs	r2, #0
	strb	r2, [r3]
	.loc 1 98 0
	ldr	r3, .L26+8
	movs	r2, #128
	strb	r2, [r3]
	.loc 1 99 0
	ldr	r3, .L26+12
	movs	r2, #0
	strb	r2, [r3]
	.loc 1 100 0
	ldr	r3, .L26+16
	movs	r2, #0
	strb	r2, [r3]
	.loc 1 101 0
	ldr	r3, .L26+20
	movs	r2, #7
	strb	r2, [r3]
	.loc 1 103 0
	movs	r0, #1
	bl	USB_SetDeviceState
	.loc 1 105 0
	ldr	r3, .L26+24
	movs	r2, #168
	movs	r1, #0
	movs	r0, r3
	bl	memset
	.loc 1 107 0
	bl	USB9_InterfaceInitialize
	subs	r3, r0, #0
	bne	.L23
	.loc 1 109 0
	ldr	r3, .L26+28
	movs	r0, r3
	bl	puts
	.loc 1 109 0
	ldr	r3, .L26+32
	ldr	r3, [r3]
	ldr	r3, [r3, #8]
	.loc 1 109 0
	movs	r0, r3
	bl	fflush
	.loc 1 110 0
	bl	USB_DisableDevice
	.loc 1 117 0
	b	.L25
.L23:
	.loc 1 114 0
	ldr	r3, .L26+36
	movs	r2, #64
	movs	r1, r3
	movs	r0, #0
	bl	USB_SetupEndpoint
	.loc 1 115 0
	movs	r1, #1
	movs	r0, #0
	bl	USB_SetEndpointEnabled
.L25:
	.loc 1 117 0
	nop
	mov	sp, r7
	@ sp needed
	pop	{r7, pc}
.L27:
	.align	2
.L26:
	.word	-1601175551
	.word	-1601175537
	.word	-1601175552
	.word	-1601175545
	.word	-1601175543
	.word	-1601175541
	.word	EPState
	.word	.LC3
	.word	_impure_ptr
	.word	USB_EP0Handler
	.cfi_endproc
.LFE4:
	.size	USB_ResetDevice, .-USB_ResetDevice
	.section	.text.USB_GetInterruptFlags,"ax",%progbits
	.align	2
	.code	16
	.thumb_func
	.type	USB_GetInterruptFlags, %function
USB_GetInterruptFlags:
.LFB5:
	.loc 1 120 0
	.cfi_startproc
	@ args = 0, pretend = 0, frame = 16
	@ frame_needed = 1, uses_anonymous_args = 0
	push	{r7, lr}
	.cfi_def_cfa_offset 8
	.cfi_offset 7, -8
	.cfi_offset 14, -4
	sub	sp, sp, #16
	.cfi_def_cfa_offset 24
	add	r7, sp, #0
	.cfi_def_cfa_register 7
	str	r0, [r7, #12]
	str	r1, [r7, #8]
	str	r2, [r7, #4]
	.loc 1 121 0
	ldr	r3, .L33
	ldrb	r3, [r3]
	lsls	r3, r3, #24
	lsrs	r3, r3, #24
	ldr	r2, .L33+4
	ldrb	r2, [r2]
	lsls	r2, r2, #24
	lsrs	r2, r2, #24
	ands	r3, r2
	lsls	r3, r3, #24
	lsrs	r2, r3, #24
	ldr	r3, [r7, #12]
	strb	r2, [r3]
	.loc 1 122 0
	ldr	r3, .L33+8
	ldrb	r3, [r3]
	lsls	r3, r3, #24
	lsrs	r3, r3, #24
	ldr	r2, .L33+12
	ldrb	r2, [r2]
	lsls	r2, r2, #24
	lsrs	r2, r2, #24
	ands	r3, r2
	lsls	r3, r3, #24
	lsrs	r2, r3, #24
	ldr	r3, [r7, #8]
	strb	r2, [r3]
	.loc 1 123 0
	ldr	r3, .L33+16
	ldrb	r3, [r3]
	lsls	r3, r3, #24
	lsrs	r3, r3, #24
	ldr	r2, .L33+20
	ldrb	r2, [r2]
	lsls	r2, r2, #24
	lsrs	r2, r2, #24
	ands	r3, r2
	lsls	r3, r3, #24
	lsrs	r2, r3, #24
	ldr	r3, [r7, #4]
	strb	r2, [r3]
	.loc 1 125 0
	ldr	r3, [r7, #12]
	ldrb	r3, [r3]
	cmp	r3, #0
	bne	.L29
	.loc 1 125 0 is_stmt 0 discriminator 2
	ldr	r3, [r7, #8]
	ldrb	r3, [r3]
	cmp	r3, #0
	bne	.L29
	.loc 1 125 0 discriminator 4
	ldr	r3, [r7, #4]
	ldrb	r3, [r3]
	cmp	r3, #0
	beq	.L30
.L29:
	.loc 1 125 0 discriminator 5
	movs	r3, #1
	b	.L31
.L30:
	.loc 1 125 0 discriminator 6
	movs	r3, #0
.L31:
	.loc 1 125 0 discriminator 8
	lsls	r3, r3, #24
	lsrs	r3, r3, #24
	.loc 1 126 0 is_stmt 1 discriminator 8
	movs	r0, r3
	mov	sp, r7
	add	sp, sp, #16
	@ sp needed
	pop	{r7, pc}
.L34:
	.align	2
.L33:
	.word	-1601175546
	.word	-1601175541
	.word	-1601175550
	.word	-1601175545
	.word	-1601175548
	.word	-1601175543
	.cfi_endproc
.LFE5:
	.size	USB_GetInterruptFlags, .-USB_GetInterruptFlags
	.section	.text.USB_EPDefaultHandler,"ax",%progbits
	.align	2
	.code	16
	.thumb_func
	.type	USB_EPDefaultHandler, %function
USB_EPDefaultHandler:
.LFB6:
	.loc 1 129 0
	.cfi_startproc
	@ args = 0, pretend = 0, frame = 16
	@ frame_needed = 1, uses_anonymous_args = 0
	push	{r7, lr}
	.cfi_def_cfa_offset 8
	.cfi_offset 7, -8
	.cfi_offset 14, -4
	sub	sp, sp, #16
	.cfi_def_cfa_offset 24
	add	r7, sp, #0
	.cfi_def_cfa_register 7
	movs	r2, r0
	adds	r3, r7, #7
	strb	r2, [r3]
	.loc 1 130 0
	movs	r3, #15
	adds	r3, r7, r3
	adds	r2, r7, #7
	ldrb	r2, [r2]
	movs	r1, #127
	ands	r2, r1
	strb	r2, [r3]
	.loc 1 133 0
	ldr	r2, .L42
	movs	r3, #15
	adds	r3, r7, r3
	ldrb	r3, [r3]
	strb	r3, [r2]
	.loc 1 134 0
	movs	r3, #15
	adds	r3, r7, r3
	ldrb	r3, [r3]
	cmp	r3, #0
	bne	.L36
	.loc 1 136 0
	ldr	r2, .L42+4
	movs	r3, #14
	adds	r3, r7, r3
	ldrb	r2, [r2]
	strb	r2, [r3]
	.loc 1 137 0
	movs	r3, #14
	adds	r3, r7, r3
	ldrb	r3, [r3]
	movs	r2, #4
	ands	r3, r2
	beq	.L37
	.loc 1 137 0 is_stmt 0 discriminator 1
	ldr	r2, .L42+4
	movs	r3, #14
	adds	r3, r7, r3
	ldrb	r3, [r3]
	movs	r1, #4
	bics	r3, r1
	lsls	r3, r3, #24
	lsrs	r3, r3, #24
	strb	r3, [r2]
.L37:
	.loc 1 138 0 is_stmt 1
	movs	r3, #14
	adds	r3, r7, r3
	ldrb	r3, [r3]
	movs	r2, #16
	ands	r3, r2
	beq	.L41
	.loc 1 138 0 is_stmt 0 discriminator 1
	ldr	r3, .L42+4
	movs	r2, #128
	strb	r2, [r3]
	.loc 1 150 0 is_stmt 1 discriminator 1
	b	.L41
.L36:
	.loc 1 140 0
	adds	r3, r7, #7
	ldrb	r3, [r3]
	lsls	r3, r3, #24
	asrs	r3, r3, #24
	bpl	.L40
	.loc 1 142 0
	ldr	r2, .L42+4
	movs	r3, #14
	adds	r3, r7, r3
	ldrb	r2, [r2]
	strb	r2, [r3]
	.loc 1 143 0
	ldr	r2, .L42+4
	movs	r3, #14
	adds	r3, r7, r3
	ldrb	r3, [r3]
	movs	r1, #32
	bics	r3, r1
	lsls	r3, r3, #24
	lsrs	r3, r3, #24
	strb	r3, [r2]
	.loc 1 150 0
	b	.L41
.L40:
	.loc 1 147 0
	ldr	r2, .L42+8
	movs	r3, #14
	adds	r3, r7, r3
	ldrb	r2, [r2]
	strb	r2, [r3]
	.loc 1 148 0
	ldr	r2, .L42+8
	movs	r3, #14
	adds	r3, r7, r3
	ldrb	r3, [r3]
	movs	r1, #64
	bics	r3, r1
	lsls	r3, r3, #24
	lsrs	r3, r3, #24
	strb	r3, [r2]
.L41:
	.loc 1 150 0
	nop
	mov	sp, r7
	add	sp, sp, #16
	@ sp needed
	pop	{r7, pc}
.L43:
	.align	2
.L42:
	.word	-1601175538
	.word	-1601175535
	.word	-1601175532
	.cfi_endproc
.LFE6:
	.size	USB_EPDefaultHandler, .-USB_EPDefaultHandler
	.section	.text.USB_InterruptHandler,"ax",%progbits
	.align	2
	.code	16
	.thumb_func
	.type	USB_InterruptHandler, %function
USB_InterruptHandler:
.LFB7:
	.loc 1 153 0
	.cfi_startproc
	@ args = 0, pretend = 0, frame = 8
	@ frame_needed = 1, uses_anonymous_args = 0
	push	{r7, lr}
	.cfi_def_cfa_offset 8
	.cfi_offset 7, -8
	.cfi_offset 14, -4
	sub	sp, sp, #8
	.cfi_def_cfa_offset 16
	add	r7, sp, #0
	.cfi_def_cfa_register 7
	.loc 1 157 0
	b	.L45
.L56:
	.loc 1 159 0
	adds	r3, r7, #5
	ldrb	r3, [r3]
	movs	r2, r3
	movs	r3, #4
	ands	r3, r2
	beq	.L46
	.loc 1 162 0
	bl	USB_ResetDevice
	b	.L44
.L46:
	.loc 1 165 0
	adds	r3, r7, #5
	ldrb	r3, [r3]
	movs	r2, r3
	movs	r3, #2
	ands	r3, r2
	beq	.L48
	.loc 1 168 0
	ldr	r3, .L57
	movs	r2, #5
	strb	r2, [r3]
	.loc 1 169 0
	ldr	r3, .L57+4
	movs	r2, #20
	strb	r2, [r3]
.L48:
	.loc 1 172 0
	adds	r3, r7, #7
	movs	r2, #0
	strb	r2, [r3]
	b	.L49
.L55:
.LBB3:
	.loc 1 174 0
	ldr	r1, .L57+8
	adds	r3, r7, #7
	ldrb	r3, [r3]
	cmp	r3, #4
	bls	.L50
	.loc 1 174 0 is_stmt 0 discriminator 1
	adds	r3, r7, #7
	ldrb	r3, [r3]
	subs	r3, r3, #4
	lsls	r3, r3, #24
	lsrs	r3, r3, #24
	b	.L51
.L50:
	.loc 1 174 0 discriminator 2
	adds	r3, r7, #7
	ldrb	r3, [r3]
.L51:
	.loc 1 174 0 discriminator 4
	adds	r2, r7, #6
	strb	r3, [r2]
	adds	r3, r7, #6
	ldrb	r2, [r3]
	adds	r3, r2, #0
	strb	r3, [r1]
	adds	r3, r7, #6
	strb	r2, [r3]
	.loc 1 176 0 is_stmt 1 discriminator 4
	adds	r3, r7, #7
	ldrb	r3, [r3]
	cmp	r3, #4
	bhi	.L52
	.loc 1 176 0 is_stmt 0 discriminator 1
	adds	r3, r7, #4
	ldrb	r3, [r3]
	movs	r2, r3
	adds	r3, r7, #6
	ldrb	r3, [r3]
	asrs	r2, r2, r3
	movs	r3, r2
	movs	r2, #1
	ands	r3, r2
	beq	.L52
	.loc 1 178 0 is_stmt 1
	adds	r3, r7, #6
	ldrb	r3, [r3]
	movs	r2, #1
	lsls	r2, r2, r3
	movs	r3, r2
	lsls	r3, r3, #24
	asrs	r3, r3, #24
	mvns	r3, r3
	lsls	r3, r3, #24
	asrs	r3, r3, #24
	adds	r2, r7, #4
	ldrb	r2, [r2]
	lsls	r2, r2, #24
	asrs	r2, r2, #24
	ands	r3, r2
	lsls	r3, r3, #24
	asrs	r3, r3, #24
	lsls	r3, r3, #24
	lsrs	r2, r3, #24
	adds	r3, r7, #4
	strb	r2, [r3]
	.loc 1 179 0
	adds	r3, r7, #6
	ldrb	r3, [r3]
	movs	r2, #128
	rsbs	r2, r2, #0
	orrs	r3, r2
	lsls	r3, r3, #24
	lsrs	r3, r3, #24
	movs	r0, r3
	bl	USB_EPDefaultHandler
	.loc 1 180 0
	adds	r3, r7, #7
	ldrb	r2, [r3]
	ldr	r1, .L57+12
	movs	r3, r2
	lsls	r3, r3, #1
	adds	r3, r3, r2
	lsls	r3, r3, #3
	adds	r3, r1, r3
	adds	r3, r3, #20
	ldr	r3, [r3]
	cmp	r3, #0
	beq	.L52
	.loc 1 180 0 discriminator 1
	adds	r3, r7, #7
	ldrb	r2, [r3]
	ldr	r1, .L57+12
	movs	r3, r2
	lsls	r3, r3, #1
	adds	r3, r3, r2
	lsls	r3, r3, #3
	adds	r3, r1, r3
	adds	r3, r3, #20
	ldr	r3, [r3]
	adds	r2, r7, #6
	ldrb	r2, [r2]
	movs	r1, #128
	rsbs	r1, r1, #0
	orrs	r2, r1
	lsls	r2, r2, #24
	lsrs	r2, r2, #24
	movs	r0, r2
	blx	r3
.L52:
	.loc 1 182 0
	adds	r3, r7, #7
	ldrb	r3, [r3]
	cmp	r3, #4
	bls	.L53
	.loc 1 182 0 is_stmt 0 discriminator 1
	adds	r3, r7, #3
	ldrb	r3, [r3]
	movs	r2, r3
	adds	r3, r7, #6
	ldrb	r3, [r3]
	asrs	r2, r2, r3
	movs	r3, r2
	movs	r2, #1
	ands	r3, r2
	beq	.L53
	.loc 1 184 0 is_stmt 1
	adds	r3, r7, #6
	ldrb	r3, [r3]
	movs	r2, #1
	lsls	r2, r2, r3
	movs	r3, r2
	lsls	r3, r3, #24
	asrs	r3, r3, #24
	mvns	r3, r3
	lsls	r3, r3, #24
	asrs	r3, r3, #24
	adds	r2, r7, #3
	ldrb	r2, [r2]
	lsls	r2, r2, #24
	asrs	r2, r2, #24
	ands	r3, r2
	lsls	r3, r3, #24
	asrs	r3, r3, #24
	lsls	r3, r3, #24
	lsrs	r2, r3, #24
	adds	r3, r7, #3
	strb	r2, [r3]
	.loc 1 185 0
	adds	r3, r7, #6
	ldrb	r3, [r3]
	movs	r0, r3
	bl	USB_EPDefaultHandler
	.loc 1 186 0
	adds	r3, r7, #7
	ldrb	r2, [r3]
	ldr	r1, .L57+12
	movs	r3, r2
	lsls	r3, r3, #1
	adds	r3, r3, r2
	lsls	r3, r3, #3
	adds	r3, r1, r3
	adds	r3, r3, #20
	ldr	r3, [r3]
	cmp	r3, #0
	beq	.L53
	.loc 1 186 0 discriminator 1
	adds	r3, r7, #7
	ldrb	r2, [r3]
	ldr	r1, .L57+12
	movs	r3, r2
	lsls	r3, r3, #1
	adds	r3, r3, r2
	lsls	r3, r3, #3
	adds	r3, r1, r3
	adds	r3, r3, #20
	ldr	r3, [r3]
	adds	r2, r7, #6
	ldrb	r2, [r2]
	movs	r0, r2
	blx	r3
.L53:
.LBE3:
	.loc 1 172 0 discriminator 2
	adds	r3, r7, #7
	ldrb	r2, [r3]
	adds	r3, r7, #7
	adds	r2, r2, #1
	strb	r2, [r3]
.L49:
	.loc 1 172 0 is_stmt 0 discriminator 1
	adds	r3, r7, #7
	ldrb	r3, [r3]
	cmp	r3, #6
	bhi	.L54
	.loc 1 172 0 discriminator 3
	adds	r3, r7, #4
	ldrb	r3, [r3]
	cmp	r3, #0
	beq	.LCB818
	b	.L55	@long jump
.LCB818:
	.loc 1 172 0 discriminator 4
	adds	r3, r7, #3
	ldrb	r3, [r3]
	cmp	r3, #0
	beq	.LCB822
	b	.L55	@long jump
.LCB822:
.L54:
	.loc 1 190 0 is_stmt 1
	adds	r3, r7, #5
	ldrb	r3, [r3]
	movs	r2, r3
	movs	r3, #1
	ands	r3, r2
	beq	.L45
	.loc 1 193 0
	ldr	r3, .L57
	movs	r2, #6
	strb	r2, [r3]
	.loc 1 194 0
	ldr	r3, .L57+4
	movs	r2, #17
	strb	r2, [r3]
.L45:
	.loc 1 157 0
	adds	r2, r7, #3
	adds	r1, r7, #4
	adds	r3, r7, #5
	movs	r0, r3
	bl	USB_GetInterruptFlags
	subs	r3, r0, #0
	beq	.LCB846
	b	.L56	@long jump
.LCB846:
.L44:
	.loc 1 197 0
	mov	sp, r7
	add	sp, sp, #8
	@ sp needed
	pop	{r7, pc}
.L58:
	.align	2
.L57:
	.word	-1601175541
	.word	-1601175551
	.word	-1601175538
	.word	EPState
	.cfi_endproc
.LFE7:
	.size	USB_InterruptHandler, .-USB_InterruptHandler
	.section	.rodata
	.align	2
.LC8:
	.ascii	"USB driver initialization.\015\000"
	.section	.text.USB_Initialize,"ax",%progbits
	.align	2
	.global	USB_Initialize
	.code	16
	.thumb_func
	.type	USB_Initialize, %function
USB_Initialize:
.LFB8:
	.loc 1 200 0
	.cfi_startproc
	@ args = 0, pretend = 0, frame = 0
	@ frame_needed = 1, uses_anonymous_args = 0
	push	{r7, lr}
	.cfi_def_cfa_offset 8
	.cfi_offset 7, -8
	.cfi_offset 14, -4
	sub	sp, sp, #8
	.cfi_def_cfa_offset 16
	add	r7, sp, #8
	.cfi_def_cfa 7, 8
	.loc 1 202 0
	ldr	r3, .L60
	movs	r0, r3
	bl	puts
	.loc 1 202 0
	ldr	r3, .L60+4
	ldr	r3, [r3]
	ldr	r3, [r3, #8]
	.loc 1 202 0
	movs	r0, r3
	bl	fflush
	.loc 1 203 0
	ldr	r3, .L60+8
	movs	r2, #168
	movs	r1, #0
	movs	r0, r3
	bl	memset
	.loc 1 205 0
	bl	USB_DisableDevice
	.loc 1 207 0
	ldr	r1, .L60+12
	movs	r3, #1
	str	r3, [sp]
	movs	r3, #1
	movs	r2, #1
	movs	r0, #25
	bl	NVIC_RegisterIRQ
	.loc 1 211 0
	nop
	mov	sp, r7
	@ sp needed
	pop	{r7, pc}
.L61:
	.align	2
.L60:
	.word	.LC8
	.word	_impure_ptr
	.word	EPState
	.word	USB_InterruptHandler
	.cfi_endproc
.LFE8:
	.size	USB_Initialize, .-USB_Initialize
	.section	.rodata
	.align	2
.LC14:
	.ascii	"USB device enabled.\015\000"
	.section	.text.USB_EnableDevice,"ax",%progbits
	.align	2
	.global	USB_EnableDevice
	.code	16
	.thumb_func
	.type	USB_EnableDevice, %function
USB_EnableDevice:
.LFB9:
	.loc 1 214 0
	.cfi_startproc
	@ args = 0, pretend = 0, frame = 8
	@ frame_needed = 1, uses_anonymous_args = 0
	push	{r7, lr}
	.cfi_def_cfa_offset 8
	.cfi_offset 7, -8
	.cfi_offset 14, -4
	sub	sp, sp, #8
	.cfi_def_cfa_offset 16
	add	r7, sp, #0
	.cfi_def_cfa_register 7
	.loc 1 216 0
	ldr	r3, .L67
	ldrb	r3, [r3]
	cmp	r3, #0
	bne	.L66
	.loc 1 219 0
	movs	r0, #1
	bl	PMU_TurnOnVUSB
.LBB4:
	.loc 1 221 0
	movs	r3, #18
	str	r3, [r7, #4]
	ldr	r3, [r7, #4]
	cmp	r3, #46
	bgt	.L64
	.loc 1 221 0 is_stmt 0 discriminator 1
	ldr	r3, [r7, #4]
	asrs	r3, r3, #4
	lsls	r3, r3, #2
	ldr	r2, .L67+4
	mov	ip, r2
	add	r3, r3, ip
	movs	r1, r3
	ldr	r3, [r7, #4]
	movs	r2, #15
	ands	r3, r2
	movs	r2, #1
	lsls	r2, r2, r3
	movs	r3, r2
	lsls	r3, r3, #16
	lsrs	r3, r3, #16
	strh	r3, [r1]
	b	.L65
.L64:
	.loc 1 221 0 discriminator 2
	ldr	r3, [r7, #4]
	cmp	r3, #52
	bgt	.L65
	.loc 1 221 0 discriminator 3
	ldr	r2, .L67+8
	ldr	r3, [r7, #4]
	movs	r1, #15
	ands	r3, r1
	movs	r1, #1
	lsls	r1, r1, r3
	movs	r3, r1
	lsls	r3, r3, #16
	lsrs	r3, r3, #16
	strh	r3, [r2]
.L65:
.LBE4:
	.loc 1 225 0 is_stmt 1
	movs	r0, #50
	bl	USC_Pause_us
	.loc 1 227 0
	ldr	r3, .L67+12
	ldr	r2, .L67+12
	ldr	r2, [r2]
	ldr	r1, .L67+16
	ands	r2, r1
	str	r2, [r3]
	.loc 1 228 0
	ldr	r3, .L67+20
	ldr	r2, .L67+20
	ldr	r2, [r2]
	movs	r1, #128
	lsls	r1, r1, #4
	orrs	r2, r1
	str	r2, [r3]
	.loc 1 229 0
	movs	r0, #10
	bl	USC_Pause_us
	.loc 1 231 0
	ldr	r3, .L67+24
	movs	r2, #1
	strb	r2, [r3]
	.loc 1 232 0
	movs	r0, #1
	bl	USB_SetDeviceState
	.loc 1 234 0
	movs	r0, #25
	bl	NVIC_EnableIRQ
	.loc 1 235 0
	ldr	r3, .L67+28
	movs	r0, r3
	bl	puts
	.loc 1 235 0
	ldr	r3, .L67+32
	ldr	r3, [r3]
	ldr	r3, [r3, #8]
	.loc 1 235 0
	movs	r0, r3
	bl	fflush
.L66:
	.loc 1 238 0
	nop
	mov	sp, r7
	add	sp, sp, #8
	@ sp needed
	pop	{r7, pc}
.L68:
	.align	2
.L67:
	.word	USBDeviceState
	.word	-1610546400
	.word	-1603076080
	.word	-1601107772
	.word	-32769
	.word	-1601107776
	.word	-1601174976
	.word	.LC14
	.word	_impure_ptr
	.cfi_endproc
.LFE9:
	.size	USB_EnableDevice, .-USB_EnableDevice
	.section	.rodata
	.align	2
.LC18:
	.ascii	"USB device disabled.\015\000"
	.section	.text.USB_DisableDevice,"ax",%progbits
	.align	2
	.global	USB_DisableDevice
	.code	16
	.thumb_func
	.type	USB_DisableDevice, %function
USB_DisableDevice:
.LFB10:
	.loc 1 241 0
	.cfi_startproc
	@ args = 0, pretend = 0, frame = 8
	@ frame_needed = 1, uses_anonymous_args = 0
	push	{r7, lr}
	.cfi_def_cfa_offset 8
	.cfi_offset 7, -8
	.cfi_offset 14, -4
	sub	sp, sp, #8
	.cfi_def_cfa_offset 16
	add	r7, sp, #0
	.cfi_def_cfa_register 7
	.loc 1 242 0
	ldr	r3, .L74
	ldrb	r3, [r3]
	cmp	r3, #0
	beq	.L73
	.loc 1 245 0
	movs	r0, #25
	bl	NVIC_DisableIRQ
	.loc 1 248 0
	movs	r0, #0
	bl	USB_SetDeviceState
	.loc 1 249 0
	bl	USB9_InterfaceInitialize
	.loc 1 252 0
	ldr	r2, .L74+4
	ldr	r3, .L74+4
	ldrb	r3, [r3]
	lsls	r3, r3, #24
	lsrs	r3, r3, #24
	movs	r1, #1
	bics	r3, r1
	lsls	r3, r3, #24
	lsrs	r3, r3, #24
	strb	r3, [r2]
	.loc 1 254 0
	ldr	r3, .L74+8
	ldr	r2, .L74+8
	ldr	r2, [r2]
	ldr	r1, .L74+12
	ands	r2, r1
	str	r2, [r3]
	.loc 1 255 0
	ldr	r3, .L74+16
	ldr	r2, .L74+16
	ldr	r2, [r2]
	movs	r1, #128
	lsls	r1, r1, #8
	orrs	r2, r1
	str	r2, [r3]
	.loc 1 257 0
	movs	r0, #0
	bl	PMU_TurnOnVUSB
.LBB5:
	.loc 1 261 0
	movs	r3, #18
	str	r3, [r7, #4]
	ldr	r3, [r7, #4]
	cmp	r3, #46
	bgt	.L71
	.loc 1 261 0 is_stmt 0 discriminator 1
	ldr	r3, [r7, #4]
	asrs	r3, r3, #4
	lsls	r3, r3, #2
	ldr	r2, .L74+20
	mov	ip, r2
	add	r3, r3, ip
	movs	r1, r3
	ldr	r3, [r7, #4]
	movs	r2, #15
	ands	r3, r2
	movs	r2, #1
	lsls	r2, r2, r3
	movs	r3, r2
	lsls	r3, r3, #16
	lsrs	r3, r3, #16
	strh	r3, [r1]
	b	.L72
.L71:
	.loc 1 261 0 discriminator 2
	ldr	r3, [r7, #4]
	cmp	r3, #52
	bgt	.L72
	.loc 1 261 0 discriminator 3
	ldr	r2, .L74+24
	ldr	r3, [r7, #4]
	movs	r1, #15
	ands	r3, r1
	movs	r1, #1
	lsls	r1, r1, r3
	movs	r3, r1
	lsls	r3, r3, #16
	lsrs	r3, r3, #16
	strh	r3, [r2]
.L72:
.LBE5:
	.loc 1 262 0 is_stmt 1
	ldr	r3, .L74+28
	movs	r0, r3
	bl	puts
	.loc 1 262 0
	ldr	r3, .L74+32
	ldr	r3, [r3]
	ldr	r3, [r3, #8]
	.loc 1 262 0
	movs	r0, r3
	bl	fflush
.L73:
	.loc 1 264 0
	nop
	mov	sp, r7
	add	sp, sp, #8
	@ sp needed
	pop	{r7, pc}
.L75:
	.align	2
.L74:
	.word	USBDeviceState
	.word	-1601174976
	.word	-1601107776
	.word	-2049
	.word	-1601107772
	.word	-1610546416
	.word	-1603076084
	.word	.LC18
	.word	_impure_ptr
	.cfi_endproc
.LFE10:
	.size	USB_DisableDevice, .-USB_DisableDevice
	.section	.text.USB_OnCableDisconnect,"ax",%progbits
	.align	2
	.global	USB_OnCableDisconnect
	.code	16
	.thumb_func
	.type	USB_OnCableDisconnect, %function
USB_OnCableDisconnect:
.LFB11:
	.loc 1 267 0
	.cfi_startproc
	@ args = 0, pretend = 0, frame = 0
	@ frame_needed = 1, uses_anonymous_args = 0
	push	{r7, lr}
	.cfi_def_cfa_offset 8
	.cfi_offset 7, -8
	.cfi_offset 14, -4
	add	r7, sp, #0
	.cfi_def_cfa_register 7
	.loc 1 269 0
	bl	USB_IsDeviceActive
	subs	r3, r0, #0
	beq	.L78
	.loc 1 269 0 is_stmt 0 discriminator 1
	bl	USB_ResetDevice
.L78:
	.loc 1 271 0 is_stmt 1
	nop
	mov	sp, r7
	@ sp needed
	pop	{r7, pc}
	.cfi_endproc
.LFE11:
	.size	USB_OnCableDisconnect, .-USB_OnCableDisconnect
	.section	.text.USB_SetDeviceAddress,"ax",%progbits
	.align	2
	.global	USB_SetDeviceAddress
	.code	16
	.thumb_func
	.type	USB_SetDeviceAddress, %function
USB_SetDeviceAddress:
.LFB12:
	.loc 1 274 0
	.cfi_startproc
	@ args = 0, pretend = 0, frame = 8
	@ frame_needed = 1, uses_anonymous_args = 0
	push	{r7, lr}
	.cfi_def_cfa_offset 8
	.cfi_offset 7, -8
	.cfi_offset 14, -4
	sub	sp, sp, #8
	.cfi_def_cfa_offset 16
	add	r7, sp, #0
	.cfi_def_cfa_register 7
	movs	r2, r0
	adds	r3, r7, #7
	strb	r2, [r3]
	.loc 1 275 0
	ldr	r2, .L80
	adds	r3, r7, #7
	ldrb	r3, [r3]
	strb	r3, [r2]
	.loc 1 276 0
	movs	r0, #2
	bl	USB_SetDeviceState
	.loc 1 277 0
	nop
	mov	sp, r7
	add	sp, sp, #8
	@ sp needed
	pop	{r7, pc}
.L81:
	.align	2
.L80:
	.word	-1601175552
	.cfi_endproc
.LFE12:
	.size	USB_SetDeviceAddress, .-USB_SetDeviceAddress
	.section	.text.USB_SetDeviceState,"ax",%progbits
	.align	2
	.global	USB_SetDeviceState
	.code	16
	.thumb_func
	.type	USB_SetDeviceState, %function
USB_SetDeviceState:
.LFB13:
	.loc 1 280 0
	.cfi_startproc
	@ args = 0, pretend = 0, frame = 16
	@ frame_needed = 1, uses_anonymous_args = 0
	push	{r4, r7, lr}
	.cfi_def_cfa_offset 12
	.cfi_offset 4, -12
	.cfi_offset 7, -8
	.cfi_offset 14, -4
	sub	sp, sp, #20
	.cfi_def_cfa_offset 32
	add	r7, sp, #0
	.cfi_def_cfa_register 7
	movs	r2, r0
	adds	r3, r7, #7
	strb	r2, [r3]
	.loc 1 281 0
	ldr	r3, .L85
	ldrb	r3, [r3]
	adds	r2, r7, #7
	ldrb	r2, [r2]
	cmp	r2, r3
	beq	.L84
.LBB6:
	.loc 1 283 0
	movs	r3, #15
	adds	r4, r7, r3
	bl	USB_IsDeviceActive
	movs	r3, r0
	strb	r3, [r4]
	.loc 1 286 0
	ldr	r3, .L85
	adds	r2, r7, #7
	ldrb	r2, [r2]
	strb	r2, [r3]
	.loc 1 287 0
	movs	r3, #14
	adds	r4, r7, r3
	bl	USB_IsDeviceActive
	movs	r3, r0
	strb	r3, [r4]
	.loc 1 288 0
	ldr	r3, .L85+4
	ldr	r3, [r3]
	cmp	r3, #0
	beq	.L84
	.loc 1 288 0 discriminator 1
	movs	r3, #15
	adds	r2, r7, r3
	movs	r3, #14
	adds	r3, r7, r3
	ldrb	r2, [r2]
	ldrb	r3, [r3]
	cmp	r2, r3
	beq	.L84
	.loc 1 289 0
	ldr	r3, .L85+4
	ldr	r3, [r3]
	movs	r2, #14
	adds	r2, r7, r2
	ldrb	r2, [r2]
	movs	r0, r2
	blx	r3
.L84:
.LBE6:
	.loc 1 291 0
	nop
	mov	sp, r7
	add	sp, sp, #20
	@ sp needed
	pop	{r4, r7, pc}
.L86:
	.align	2
.L85:
	.word	USBDeviceState
	.word	USB_OnDeviceActive
	.cfi_endproc
.LFE13:
	.size	USB_SetDeviceState, .-USB_SetDeviceState
	.section	.text.USB_GetDeviceState,"ax",%progbits
	.align	2
	.global	USB_GetDeviceState
	.code	16
	.thumb_func
	.type	USB_GetDeviceState, %function
USB_GetDeviceState:
.LFB14:
	.loc 1 294 0
	.cfi_startproc
	@ args = 0, pretend = 0, frame = 0
	@ frame_needed = 1, uses_anonymous_args = 0
	push	{r7, lr}
	.cfi_def_cfa_offset 8
	.cfi_offset 7, -8
	.cfi_offset 14, -4
	add	r7, sp, #0
	.cfi_def_cfa_register 7
	.loc 1 295 0
	ldr	r3, .L89
	ldrb	r3, [r3]
	.loc 1 296 0
	movs	r0, r3
	mov	sp, r7
	@ sp needed
	pop	{r7, pc}
.L90:
	.align	2
.L89:
	.word	USBDeviceState
	.cfi_endproc
.LFE14:
	.size	USB_GetDeviceState, .-USB_GetDeviceState
	.section	.text.USB_IsDeviceActive,"ax",%progbits
	.align	2
	.global	USB_IsDeviceActive
	.code	16
	.thumb_func
	.type	USB_IsDeviceActive, %function
USB_IsDeviceActive:
.LFB15:
	.loc 1 299 0
	.cfi_startproc
	@ args = 0, pretend = 0, frame = 0
	@ frame_needed = 1, uses_anonymous_args = 0
	push	{r7, lr}
	.cfi_def_cfa_offset 8
	.cfi_offset 7, -8
	.cfi_offset 14, -4
	add	r7, sp, #0
	.cfi_def_cfa_register 7
	.loc 1 300 0
	ldr	r3, .L93
	ldrb	r3, [r3]
	subs	r3, r3, #3
	rsbs	r2, r3, #0
	adcs	r3, r3, r2
	lsls	r3, r3, #24
	lsrs	r3, r3, #24
	.loc 1 301 0
	movs	r0, r3
	mov	sp, r7
	@ sp needed
	pop	{r7, pc}
.L94:
	.align	2
.L93:
	.word	USBDeviceState
	.cfi_endproc
.LFE15:
	.size	USB_IsDeviceActive, .-USB_IsDeviceActive
	.section	.text.USB_SetOnStateChangeHandler,"ax",%progbits
	.align	2
	.global	USB_SetOnStateChangeHandler
	.code	16
	.thumb_func
	.type	USB_SetOnStateChangeHandler, %function
USB_SetOnStateChangeHandler:
.LFB16:
	.loc 1 304 0
	.cfi_startproc
	@ args = 0, pretend = 0, frame = 8
	@ frame_needed = 1, uses_anonymous_args = 0
	push	{r7, lr}
	.cfi_def_cfa_offset 8
	.cfi_offset 7, -8
	.cfi_offset 14, -4
	sub	sp, sp, #8
	.cfi_def_cfa_offset 16
	add	r7, sp, #0
	.cfi_def_cfa_register 7
	str	r0, [r7, #4]
	.loc 1 306 0
	ldr	r3, .L96
	ldr	r2, [r7, #4]
	str	r2, [r3]
	.loc 1 308 0
	nop
	mov	sp, r7
	add	sp, sp, #8
	@ sp needed
	pop	{r7, pc}
.L97:
	.align	2
.L96:
	.word	USB_OnDeviceActive
	.cfi_endproc
.LFE16:
	.size	USB_SetOnStateChangeHandler, .-USB_SetOnStateChangeHandler
	.section	.text.USB_SetupEndpoint,"ax",%progbits
	.align	2
	.global	USB_SetupEndpoint
	.code	16
	.thumb_func
	.type	USB_SetupEndpoint, %function
USB_SetupEndpoint:
.LFB17:
	.loc 1 311 0
	.cfi_startproc
	@ args = 0, pretend = 0, frame = 16
	@ frame_needed = 1, uses_anonymous_args = 0
	push	{r7, lr}
	.cfi_def_cfa_offset 8
	.cfi_offset 7, -8
	.cfi_offset 14, -4
	sub	sp, sp, #16
	.cfi_def_cfa_offset 24
	add	r7, sp, #0
	.cfi_def_cfa_register 7
	str	r1, [r7]
	movs	r1, r2
	adds	r3, r7, #7
	adds	r2, r0, #0
	strb	r2, [r3]
	adds	r3, r7, #6
	adds	r2, r1, #0
	strb	r2, [r3]
	.loc 1 312 0
	movs	r3, #15
	adds	r3, r7, r3
	movs	r2, #128
	strb	r2, [r3]
	.loc 1 314 0
	adds	r3, r7, #7
	ldrb	r3, [r3]
	cmp	r3, #6
	bhi	.L99
	.loc 1 314 0 is_stmt 0 discriminator 2
	ldr	r3, [r7]
	cmp	r3, #0
	bne	.L100
.L99:
	.loc 1 314 0 is_stmt 1 discriminator 3
	movs	r3, #0
	b	.L101
.L100:
.LBB7:
	.loc 1 316 0
	movs	r3, #14
	adds	r3, r7, r3
	adds	r2, r7, #6
	ldrb	r2, [r2]
	strb	r2, [r3]
	adds	r3, r7, #7
	ldrb	r2, [r3]
	movs	r3, #13
	adds	r3, r7, r3
	ldr	r1, .L113
	ldrb	r2, [r1, r2]
	strb	r2, [r3]
	movs	r3, #13
	adds	r3, r7, r3
	movs	r2, #14
	adds	r2, r7, r2
	ldrb	r2, [r2]
	ldrb	r3, [r3]
	lsls	r1, r3, #24
	lsrs	r0, r1, #24
	lsls	r1, r2, #24
	lsrs	r1, r1, #24
	cmp	r0, r1
	bls	.L102
	adds	r3, r2, #0
.L102:
	lsls	r3, r3, #24
	lsrs	r3, r3, #24
	movs	r2, r3
.LBE7:
	adds	r3, r7, #6
	strb	r2, [r3]
	.loc 1 318 0
	ldr	r2, .L113+4
	adds	r3, r7, #7
	ldrb	r3, [r3]
	cmp	r3, #4
	bls	.L103
	.loc 1 318 0 is_stmt 0 discriminator 1
	adds	r3, r7, #7
	ldrb	r3, [r3]
	subs	r3, r3, #4
	lsls	r3, r3, #24
	lsrs	r3, r3, #24
	b	.L104
.L103:
	.loc 1 318 0 discriminator 2
	adds	r3, r7, #7
	ldrb	r3, [r3]
.L104:
	.loc 1 318 0 discriminator 4
	strb	r3, [r2]
	.loc 1 319 0 is_stmt 1 discriminator 4
	adds	r3, r7, #7
	ldrb	r3, [r3]
	cmp	r3, #0
	beq	.L105
	.loc 1 321 0
	adds	r3, r7, #7
	ldrb	r3, [r3]
	cmp	r3, #4
	bhi	.L106
	.loc 1 323 0
	ldr	r3, .L113+8
	movs	r2, #64
	strb	r2, [r3]
	.loc 1 324 0
	ldr	r3, .L113+8
	ldrb	r3, [r3]
	lsls	r3, r3, #24
	lsrs	r3, r3, #24
	movs	r2, r3
	movs	r3, #1
	ands	r3, r2
	beq	.L107
	.loc 1 324 0 is_stmt 0 discriminator 1
	ldr	r3, .L113+8
	movs	r2, #136
	strb	r2, [r3]
.L107:
	.loc 1 325 0 is_stmt 1
	ldr	r3, .L113+8
	ldrb	r3, [r3]
	lsls	r3, r3, #24
	lsrs	r3, r3, #24
	movs	r2, r3
	movs	r3, #1
	ands	r3, r2
	beq	.L108
	.loc 1 325 0 is_stmt 0 discriminator 1
	ldr	r3, .L113+8
	movs	r2, #136
	strb	r2, [r3]
.L108:
	.loc 1 326 0 is_stmt 1
	ldr	r2, .L113+8
	ldr	r3, .L113+8
	ldrb	r3, [r3]
	lsls	r3, r3, #24
	lsrs	r3, r3, #24
	movs	r1, #127
	ands	r3, r1
	lsls	r3, r3, #24
	lsrs	r3, r3, #24
	strb	r3, [r2]
	.loc 1 327 0
	ldr	r2, .L113+12
	adds	r3, r7, #6
	ldrb	r3, [r3]
	strb	r3, [r2]
	b	.L105
.L106:
	.loc 1 329 0
	adds	r3, r7, #7
	ldrb	r3, [r3]
	cmp	r3, #5
	beq	.L109
	.loc 1 329 0 is_stmt 0 discriminator 1
	adds	r3, r7, #7
	ldrb	r3, [r3]
	cmp	r3, #6
	bne	.L110
.L109:
	.loc 1 331 0 is_stmt 1
	ldr	r3, .L113+16
	movs	r2, #128
	strb	r2, [r3]
	.loc 1 332 0
	ldr	r3, .L113+16
	ldrb	r3, [r3]
	lsls	r3, r3, #24
	lsrs	r3, r3, #24
	movs	r2, r3
	movs	r3, #1
	ands	r3, r2
	beq	.L111
	.loc 1 332 0 is_stmt 0 discriminator 1
	ldr	r3, .L113+16
	movs	r2, #16
	strb	r2, [r3]
.L111:
	.loc 1 333 0 is_stmt 1
	ldr	r3, .L113+16
	ldrb	r3, [r3]
	lsls	r3, r3, #24
	lsrs	r3, r3, #24
	movs	r2, r3
	movs	r3, #1
	ands	r3, r2
	beq	.L112
	.loc 1 333 0 is_stmt 0 discriminator 1
	ldr	r3, .L113+16
	movs	r2, #16
	strb	r2, [r3]
.L112:
	.loc 1 334 0 is_stmt 1
	ldr	r2, .L113+20
	adds	r3, r7, #6
	ldrb	r3, [r3]
	strb	r3, [r2]
	.loc 1 335 0
	movs	r3, #15
	adds	r3, r7, r3
	movs	r2, #0
	strb	r2, [r3]
	b	.L105
.L110:
	.loc 1 337 0
	movs	r3, #0
	b	.L101
.L105:
	.loc 1 340 0
	adds	r3, r7, #7
	ldrb	r2, [r3]
	movs	r3, r2
	lsls	r3, r3, #1
	adds	r3, r3, r2
	lsls	r3, r3, #3
	ldr	r2, .L113+24
	adds	r3, r3, r2
	movs	r2, #24
	movs	r1, #0
	movs	r0, r3
	bl	memset
	.loc 1 342 0
	adds	r3, r7, #7
	ldrb	r2, [r3]
	ldr	r1, .L113+24
	movs	r3, r2
	lsls	r3, r3, #1
	adds	r3, r3, r2
	lsls	r3, r3, #3
	adds	r3, r1, r3
	adds	r3, r3, #1
	movs	r2, #0
	strb	r2, [r3]
	.loc 1 343 0
	adds	r3, r7, #7
	ldrb	r2, [r3]
	ldr	r1, .L113+24
	movs	r3, r2
	lsls	r3, r3, #1
	adds	r3, r3, r2
	lsls	r3, r3, #3
	movs	r2, #15
	adds	r2, r7, r2
	ldrb	r2, [r2]
	strb	r2, [r3, r1]
	.loc 1 344 0
	adds	r3, r7, #7
	ldrb	r2, [r3]
	ldr	r1, .L113+24
	movs	r3, r2
	lsls	r3, r3, #1
	adds	r3, r3, r2
	lsls	r3, r3, #3
	adds	r3, r1, r3
	adds	r3, r3, #20
	ldr	r2, [r7]
	str	r2, [r3]
	.loc 1 345 0
	adds	r3, r7, #7
	ldrb	r2, [r3]
	adds	r3, r7, #6
	ldrb	r3, [r3]
	lsls	r3, r3, #16
	lsrs	r0, r3, #16
	ldr	r1, .L113+24
	movs	r3, r2
	lsls	r3, r3, #1
	adds	r3, r3, r2
	lsls	r3, r3, #3
	adds	r3, r1, r3
	adds	r3, r3, #4
	adds	r2, r0, #0
	strh	r2, [r3]
	.loc 1 346 0
	movs	r3, #1
.L101:
	.loc 1 347 0
	movs	r0, r3
	mov	sp, r7
	add	sp, sp, #16
	@ sp needed
	pop	{r7, pc}
.L114:
	.align	2
.L113:
	.word	EPFIFOSize
	.word	-1601175538
	.word	-1601175535
	.word	-1601175536
	.word	-1601175532
	.word	-1601175533
	.word	EPState
	.cfi_endproc
.LFE17:
	.size	USB_SetupEndpoint, .-USB_SetupEndpoint
	.section	.text.USB_SetEndpointEnabled,"ax",%progbits
	.align	2
	.global	USB_SetEndpointEnabled
	.code	16
	.thumb_func
	.type	USB_SetEndpointEnabled, %function
USB_SetEndpointEnabled:
.LFB18:
	.loc 1 350 0
	.cfi_startproc
	@ args = 0, pretend = 0, frame = 16
	@ frame_needed = 1, uses_anonymous_args = 0
	push	{r7, lr}
	.cfi_def_cfa_offset 8
	.cfi_offset 7, -8
	.cfi_offset 14, -4
	sub	sp, sp, #16
	.cfi_def_cfa_offset 24
	add	r7, sp, #0
	.cfi_def_cfa_register 7
	movs	r2, r0
	adds	r3, r7, #7
	strb	r2, [r3]
	adds	r3, r7, #6
	adds	r2, r1, #0
	strb	r2, [r3]
	.loc 1 353 0
	adds	r3, r7, #7
	ldrb	r3, [r3]
	cmp	r3, #6
	bhi	.L116
	.loc 1 353 0 is_stmt 0 discriminator 2
	adds	r3, r7, #7
	ldrb	r2, [r3]
	ldr	r1, .L132
	movs	r3, r2
	lsls	r3, r3, #1
	adds	r3, r3, r2
	lsls	r3, r3, #3
	adds	r3, r1, r3
	adds	r3, r3, #20
	ldr	r3, [r3]
	cmp	r3, #0
	bne	.L117
.L116:
	.loc 1 353 0 is_stmt 1 discriminator 3
	movs	r3, #0
	b	.L118
.L117:
	.loc 1 355 0
	ldr	r1, .L132+4
	adds	r3, r7, #7
	ldrb	r3, [r3]
	cmp	r3, #4
	bls	.L119
	.loc 1 355 0 is_stmt 0 discriminator 1
	adds	r3, r7, #7
	ldrb	r3, [r3]
	subs	r3, r3, #4
	lsls	r3, r3, #24
	lsrs	r3, r3, #24
	b	.L120
.L119:
	.loc 1 355 0 discriminator 2
	adds	r3, r7, #7
	ldrb	r3, [r3]
.L120:
	.loc 1 355 0 discriminator 4
	movs	r2, #15
	adds	r2, r7, r2
	strb	r3, [r2]
	movs	r3, #15
	adds	r3, r7, r3
	ldrb	r3, [r3]
	strb	r3, [r1]
	.loc 1 356 0 is_stmt 1 discriminator 4
	adds	r3, r7, #7
	ldrb	r2, [r3]
	ldr	r1, .L132
	movs	r3, r2
	lsls	r3, r3, #1
	adds	r3, r3, r2
	lsls	r3, r3, #3
	ldrb	r3, [r3, r1]
	lsls	r3, r3, #24
	asrs	r3, r3, #24
	bpl	.L121
	.loc 1 358 0
	adds	r3, r7, #6
	ldrb	r3, [r3]
	cmp	r3, #0
	beq	.L122
	.loc 1 360 0
	ldr	r3, .L132+8
	movs	r2, #64
	strb	r2, [r3]
	.loc 1 361 0
	ldr	r3, .L132+8
	ldrb	r3, [r3]
	lsls	r3, r3, #24
	lsrs	r3, r3, #24
	movs	r2, r3
	movs	r3, #1
	ands	r3, r2
	beq	.L123
	.loc 1 361 0 is_stmt 0 discriminator 1
	ldr	r3, .L132+8
	movs	r2, #136
	strb	r2, [r3]
.L123:
	.loc 1 362 0 is_stmt 1
	ldr	r3, .L132+8
	ldrb	r3, [r3]
	lsls	r3, r3, #24
	lsrs	r3, r3, #24
	movs	r2, r3
	movs	r3, #1
	ands	r3, r2
	beq	.L124
	.loc 1 362 0 is_stmt 0 discriminator 1
	ldr	r3, .L132+8
	movs	r2, #136
	strb	r2, [r3]
.L124:
	.loc 1 363 0 is_stmt 1
	ldr	r2, .L132+8
	ldr	r3, .L132+8
	ldrb	r3, [r3]
	lsls	r3, r3, #24
	lsrs	r3, r3, #24
	movs	r1, #127
	ands	r3, r1
	lsls	r3, r3, #24
	lsrs	r3, r3, #24
	strb	r3, [r2]
	.loc 1 364 0
	ldr	r3, .L132+12
	movs	r2, #0
	strb	r2, [r3]
	.loc 1 365 0
	ldr	r1, .L132+16
	ldr	r3, .L132+16
	ldrb	r3, [r3]
	lsls	r3, r3, #24
	lsrs	r3, r3, #24
	lsls	r3, r3, #24
	asrs	r2, r3, #24
	movs	r3, #15
	adds	r3, r7, r3
	ldrb	r3, [r3]
	movs	r0, #1
	lsls	r0, r0, r3
	movs	r3, r0
	lsls	r3, r3, #24
	asrs	r3, r3, #24
	orrs	r3, r2
	lsls	r3, r3, #24
	asrs	r3, r3, #24
	lsls	r3, r3, #24
	lsrs	r3, r3, #24
	strb	r3, [r1]
	b	.L125
.L122:
	.loc 1 369 0
	ldr	r1, .L132+16
	ldr	r3, .L132+16
	ldrb	r3, [r3]
	lsls	r3, r3, #24
	lsrs	r3, r3, #24
	lsls	r3, r3, #24
	asrs	r3, r3, #24
	movs	r2, #15
	adds	r2, r7, r2
	ldrb	r2, [r2]
	movs	r0, #1
	lsls	r0, r0, r2
	movs	r2, r0
	lsls	r2, r2, #24
	asrs	r2, r2, #24
	mvns	r2, r2
	lsls	r2, r2, #24
	asrs	r2, r2, #24
	ands	r3, r2
	lsls	r3, r3, #24
	asrs	r3, r3, #24
	lsls	r3, r3, #24
	lsrs	r3, r3, #24
	strb	r3, [r1]
	.loc 1 370 0
	ldr	r3, .L132+12
	movs	r2, #0
	strb	r2, [r3]
.L125:
	.loc 1 372 0
	movs	r3, #1
	b	.L118
.L121:
	.loc 1 374 0
	adds	r3, r7, #7
	ldrb	r3, [r3]
	cmp	r3, #5
	beq	.L126
	.loc 1 374 0 is_stmt 0 discriminator 1
	adds	r3, r7, #7
	ldrb	r3, [r3]
	cmp	r3, #6
	bne	.L127
.L126:
	.loc 1 376 0 is_stmt 1
	adds	r3, r7, #6
	ldrb	r3, [r3]
	cmp	r3, #0
	beq	.L128
	.loc 1 378 0
	ldr	r3, .L132+20
	movs	r2, #128
	strb	r2, [r3]
	.loc 1 379 0
	ldr	r3, .L132+20
	ldrb	r3, [r3]
	lsls	r3, r3, #24
	lsrs	r3, r3, #24
	movs	r2, r3
	movs	r3, #1
	ands	r3, r2
	beq	.L129
	.loc 1 379 0 is_stmt 0 discriminator 1
	ldr	r3, .L132+20
	movs	r2, #16
	strb	r2, [r3]
.L129:
	.loc 1 380 0 is_stmt 1
	ldr	r3, .L132+20
	ldrb	r3, [r3]
	lsls	r3, r3, #24
	lsrs	r3, r3, #24
	movs	r2, r3
	movs	r3, #1
	ands	r3, r2
	beq	.L130
	.loc 1 380 0 is_stmt 0 discriminator 1
	ldr	r3, .L132+20
	movs	r2, #16
	strb	r2, [r3]
.L130:
	.loc 1 381 0 is_stmt 1
	ldr	r3, .L132+24
	movs	r2, #0
	strb	r2, [r3]
	.loc 1 382 0
	ldr	r1, .L132+28
	ldr	r3, .L132+28
	ldrb	r3, [r3]
	lsls	r3, r3, #24
	lsrs	r3, r3, #24
	lsls	r3, r3, #24
	asrs	r2, r3, #24
	movs	r3, #15
	adds	r3, r7, r3
	ldrb	r3, [r3]
	movs	r0, #1
	lsls	r0, r0, r3
	movs	r3, r0
	lsls	r3, r3, #24
	asrs	r3, r3, #24
	orrs	r3, r2
	lsls	r3, r3, #24
	asrs	r3, r3, #24
	lsls	r3, r3, #24
	lsrs	r3, r3, #24
	strb	r3, [r1]
	b	.L131
.L128:
	.loc 1 386 0
	ldr	r1, .L132+28
	ldr	r3, .L132+28
	ldrb	r3, [r3]
	lsls	r3, r3, #24
	lsrs	r3, r3, #24
	lsls	r3, r3, #24
	asrs	r3, r3, #24
	movs	r2, #15
	adds	r2, r7, r2
	ldrb	r2, [r2]
	movs	r0, #1
	lsls	r0, r0, r2
	movs	r2, r0
	lsls	r2, r2, #24
	asrs	r2, r2, #24
	mvns	r2, r2
	lsls	r2, r2, #24
	asrs	r2, r2, #24
	ands	r3, r2
	lsls	r3, r3, #24
	asrs	r3, r3, #24
	lsls	r3, r3, #24
	lsrs	r3, r3, #24
	strb	r3, [r1]
	.loc 1 387 0
	ldr	r3, .L132+24
	movs	r2, #0
	strb	r2, [r3]
.L131:
	.loc 1 389 0
	movs	r3, #1
	b	.L118
.L127:
	.loc 1 391 0
	movs	r3, #0
.L118:
	.loc 1 392 0
	movs	r0, r3
	mov	sp, r7
	add	sp, sp, #16
	@ sp needed
	pop	{r7, pc}
.L133:
	.align	2
.L132:
	.word	EPState
	.word	-1601175538
	.word	-1601175535
	.word	-1601175534
	.word	-1601175545
	.word	-1601175532
	.word	-1601175531
	.word	-1601175543
	.cfi_endproc
.LFE18:
	.size	USB_SetEndpointEnabled, .-USB_SetEndpointEnabled
	.section	.text.USB_GetOUTDataLength,"ax",%progbits
	.align	2
	.global	USB_GetOUTDataLength
	.code	16
	.thumb_func
	.type	USB_GetOUTDataLength, %function
USB_GetOUTDataLength:
.LFB19:
	.loc 1 395 0
	.cfi_startproc
	@ args = 0, pretend = 0, frame = 24
	@ frame_needed = 1, uses_anonymous_args = 0
	push	{r7, lr}
	.cfi_def_cfa_offset 8
	.cfi_offset 7, -8
	.cfi_offset 14, -4
	sub	sp, sp, #24
	.cfi_def_cfa_offset 32
	add	r7, sp, #0
	.cfi_def_cfa_register 7
	movs	r2, r0
	adds	r3, r7, #7
	strb	r2, [r3]
	.loc 1 396 0
	movs	r3, #0
	str	r3, [r7, #20]
	.loc 1 399 0
	adds	r3, r7, #7
	ldrb	r3, [r3]
	cmp	r3, #0
	bne	.L135
	.loc 1 401 0
	ldr	r2, .L140
	adds	r3, r7, #7
	ldrb	r3, [r3]
	strb	r3, [r2]
	.loc 1 402 0
	ldr	r2, .L140+4
	movs	r3, #19
	adds	r3, r7, r3
	ldrb	r2, [r2]
	strb	r2, [r3]
	.loc 1 403 0
	movs	r3, #19
	adds	r3, r7, r3
	ldrb	r3, [r3]
	movs	r2, #1
	ands	r3, r2
	beq	.L137
	.loc 1 403 0 is_stmt 0 discriminator 1
	ldr	r3, .L140+8
	ldrb	r3, [r3]
	lsls	r3, r3, #24
	lsrs	r3, r3, #24
	str	r3, [r7, #20]
	b	.L137
.L135:
	.loc 1 405 0 is_stmt 1
	adds	r3, r7, #7
	ldrb	r3, [r3]
	cmp	r3, #5
	beq	.L138
	.loc 1 405 0 is_stmt 0 discriminator 1
	adds	r3, r7, #7
	ldrb	r3, [r3]
	cmp	r3, #6
	bne	.L137
.L138:
.LBB8:
	.loc 1 407 0 is_stmt 1
	adds	r3, r7, #7
	ldrb	r3, [r3]
	subs	r3, r3, #4
	str	r3, [r7, #12]
	.loc 1 409 0
	ldr	r2, .L140
	ldr	r3, [r7, #12]
	lsls	r3, r3, #24
	lsrs	r3, r3, #24
	strb	r3, [r2]
	.loc 1 410 0
	ldr	r2, .L140+12
	movs	r3, #19
	adds	r3, r7, r3
	ldrb	r2, [r2]
	strb	r2, [r3]
	.loc 1 411 0
	movs	r3, #19
	adds	r3, r7, r3
	ldrb	r3, [r3]
	movs	r2, #1
	ands	r3, r2
	beq	.L137
	.loc 1 411 0 is_stmt 0 discriminator 1
	ldr	r3, .L140+16
	ldrb	r3, [r3]
	lsls	r3, r3, #24
	lsrs	r3, r3, #24
	movs	r2, r3
	movs	r3, #7
	ands	r3, r2
	lsls	r3, r3, #8
	ldr	r2, .L140+8
	ldrb	r2, [r2]
	lsls	r2, r2, #24
	lsrs	r2, r2, #24
	orrs	r3, r2
	str	r3, [r7, #20]
.L137:
.LBE8:
	.loc 1 413 0 is_stmt 1
	ldr	r3, [r7, #20]
	.loc 1 414 0
	movs	r0, r3
	mov	sp, r7
	add	sp, sp, #24
	@ sp needed
	pop	{r7, pc}
.L141:
	.align	2
.L140:
	.word	-1601175538
	.word	-1601175535
	.word	-1601175530
	.word	-1601175532
	.word	-1601175529
	.cfi_endproc
.LFE19:
	.size	USB_GetOUTDataLength, .-USB_GetOUTDataLength
	.section	.text.USB_UpdateEPState,"ax",%progbits
	.align	2
	.global	USB_UpdateEPState
	.code	16
	.thumb_func
	.type	USB_UpdateEPState, %function
USB_UpdateEPState:
.LFB20:
	.loc 1 417 0
	.cfi_startproc
	@ args = 0, pretend = 0, frame = 16
	@ frame_needed = 1, uses_anonymous_args = 0
	push	{r4, r5, r7, lr}
	.cfi_def_cfa_offset 16
	.cfi_offset 4, -16
	.cfi_offset 5, -12
	.cfi_offset 7, -8
	.cfi_offset 14, -4
	sub	sp, sp, #16
	.cfi_def_cfa_offset 32
	add	r7, sp, #0
	.cfi_def_cfa_register 7
	movs	r5, r0
	movs	r4, r1
	movs	r0, r2
	movs	r1, r3
	adds	r3, r7, #7
	adds	r2, r5, #0
	strb	r2, [r3]
	adds	r3, r7, #6
	adds	r2, r4, #0
	strb	r2, [r3]
	adds	r3, r7, #5
	adds	r2, r0, #0
	strb	r2, [r3]
	adds	r3, r7, #4
	adds	r2, r1, #0
	strb	r2, [r3]
	.loc 1 420 0
	adds	r3, r7, #7
	ldrb	r3, [r3]
	cmp	r3, #0
	bne	.L143
	.loc 1 422 0
	adds	r3, r7, #6
	ldrb	r3, [r3]
	lsls	r3, r3, #24
	asrs	r3, r3, #24
	bmi	.L144
	.loc 1 422 0 is_stmt 0 discriminator 1
	movs	r2, #64
	b	.L145
.L144:
	.loc 1 422 0 discriminator 2
	movs	r2, #2
.L145:
	.loc 1 422 0 discriminator 4
	movs	r3, #15
	adds	r3, r7, r3
	strb	r2, [r3]
	.loc 1 424 0 is_stmt 1 discriminator 4
	ldr	r2, .L158
	adds	r3, r7, #7
	ldrb	r3, [r3]
	strb	r3, [r2]
	.loc 1 425 0 discriminator 4
	adds	r3, r7, #5
	ldrb	r3, [r3]
	cmp	r3, #0
	beq	.L146
	.loc 1 425 0 is_stmt 0 discriminator 1
	movs	r3, #15
	adds	r3, r7, r3
	movs	r2, #15
	adds	r2, r7, r2
	ldrb	r2, [r2]
	movs	r1, #32
	orrs	r2, r1
	strb	r2, [r3]
.L146:
	.loc 1 426 0 is_stmt 1
	adds	r3, r7, #4
	ldrb	r3, [r3]
	cmp	r3, #0
	beq	.L147
	.loc 1 426 0 is_stmt 0 discriminator 1
	movs	r3, #15
	adds	r3, r7, r3
	movs	r2, #15
	adds	r2, r7, r2
	ldrb	r2, [r2]
	movs	r1, #8
	orrs	r2, r1
	strb	r2, [r3]
.L147:
	.loc 1 428 0 is_stmt 1
	ldr	r2, .L158+4
	movs	r3, #15
	adds	r3, r7, r3
	ldrb	r3, [r3]
	strb	r3, [r2]
	.loc 1 450 0
	b	.L157
.L143:
	.loc 1 430 0
	adds	r3, r7, #7
	ldrb	r3, [r3]
	cmp	r3, #6
	bhi	.L157
	.loc 1 432 0
	ldr	r2, .L158
	adds	r3, r7, #7
	ldrb	r3, [r3]
	cmp	r3, #4
	bls	.L149
	.loc 1 432 0 is_stmt 0 discriminator 1
	adds	r3, r7, #7
	ldrb	r3, [r3]
	subs	r3, r3, #4
	lsls	r3, r3, #24
	lsrs	r3, r3, #24
	b	.L150
.L149:
	.loc 1 432 0 discriminator 2
	adds	r3, r7, #7
	ldrb	r3, [r3]
.L150:
	.loc 1 432 0 discriminator 4
	strb	r3, [r2]
	.loc 1 433 0 is_stmt 1 discriminator 4
	adds	r3, r7, #7
	ldrb	r2, [r3]
	ldr	r1, .L158+8
	movs	r3, r2
	lsls	r3, r3, #1
	adds	r3, r3, r2
	lsls	r3, r3, #3
	ldrb	r3, [r3, r1]
	lsls	r3, r3, #24
	asrs	r3, r3, #24
	bpl	.L151
	.loc 1 435 0
	ldr	r2, .L158+4
	movs	r3, #15
	adds	r3, r7, r3
	ldrb	r2, [r2]
	strb	r2, [r3]
	.loc 1 436 0
	adds	r3, r7, #6
	ldrb	r3, [r3]
	lsls	r3, r3, #24
	asrs	r3, r3, #24
	bpl	.L152
	.loc 1 436 0 is_stmt 0 discriminator 1
	movs	r3, #15
	adds	r3, r7, r3
	movs	r2, #15
	adds	r2, r7, r2
	ldrb	r2, [r2]
	movs	r1, #1
	orrs	r2, r1
	strb	r2, [r3]
.L152:
	.loc 1 437 0 is_stmt 1
	adds	r3, r7, #5
	ldrb	r3, [r3]
	cmp	r3, #0
	beq	.L153
	.loc 1 437 0 is_stmt 0 discriminator 1
	movs	r3, #15
	adds	r3, r7, r3
	movs	r2, #15
	adds	r2, r7, r2
	ldrb	r2, [r2]
	movs	r1, #16
	orrs	r2, r1
	strb	r2, [r3]
.L153:
	.loc 1 439 0 is_stmt 1
	ldr	r2, .L158+4
	movs	r3, #15
	adds	r3, r7, r3
	ldrb	r3, [r3]
	strb	r3, [r2]
	.loc 1 450 0
	b	.L157
.L151:
	.loc 1 441 0
	adds	r3, r7, #7
	ldrb	r3, [r3]
	cmp	r3, #5
	beq	.L154
	.loc 1 441 0 is_stmt 0 discriminator 1
	adds	r3, r7, #7
	ldrb	r3, [r3]
	cmp	r3, #6
	bne	.L157
.L154:
	.loc 1 443 0 is_stmt 1
	ldr	r2, .L158+12
	movs	r3, #15
	adds	r3, r7, r3
	ldrb	r2, [r2]
	strb	r2, [r3]
	.loc 1 444 0
	adds	r3, r7, #6
	ldrb	r3, [r3]
	lsls	r3, r3, #24
	asrs	r3, r3, #24
	bmi	.L155
	.loc 1 444 0 is_stmt 0 discriminator 1
	movs	r3, #15
	adds	r3, r7, r3
	movs	r2, #15
	adds	r2, r7, r2
	ldrb	r2, [r2]
	movs	r1, #1
	bics	r2, r1
	strb	r2, [r3]
.L155:
	.loc 1 445 0 is_stmt 1
	adds	r3, r7, #5
	ldrb	r3, [r3]
	cmp	r3, #0
	beq	.L156
	.loc 1 445 0 is_stmt 0 discriminator 1
	movs	r3, #15
	adds	r3, r7, r3
	movs	r2, #15
	adds	r2, r7, r2
	ldrb	r2, [r2]
	movs	r1, #16
	orrs	r2, r1
	strb	r2, [r3]
.L156:
	.loc 1 447 0 is_stmt 1
	ldr	r2, .L158+12
	movs	r3, #15
	adds	r3, r7, r3
	ldrb	r3, [r3]
	strb	r3, [r2]
.L157:
	.loc 1 450 0
	nop
	mov	sp, r7
	add	sp, sp, #16
	@ sp needed
	pop	{r4, r5, r7, pc}
.L159:
	.align	2
.L158:
	.word	-1601175538
	.word	-1601175535
	.word	EPState
	.word	-1601175532
	.cfi_endproc
.LFE20:
	.size	USB_UpdateEPState, .-USB_UpdateEPState
	.section	.text.USB_ControlEPStall,"ax",%progbits
	.align	2
	.global	USB_ControlEPStall
	.code	16
	.thumb_func
	.type	USB_ControlEPStall, %function
USB_ControlEPStall:
.LFB21:
	.loc 1 453 0
	.cfi_startproc
	@ args = 0, pretend = 0, frame = 16
	@ frame_needed = 1, uses_anonymous_args = 0
	push	{r7, lr}
	.cfi_def_cfa_offset 8
	.cfi_offset 7, -8
	.cfi_offset 14, -4
	sub	sp, sp, #16
	.cfi_def_cfa_offset 24
	add	r7, sp, #0
	.cfi_def_cfa_register 7
	movs	r2, r0
	adds	r3, r7, #7
	strb	r2, [r3]
	adds	r3, r7, #6
	adds	r2, r1, #0
	strb	r2, [r3]
	.loc 1 456 0
	adds	r3, r7, #7
	ldrb	r3, [r3]
	cmp	r3, #0
	bne	.LCB2378
	b	.L179	@long jump
.LCB2378:
	.loc 1 458 0
	ldr	r2, .L180
	adds	r3, r7, #7
	ldrb	r3, [r3]
	cmp	r3, #4
	bls	.L163
	.loc 1 458 0 is_stmt 0 discriminator 1
	adds	r3, r7, #7
	ldrb	r3, [r3]
	subs	r3, r3, #4
	lsls	r3, r3, #24
	lsrs	r3, r3, #24
	b	.L164
.L163:
	.loc 1 458 0 discriminator 2
	adds	r3, r7, #7
	ldrb	r3, [r3]
.L164:
	.loc 1 458 0 discriminator 4
	strb	r3, [r2]
	.loc 1 459 0 is_stmt 1 discriminator 4
	adds	r3, r7, #6
	ldrb	r3, [r3]
	cmp	r3, #0
	bne	.LCB2401
	b	.L165	@long jump
.LCB2401:
	.loc 1 461 0
	adds	r3, r7, #7
	ldrb	r2, [r3]
	ldr	r1, .L180+4
	movs	r3, r2
	lsls	r3, r3, #1
	adds	r3, r3, r2
	lsls	r3, r3, #3
	ldrb	r3, [r3, r1]
	lsls	r3, r3, #24
	asrs	r3, r3, #24
	bpl	.L166
	.loc 1 463 0
	ldr	r2, .L180+8
	movs	r3, #15
	adds	r3, r7, r3
	ldrb	r2, [r2]
	strb	r2, [r3]
	.loc 1 464 0
	movs	r3, #15
	adds	r3, r7, r3
	movs	r2, #15
	adds	r2, r7, r2
	ldrb	r2, [r2]
	movs	r1, #16
	orrs	r2, r1
	strb	r2, [r3]
	.loc 1 465 0
	ldr	r2, .L180+8
	movs	r3, #15
	adds	r3, r7, r3
	ldrb	r3, [r3]
	strb	r3, [r2]
	.loc 1 466 0
	ldr	r3, .L180+8
	ldrb	r3, [r3]
	lsls	r3, r3, #24
	lsrs	r3, r3, #24
	movs	r2, r3
	movs	r3, #1
	ands	r3, r2
	beq	.L167
	.loc 1 466 0 is_stmt 0 discriminator 1
	ldr	r1, .L180+8
	movs	r3, #15
	adds	r3, r7, r3
	ldrb	r3, [r3]
	movs	r2, #120
	rsbs	r2, r2, #0
	orrs	r3, r2
	lsls	r3, r3, #24
	lsrs	r3, r3, #24
	strb	r3, [r1]
.L167:
	.loc 1 467 0 is_stmt 1
	ldr	r3, .L180+8
	ldrb	r3, [r3]
	lsls	r3, r3, #24
	lsrs	r3, r3, #24
	movs	r2, r3
	movs	r3, #1
	ands	r3, r2
	beq	.L168
	.loc 1 467 0 is_stmt 0 discriminator 1
	ldr	r1, .L180+8
	movs	r3, #15
	adds	r3, r7, r3
	ldrb	r3, [r3]
	movs	r2, #120
	rsbs	r2, r2, #0
	orrs	r3, r2
	lsls	r3, r3, #24
	lsrs	r3, r3, #24
	strb	r3, [r1]
.L168:
	.loc 1 468 0 is_stmt 1
	adds	r3, r7, #7
	ldrb	r2, [r3]
	ldr	r1, .L180+4
	movs	r3, r2
	lsls	r3, r3, #1
	adds	r3, r3, r2
	lsls	r3, r3, #3
	adds	r3, r1, r3
	adds	r3, r3, #2
	movs	r2, #0
	strb	r2, [r3]
	b	.L160
.L166:
	.loc 1 470 0
	adds	r3, r7, #7
	ldrb	r3, [r3]
	cmp	r3, #5
	beq	.L170
	.loc 1 470 0 is_stmt 0 discriminator 1
	adds	r3, r7, #7
	ldrb	r3, [r3]
	cmp	r3, #6
	beq	.LCB2496
	b	.L160	@long jump
.LCB2496:
.L170:
	.loc 1 472 0 is_stmt 1
	ldr	r2, .L180+12
	movs	r3, #15
	adds	r3, r7, r3
	ldrb	r2, [r2]
	strb	r2, [r3]
	.loc 1 473 0
	movs	r3, #15
	adds	r3, r7, r3
	movs	r2, #15
	adds	r2, r7, r2
	ldrb	r2, [r2]
	movs	r1, #32
	orrs	r2, r1
	strb	r2, [r3]
	.loc 1 474 0
	ldr	r2, .L180+12
	movs	r3, #15
	adds	r3, r7, r3
	ldrb	r3, [r3]
	strb	r3, [r2]
	.loc 1 475 0
	ldr	r3, .L180+12
	ldrb	r3, [r3]
	lsls	r3, r3, #24
	lsrs	r3, r3, #24
	movs	r2, r3
	movs	r3, #1
	ands	r3, r2
	beq	.L171
	.loc 1 475 0 is_stmt 0 discriminator 1
	ldr	r2, .L180+12
	movs	r3, #15
	adds	r3, r7, r3
	ldrb	r3, [r3]
	movs	r1, #16
	orrs	r3, r1
	lsls	r3, r3, #24
	lsrs	r3, r3, #24
	strb	r3, [r2]
.L171:
	.loc 1 476 0 is_stmt 1
	ldr	r3, .L180+12
	ldrb	r3, [r3]
	lsls	r3, r3, #24
	lsrs	r3, r3, #24
	movs	r2, r3
	movs	r3, #1
	ands	r3, r2
	beq	.L172
	.loc 1 476 0 is_stmt 0 discriminator 1
	ldr	r2, .L180+12
	movs	r3, #15
	adds	r3, r7, r3
	ldrb	r3, [r3]
	movs	r1, #16
	orrs	r3, r1
	lsls	r3, r3, #24
	lsrs	r3, r3, #24
	strb	r3, [r2]
.L172:
	.loc 1 477 0 is_stmt 1
	adds	r3, r7, #7
	ldrb	r2, [r3]
	ldr	r1, .L180+4
	movs	r3, r2
	lsls	r3, r3, #1
	adds	r3, r3, r2
	lsls	r3, r3, #3
	adds	r3, r1, r3
	adds	r3, r3, #2
	movs	r2, #0
	strb	r2, [r3]
	b	.L160
.L165:
	.loc 1 482 0
	adds	r3, r7, #7
	ldrb	r2, [r3]
	ldr	r1, .L180+4
	movs	r3, r2
	lsls	r3, r3, #1
	adds	r3, r3, r2
	lsls	r3, r3, #3
	ldrb	r3, [r3, r1]
	lsls	r3, r3, #24
	asrs	r3, r3, #24
	bpl	.L173
	.loc 1 484 0
	ldr	r2, .L180+8
	movs	r3, #15
	adds	r3, r7, r3
	ldrb	r2, [r2]
	strb	r2, [r3]
	.loc 1 485 0
	movs	r3, #15
	adds	r3, r7, r3
	movs	r2, #15
	adds	r2, r7, r2
	ldrb	r2, [r2]
	movs	r1, #16
	bics	r2, r1
	strb	r2, [r3]
	.loc 1 486 0
	ldr	r2, .L180+8
	movs	r3, #15
	adds	r3, r7, r3
	ldrb	r3, [r3]
	strb	r3, [r2]
	.loc 1 487 0
	ldr	r3, .L180+8
	ldrb	r3, [r3]
	lsls	r3, r3, #24
	lsrs	r3, r3, #24
	movs	r2, r3
	movs	r3, #1
	ands	r3, r2
	beq	.L174
	.loc 1 487 0 is_stmt 0 discriminator 1
	ldr	r1, .L180+8
	movs	r3, #15
	adds	r3, r7, r3
	ldrb	r3, [r3]
	movs	r2, #120
	rsbs	r2, r2, #0
	orrs	r3, r2
	lsls	r3, r3, #24
	lsrs	r3, r3, #24
	strb	r3, [r1]
.L174:
	.loc 1 488 0 is_stmt 1
	ldr	r3, .L180+8
	ldrb	r3, [r3]
	lsls	r3, r3, #24
	lsrs	r3, r3, #24
	movs	r2, r3
	movs	r3, #1
	ands	r3, r2
	beq	.L175
	.loc 1 488 0 is_stmt 0 discriminator 1
	ldr	r1, .L180+8
	movs	r3, #15
	adds	r3, r7, r3
	ldrb	r3, [r3]
	movs	r2, #120
	rsbs	r2, r2, #0
	orrs	r3, r2
	lsls	r3, r3, #24
	lsrs	r3, r3, #24
	strb	r3, [r1]
.L175:
	.loc 1 489 0 is_stmt 1
	adds	r3, r7, #7
	ldrb	r2, [r3]
	ldr	r1, .L180+4
	movs	r3, r2
	lsls	r3, r3, #1
	adds	r3, r3, r2
	lsls	r3, r3, #3
	adds	r3, r1, r3
	adds	r3, r3, #2
	movs	r2, #1
	strb	r2, [r3]
	b	.L160
.L173:
	.loc 1 491 0
	adds	r3, r7, #7
	ldrb	r3, [r3]
	cmp	r3, #5
	beq	.L176
	.loc 1 491 0 is_stmt 0 discriminator 1
	adds	r3, r7, #7
	ldrb	r3, [r3]
	cmp	r3, #6
	bne	.L160
.L176:
	.loc 1 493 0 is_stmt 1
	ldr	r2, .L180+12
	movs	r3, #15
	adds	r3, r7, r3
	ldrb	r2, [r2]
	strb	r2, [r3]
	.loc 1 494 0
	movs	r3, #15
	adds	r3, r7, r3
	movs	r2, #15
	adds	r2, r7, r2
	ldrb	r2, [r2]
	movs	r1, #32
	bics	r2, r1
	strb	r2, [r3]
	.loc 1 495 0
	ldr	r2, .L180+12
	movs	r3, #15
	adds	r3, r7, r3
	ldrb	r3, [r3]
	strb	r3, [r2]
	.loc 1 496 0
	ldr	r3, .L180+12
	ldrb	r3, [r3]
	lsls	r3, r3, #24
	lsrs	r3, r3, #24
	movs	r2, r3
	movs	r3, #1
	ands	r3, r2
	beq	.L177
	.loc 1 496 0 is_stmt 0 discriminator 1
	ldr	r2, .L180+12
	movs	r3, #15
	adds	r3, r7, r3
	ldrb	r3, [r3]
	movs	r1, #16
	orrs	r3, r1
	lsls	r3, r3, #24
	lsrs	r3, r3, #24
	strb	r3, [r2]
.L177:
	.loc 1 497 0 is_stmt 1
	ldr	r3, .L180+12
	ldrb	r3, [r3]
	lsls	r3, r3, #24
	lsrs	r3, r3, #24
	movs	r2, r3
	movs	r3, #1
	ands	r3, r2
	beq	.L178
	.loc 1 497 0 is_stmt 0 discriminator 1
	ldr	r2, .L180+12
	movs	r3, #15
	adds	r3, r7, r3
	ldrb	r3, [r3]
	movs	r1, #16
	orrs	r3, r1
	lsls	r3, r3, #24
	lsrs	r3, r3, #24
	strb	r3, [r2]
.L178:
	.loc 1 498 0 is_stmt 1
	adds	r3, r7, #7
	ldrb	r2, [r3]
	ldr	r1, .L180+4
	movs	r3, r2
	lsls	r3, r3, #1
	adds	r3, r3, r2
	lsls	r3, r3, #3
	adds	r3, r1, r3
	adds	r3, r3, #2
	movs	r2, #1
	strb	r2, [r3]
	b	.L160
.L179:
	.loc 1 456 0
	nop
.L160:
	.loc 1 501 0
	mov	sp, r7
	add	sp, sp, #16
	@ sp needed
	pop	{r7, pc}
.L181:
	.align	2
.L180:
	.word	-1601175538
	.word	EPState
	.word	-1601175535
	.word	-1601175532
	.cfi_endproc
.LFE21:
	.size	USB_ControlEPStall, .-USB_ControlEPStall
	.section	.text.USB_PrepareDataReceive,"ax",%progbits
	.align	2
	.global	USB_PrepareDataReceive
	.code	16
	.thumb_func
	.type	USB_PrepareDataReceive, %function
USB_PrepareDataReceive:
.LFB22:
	.loc 1 504 0
	.cfi_startproc
	@ args = 0, pretend = 0, frame = 16
	@ frame_needed = 1, uses_anonymous_args = 0
	push	{r7, lr}
	.cfi_def_cfa_offset 8
	.cfi_offset 7, -8
	.cfi_offset 14, -4
	sub	sp, sp, #16
	.cfi_def_cfa_offset 24
	add	r7, sp, #0
	.cfi_def_cfa_register 7
	str	r1, [r7, #8]
	str	r2, [r7, #4]
	movs	r3, #15
	adds	r3, r7, r3
	adds	r2, r0, #0
	strb	r2, [r3]
	.loc 1 505 0
	movs	r3, #15
	adds	r3, r7, r3
	ldrb	r3, [r3]
	cmp	r3, #6
	bhi	.L187
	.loc 1 505 0 is_stmt 0 discriminator 1
	movs	r3, #15
	adds	r3, r7, r3
	ldrb	r3, [r3]
	cmp	r3, #0
	beq	.L184
	.loc 1 506 0 is_stmt 1
	movs	r3, #15
	adds	r3, r7, r3
	ldrb	r2, [r3]
	ldr	r1, .L188
	movs	r3, r2
	lsls	r3, r3, #1
	adds	r3, r3, r2
	lsls	r3, r3, #3
	ldrb	r3, [r3, r1]
	lsls	r3, r3, #24
	asrs	r3, r3, #24
	bmi	.L187
.L184:
	.loc 1 508 0
	movs	r3, #15
	adds	r3, r7, r3
	ldrb	r2, [r3]
	ldr	r1, .L188
	movs	r3, r2
	lsls	r3, r3, #1
	adds	r3, r3, r2
	lsls	r3, r3, #3
	adds	r3, r1, r3
	adds	r3, r3, #8
	ldr	r2, [r7, #8]
	str	r2, [r3]
	.loc 1 509 0
	movs	r3, #15
	adds	r3, r7, r3
	ldrb	r2, [r3]
	ldr	r1, .L188
	movs	r3, r2
	lsls	r3, r3, #1
	adds	r3, r3, r2
	lsls	r3, r3, #3
	adds	r3, r1, r3
	adds	r3, r3, #12
	ldr	r2, [r7, #8]
	str	r2, [r3]
	.loc 1 510 0
	movs	r3, #15
	adds	r3, r7, r3
	ldrb	r2, [r3]
	ldr	r1, .L188
	movs	r3, r2
	lsls	r3, r3, #1
	adds	r3, r3, r2
	lsls	r3, r3, #3
	adds	r3, r1, r3
	adds	r3, r3, #16
	ldr	r2, [r7, #4]
	str	r2, [r3]
	.loc 1 511 0
	movs	r3, #15
	adds	r3, r7, r3
	ldrb	r2, [r3]
	.loc 1 511 0
	ldr	r3, [r7, #8]
	cmp	r3, #0
	beq	.L185
	.loc 1 511 0 is_stmt 0 discriminator 1
	ldr	r3, [r7, #4]
	cmp	r3, #0
	beq	.L185
	.loc 1 511 0 discriminator 3
	movs	r3, #1
	b	.L186
.L185:
	.loc 1 511 0 discriminator 4
	movs	r3, #0
.L186:
	.loc 1 511 0 is_stmt 1 discriminator 6
	lsls	r3, r3, #24
	lsrs	r0, r3, #24
	ldr	r1, .L188
	movs	r3, r2
	lsls	r3, r3, #1
	adds	r3, r3, r2
	lsls	r3, r3, #3
	adds	r3, r1, r3
	adds	r3, r3, #1
	adds	r2, r0, #0
	strb	r2, [r3]
.L187:
	.loc 1 513 0
	nop
	mov	sp, r7
	add	sp, sp, #16
	@ sp needed
	pop	{r7, pc}
.L189:
	.align	2
.L188:
	.word	EPState
	.cfi_endproc
.LFE22:
	.size	USB_PrepareDataReceive, .-USB_PrepareDataReceive
	.section	.text.USB_DataReceive,"ax",%progbits
	.align	2
	.global	USB_DataReceive
	.code	16
	.thumb_func
	.type	USB_DataReceive, %function
USB_DataReceive:
.LFB23:
	.loc 1 516 0
	.cfi_startproc
	@ args = 0, pretend = 0, frame = 40
	@ frame_needed = 1, uses_anonymous_args = 0
	push	{r7, lr}
	.cfi_def_cfa_offset 8
	.cfi_offset 7, -8
	.cfi_offset 14, -4
	sub	sp, sp, #40
	.cfi_def_cfa_offset 48
	add	r7, sp, #0
	.cfi_def_cfa_register 7
	movs	r2, r0
	adds	r3, r7, #7
	strb	r2, [r3]
	.loc 1 517 0
	movs	r3, #39
	adds	r3, r7, r3
	movs	r2, #0
	strb	r2, [r3]
	.loc 1 519 0
	adds	r3, r7, #7
	ldrb	r3, [r3]
	cmp	r3, #6
	bls	.LCB2909
	b	.L191	@long jump
.LCB2909:
	.loc 1 519 0 is_stmt 0 discriminator 1
	adds	r3, r7, #7
	ldrb	r3, [r3]
	cmp	r3, #0
	beq	.L192
	.loc 1 520 0 is_stmt 1
	adds	r3, r7, #7
	ldrb	r2, [r3]
	ldr	r1, .L197
	movs	r3, r2
	lsls	r3, r3, #1
	adds	r3, r3, r2
	lsls	r3, r3, #3
	ldrb	r3, [r3, r1]
	lsls	r3, r3, #24
	asrs	r3, r3, #24
	bmi	.L191
.L192:
	.loc 1 521 0 discriminator 1
	adds	r3, r7, #7
	ldrb	r2, [r3]
	ldr	r1, .L197
	movs	r3, r2
	lsls	r3, r3, #1
	adds	r3, r3, r2
	lsls	r3, r3, #3
	adds	r3, r1, r3
	adds	r3, r3, #8
	ldr	r3, [r3]
	.loc 1 520 0 discriminator 1
	cmp	r3, #0
	beq	.L191
	.loc 1 521 0
	adds	r3, r7, #7
	ldrb	r2, [r3]
	ldr	r1, .L197
	movs	r3, r2
	lsls	r3, r3, #1
	adds	r3, r3, r2
	lsls	r3, r3, #3
	adds	r3, r1, r3
	adds	r3, r3, #12
	ldr	r3, [r3]
	cmp	r3, #0
	beq	.L191
.LBB9:
	.loc 1 523 0
	adds	r3, r7, #7
	ldrb	r2, [r3]
	movs	r3, r2
	lsls	r3, r3, #1
	adds	r3, r3, r2
	lsls	r3, r3, #3
	ldr	r2, .L197
	adds	r3, r3, r2
	str	r3, [r7, #28]
	.loc 1 524 0
	adds	r3, r7, #7
	ldrb	r3, [r3]
	movs	r0, r3
	bl	USB_GetOUTDataLength
	movs	r3, r0
	str	r3, [r7, #32]
	.loc 1 525 0
	ldr	r3, [r7, #28]
	ldr	r3, [r3, #12]
	movs	r2, r3
	ldr	r3, [r7, #28]
	ldr	r3, [r3, #8]
	subs	r3, r2, r3
	str	r3, [r7, #24]
	.loc 1 527 0
	ldr	r3, [r7, #28]
	ldrh	r3, [r3, #4]
	movs	r2, r3
	ldr	r3, [r7, #32]
	cmp	r3, r2
	sbcs	r3, r3, r3
	rsbs	r3, r3, #0
	lsls	r3, r3, #24
	lsrs	r2, r3, #24
	movs	r3, #39
	adds	r3, r7, r3
	strb	r2, [r3]
	.loc 1 529 0
	ldr	r3, [r7, #28]
	ldr	r2, [r3, #16]
	ldr	r3, [r7, #24]
	cmp	r2, r3
	bls	.L193
.LBB10:
.LBB11:
	.loc 1 531 0
	ldr	r3, [r7, #32]
	str	r3, [r7, #20]
	ldr	r3, [r7, #28]
	ldr	r2, [r3, #16]
	ldr	r3, [r7, #24]
	subs	r3, r2, r3
	str	r3, [r7, #16]
	ldr	r2, [r7, #20]
	ldr	r3, [r7, #16]
	cmp	r3, r2
	bls	.L194
	movs	r3, r2
.L194:
.LBE11:
	str	r3, [r7, #12]
	.loc 1 533 0
	ldr	r3, [r7, #28]
	ldr	r2, [r3, #12]
	ldr	r1, [r7, #12]
	adds	r3, r7, #7
	ldrb	r3, [r3]
	movs	r0, r3
	bl	USB_EPFIFORead
	.loc 1 534 0
	ldr	r3, [r7, #28]
	ldr	r2, [r3, #12]
	ldr	r3, [r7, #12]
	adds	r2, r2, r3
	ldr	r3, [r7, #28]
	str	r2, [r3, #12]
	.loc 1 535 0
	ldr	r2, [r7, #32]
	ldr	r3, [r7, #12]
	subs	r3, r2, r3
	str	r3, [r7, #32]
.L193:
.LBE10:
	.loc 1 537 0
	ldr	r3, [r7, #32]
	cmp	r3, #0
	beq	.L195
	.loc 1 537 0 is_stmt 0 discriminator 1
	ldr	r1, [r7, #32]
	adds	r3, r7, #7
	ldrb	r3, [r3]
	movs	r2, #0
	movs	r0, r3
	bl	USB_EPFIFORead
.L195:
	.loc 1 539 0 is_stmt 1
	movs	r3, #39
	adds	r3, r7, r3
	ldrb	r2, [r3]
	adds	r3, r7, #7
	ldrb	r0, [r3]
	movs	r3, r2
	movs	r2, #0
	movs	r1, #0
	bl	USB_UpdateEPState
.L191:
.LBE9:
	.loc 1 541 0
	movs	r3, #39
	adds	r3, r7, r3
	ldrb	r3, [r3]
	.loc 1 542 0
	movs	r0, r3
	mov	sp, r7
	add	sp, sp, #40
	@ sp needed
	pop	{r7, pc}
.L198:
	.align	2
.L197:
	.word	EPState
	.cfi_endproc
.LFE23:
	.size	USB_DataReceive, .-USB_DataReceive
	.section	.text.USB_PrepareDataTransmit,"ax",%progbits
	.align	2
	.global	USB_PrepareDataTransmit
	.code	16
	.thumb_func
	.type	USB_PrepareDataTransmit, %function
USB_PrepareDataTransmit:
.LFB24:
	.loc 1 545 0
	.cfi_startproc
	@ args = 0, pretend = 0, frame = 16
	@ frame_needed = 1, uses_anonymous_args = 0
	push	{r7, lr}
	.cfi_def_cfa_offset 8
	.cfi_offset 7, -8
	.cfi_offset 14, -4
	sub	sp, sp, #16
	.cfi_def_cfa_offset 24
	add	r7, sp, #0
	.cfi_def_cfa_register 7
	str	r1, [r7, #8]
	str	r2, [r7, #4]
	movs	r3, #15
	adds	r3, r7, r3
	adds	r2, r0, #0
	strb	r2, [r3]
	.loc 1 546 0
	movs	r3, #15
	adds	r3, r7, r3
	ldrb	r3, [r3]
	cmp	r3, #6
	bhi	.L204
	.loc 1 546 0 is_stmt 0 discriminator 1
	movs	r3, #15
	adds	r3, r7, r3
	ldrb	r3, [r3]
	cmp	r3, #0
	beq	.L201
	.loc 1 547 0 is_stmt 1
	movs	r3, #15
	adds	r3, r7, r3
	ldrb	r2, [r3]
	ldr	r1, .L205
	movs	r3, r2
	lsls	r3, r3, #1
	adds	r3, r3, r2
	lsls	r3, r3, #3
	ldrb	r3, [r3, r1]
	lsls	r3, r3, #24
	asrs	r3, r3, #24
	bpl	.L204
.L201:
	.loc 1 549 0
	movs	r3, #15
	adds	r3, r7, r3
	ldrb	r2, [r3]
	ldr	r1, .L205
	movs	r3, r2
	lsls	r3, r3, #1
	adds	r3, r3, r2
	lsls	r3, r3, #3
	adds	r3, r1, r3
	adds	r3, r3, #8
	ldr	r2, [r7, #8]
	str	r2, [r3]
	.loc 1 550 0
	movs	r3, #15
	adds	r3, r7, r3
	ldrb	r2, [r3]
	ldr	r1, .L205
	movs	r3, r2
	lsls	r3, r3, #1
	adds	r3, r3, r2
	lsls	r3, r3, #3
	adds	r3, r1, r3
	adds	r3, r3, #12
	ldr	r2, [r7, #8]
	str	r2, [r3]
	.loc 1 551 0
	movs	r3, #15
	adds	r3, r7, r3
	ldrb	r2, [r3]
	ldr	r1, .L205
	movs	r3, r2
	lsls	r3, r3, #1
	adds	r3, r3, r2
	lsls	r3, r3, #3
	adds	r3, r1, r3
	adds	r3, r3, #16
	ldr	r2, [r7, #4]
	str	r2, [r3]
	.loc 1 552 0
	movs	r3, #15
	adds	r3, r7, r3
	ldrb	r2, [r3]
	ldr	r3, [r7, #8]
	cmp	r3, #0
	beq	.L202
	.loc 1 552 0 discriminator 1
	ldr	r3, [r7, #4]
	cmp	r3, #0
	beq	.L202
	.loc 1 552 0 discriminator 3
	movs	r0, #2
	b	.L203
.L202:
	.loc 1 552 0 is_stmt 0 discriminator 4
	movs	r0, #0
.L203:
	.loc 1 552 0 discriminator 6
	ldr	r1, .L205
	movs	r3, r2
	lsls	r3, r3, #1
	adds	r3, r3, r2
	lsls	r3, r3, #3
	adds	r3, r1, r3
	adds	r3, r3, #1
	adds	r2, r0, #0
	strb	r2, [r3]
.L204:
	.loc 1 554 0 is_stmt 1
	nop
	mov	sp, r7
	add	sp, sp, #16
	@ sp needed
	pop	{r7, pc}
.L206:
	.align	2
.L205:
	.word	EPState
	.cfi_endproc
.LFE24:
	.size	USB_PrepareDataTransmit, .-USB_PrepareDataTransmit
	.section	.text.USB_DataTransmit,"ax",%progbits
	.align	2
	.global	USB_DataTransmit
	.code	16
	.thumb_func
	.type	USB_DataTransmit, %function
USB_DataTransmit:
.LFB25:
	.loc 1 557 0
	.cfi_startproc
	@ args = 0, pretend = 0, frame = 32
	@ frame_needed = 1, uses_anonymous_args = 0
	push	{r7, lr}
	.cfi_def_cfa_offset 8
	.cfi_offset 7, -8
	.cfi_offset 14, -4
	sub	sp, sp, #32
	.cfi_def_cfa_offset 40
	add	r7, sp, #0
	.cfi_def_cfa_register 7
	movs	r2, r0
	adds	r3, r7, #7
	strb	r2, [r3]
	.loc 1 558 0
	movs	r3, #31
	adds	r3, r7, r3
	movs	r2, #0
	strb	r2, [r3]
	.loc 1 560 0
	adds	r3, r7, #7
	ldrb	r3, [r3]
	cmp	r3, #6
	bhi	.L208
	.loc 1 560 0 is_stmt 0 discriminator 1
	adds	r3, r7, #7
	ldrb	r3, [r3]
	cmp	r3, #0
	beq	.L209
	.loc 1 561 0 is_stmt 1
	adds	r3, r7, #7
	ldrb	r2, [r3]
	ldr	r1, .L213
	movs	r3, r2
	lsls	r3, r3, #1
	adds	r3, r3, r2
	lsls	r3, r3, #3
	ldrb	r3, [r3, r1]
	lsls	r3, r3, #24
	asrs	r3, r3, #24
	bpl	.L208
.L209:
.LBB12:
	.loc 1 563 0
	adds	r3, r7, #7
	ldrb	r2, [r3]
	movs	r3, r2
	lsls	r3, r3, #1
	adds	r3, r3, r2
	lsls	r3, r3, #3
	ldr	r2, .L213
	adds	r3, r3, r2
	str	r3, [r7, #24]
.LBB13:
	.loc 1 564 0
	ldr	r3, [r7, #24]
	ldr	r3, [r3, #16]
	str	r3, [r7, #20]
	movs	r3, #18
	adds	r3, r7, r3
	ldr	r2, [r7, #24]
	ldrh	r2, [r2, #4]
	strh	r2, [r3]
	movs	r3, #18
	adds	r3, r7, r3
	ldrh	r3, [r3]
	ldr	r2, [r7, #20]
	cmp	r3, r2
	bls	.L210
	movs	r3, r2
.L210:
.LBE13:
	str	r3, [r7, #12]
	.loc 1 566 0
	ldr	r3, [r7, #24]
	ldrh	r3, [r3, #4]
	movs	r2, r3
	ldr	r3, [r7, #12]
	cmp	r3, r2
	sbcs	r3, r3, r3
	rsbs	r3, r3, #0
	lsls	r3, r3, #24
	lsrs	r2, r3, #24
	movs	r3, #31
	adds	r3, r7, r3
	strb	r2, [r3]
	.loc 1 567 0
	ldr	r3, [r7, #12]
	cmp	r3, #0
	beq	.L211
	.loc 1 567 0 is_stmt 0 discriminator 1
	ldr	r3, [r7, #24]
	ldr	r3, [r3, #12]
	cmp	r3, #0
	beq	.L211
	.loc 1 569 0 is_stmt 1
	ldr	r3, [r7, #24]
	ldr	r2, [r3, #12]
	ldr	r1, [r7, #12]
	adds	r3, r7, #7
	ldrb	r3, [r3]
	movs	r0, r3
	bl	USB_EPFIFOWrite
	.loc 1 571 0
	ldr	r3, [r7, #24]
	ldr	r2, [r3, #16]
	ldr	r3, [r7, #12]
	subs	r2, r2, r3
	ldr	r3, [r7, #24]
	str	r2, [r3, #16]
	.loc 1 572 0
	ldr	r3, [r7, #24]
	ldr	r2, [r3, #12]
	ldr	r3, [r7, #12]
	adds	r2, r2, r3
	ldr	r3, [r7, #24]
	str	r2, [r3, #12]
.L211:
	.loc 1 574 0
	movs	r3, #31
	adds	r3, r7, r3
	ldrb	r2, [r3]
	adds	r3, r7, #7
	ldrb	r0, [r3]
	movs	r3, r2
	movs	r2, #0
	movs	r1, #128
	bl	USB_UpdateEPState
.L208:
.LBE12:
	.loc 1 576 0
	movs	r3, #31
	adds	r3, r7, r3
	ldrb	r3, [r3]
	.loc 1 577 0
	movs	r0, r3
	mov	sp, r7
	add	sp, sp, #32
	@ sp needed
	pop	{r7, pc}
.L214:
	.align	2
.L213:
	.word	EPState
	.cfi_endproc
.LFE25:
	.size	USB_DataTransmit, .-USB_DataTransmit
	.section	.text.USB_GetDataAmount,"ax",%progbits
	.align	2
	.global	USB_GetDataAmount
	.code	16
	.thumb_func
	.type	USB_GetDataAmount, %function
USB_GetDataAmount:
.LFB26:
	.loc 1 580 0
	.cfi_startproc
	@ args = 0, pretend = 0, frame = 8
	@ frame_needed = 1, uses_anonymous_args = 0
	push	{r7, lr}
	.cfi_def_cfa_offset 8
	.cfi_offset 7, -8
	.cfi_offset 14, -4
	sub	sp, sp, #8
	.cfi_def_cfa_offset 16
	add	r7, sp, #0
	.cfi_def_cfa_register 7
	movs	r2, r0
	adds	r3, r7, #7
	strb	r2, [r3]
	.loc 1 581 0
	adds	r3, r7, #7
	ldrb	r3, [r3]
	cmp	r3, #6
	bhi	.L216
	.loc 1 582 0 discriminator 1
	adds	r3, r7, #7
	ldrb	r2, [r3]
	ldr	r1, .L218
	movs	r3, r2
	lsls	r3, r3, #1
	adds	r3, r3, r2
	lsls	r3, r3, #3
	adds	r3, r1, r3
	adds	r3, r3, #8
	ldr	r3, [r3]
	.loc 1 581 0 discriminator 1
	cmp	r3, #0
	beq	.L216
	.loc 1 582 0
	adds	r3, r7, #7
	ldrb	r2, [r3]
	ldr	r1, .L218
	movs	r3, r2
	lsls	r3, r3, #1
	adds	r3, r3, r2
	lsls	r3, r3, #3
	adds	r3, r1, r3
	adds	r3, r3, #12
	ldr	r3, [r3]
	cmp	r3, #0
	beq	.L216
	.loc 1 583 0 discriminator 1
	adds	r3, r7, #7
	ldrb	r2, [r3]
	ldr	r1, .L218
	movs	r3, r2
	lsls	r3, r3, #1
	adds	r3, r3, r2
	lsls	r3, r3, #3
	adds	r3, r1, r3
	adds	r3, r3, #12
	ldr	r3, [r3]
	movs	r0, r3
	adds	r3, r7, #7
	ldrb	r2, [r3]
	ldr	r1, .L218
	movs	r3, r2
	lsls	r3, r3, #1
	adds	r3, r3, r2
	lsls	r3, r3, #3
	adds	r3, r1, r3
	adds	r3, r3, #8
	ldr	r3, [r3]
	.loc 1 582 0 discriminator 1
	cmp	r0, r3
	bls	.L216
	.loc 1 585 0
	adds	r3, r7, #7
	ldrb	r2, [r3]
	ldr	r1, .L218
	movs	r3, r2
	lsls	r3, r3, #1
	adds	r3, r3, r2
	lsls	r3, r3, #3
	adds	r3, r1, r3
	adds	r3, r3, #12
	ldr	r3, [r3]
	movs	r0, r3
	adds	r3, r7, #7
	ldrb	r2, [r3]
	ldr	r1, .L218
	movs	r3, r2
	lsls	r3, r3, #1
	adds	r3, r3, r2
	lsls	r3, r3, #3
	adds	r3, r1, r3
	adds	r3, r3, #8
	ldr	r3, [r3]
	subs	r3, r0, r3
	b	.L217
.L216:
	.loc 1 587 0
	movs	r3, #0
.L217:
	.loc 1 588 0
	movs	r0, r3
	mov	sp, r7
	add	sp, sp, #8
	@ sp needed
	pop	{r7, pc}
.L219:
	.align	2
.L218:
	.word	EPState
	.cfi_endproc
.LFE26:
	.size	USB_GetDataAmount, .-USB_GetDataAmount
	.section	.text.USB_GetEPStage,"ax",%progbits
	.align	2
	.global	USB_GetEPStage
	.code	16
	.thumb_func
	.type	USB_GetEPStage, %function
USB_GetEPStage:
.LFB27:
	.loc 1 591 0
	.cfi_startproc
	@ args = 0, pretend = 0, frame = 16
	@ frame_needed = 1, uses_anonymous_args = 0
	push	{r7, lr}
	.cfi_def_cfa_offset 8
	.cfi_offset 7, -8
	.cfi_offset 14, -4
	sub	sp, sp, #16
	.cfi_def_cfa_offset 24
	add	r7, sp, #0
	.cfi_def_cfa_register 7
	movs	r2, r0
	adds	r3, r7, #7
	strb	r2, [r3]
	.loc 1 592 0
	bl	__disable_interrupts
	movs	r3, r0
	str	r3, [r7, #12]
	.loc 1 593 0
	adds	r3, r7, #7
	ldrb	r3, [r3]
	cmp	r3, #6
	bhi	.L221
	.loc 1 593 0 is_stmt 0 discriminator 1
	adds	r3, r7, #7
	ldrb	r2, [r3]
	ldr	r1, .L224
	movs	r3, r2
	lsls	r3, r3, #1
	adds	r3, r3, r2
	lsls	r3, r3, #3
	adds	r3, r1, r3
	adds	r3, r3, #1
	ldrb	r2, [r3]
	b	.L222
.L221:
	.loc 1 593 0 discriminator 2
	movs	r2, #0
.L222:
	.loc 1 593 0 discriminator 4
	movs	r3, #11
	adds	r3, r7, r3
	strb	r2, [r3]
	.loc 1 595 0 is_stmt 1 discriminator 4
	ldr	r3, [r7, #12]
	movs	r0, r3
	bl	__restore_interrupts
	.loc 1 597 0 discriminator 4
	movs	r3, #11
	adds	r3, r7, r3
	ldrb	r3, [r3]
	.loc 1 598 0 discriminator 4
	movs	r0, r3
	mov	sp, r7
	add	sp, sp, #16
	@ sp needed
	pop	{r7, pc}
.L225:
	.align	2
.L224:
	.word	EPState
	.cfi_endproc
.LFE27:
	.size	USB_GetEPStage, .-USB_GetEPStage
	.section	.text.USB_SetEPStage,"ax",%progbits
	.align	2
	.global	USB_SetEPStage
	.code	16
	.thumb_func
	.type	USB_SetEPStage, %function
USB_SetEPStage:
.LFB28:
	.loc 1 601 0
	.cfi_startproc
	@ args = 0, pretend = 0, frame = 16
	@ frame_needed = 1, uses_anonymous_args = 0
	push	{r7, lr}
	.cfi_def_cfa_offset 8
	.cfi_offset 7, -8
	.cfi_offset 14, -4
	sub	sp, sp, #16
	.cfi_def_cfa_offset 24
	add	r7, sp, #0
	.cfi_def_cfa_register 7
	movs	r2, r0
	adds	r3, r7, #7
	strb	r2, [r3]
	adds	r3, r7, #6
	adds	r2, r1, #0
	strb	r2, [r3]
	.loc 1 602 0
	adds	r3, r7, #7
	ldrb	r3, [r3]
	cmp	r3, #6
	bhi	.L227
	.loc 1 602 0 is_stmt 0 discriminator 1
	adds	r3, r7, #6
	ldrb	r3, [r3]
	cmp	r3, #2
	bhi	.L227
.LBB14:
	.loc 1 604 0 is_stmt 1
	bl	__disable_interrupts
	movs	r3, r0
	str	r3, [r7, #12]
	.loc 1 606 0
	adds	r3, r7, #7
	ldrb	r2, [r3]
	ldr	r1, .L229
	movs	r3, r2
	lsls	r3, r3, #1
	adds	r3, r3, r2
	lsls	r3, r3, #3
	adds	r3, r1, r3
	adds	r3, r3, #1
	adds	r2, r7, #6
	ldrb	r2, [r2]
	strb	r2, [r3]
	.loc 1 607 0
	ldr	r3, [r7, #12]
	movs	r0, r3
	bl	__restore_interrupts
	.loc 1 608 0
	movs	r3, #1
	b	.L228
.L227:
.LBE14:
	.loc 1 610 0
	movs	r3, #0
.L228:
	.loc 1 611 0
	movs	r0, r3
	mov	sp, r7
	add	sp, sp, #16
	@ sp needed
	pop	{r7, pc}
.L230:
	.align	2
.L229:
	.word	EPState
	.cfi_endproc
.LFE28:
	.size	USB_SetEPStage, .-USB_SetEPStage
	.text
.Letext0:
	.file 2 "d:\\1.11\\share\\em_armgcc\\arm-none-eabi\\include\\machine\\_default_types.h"
	.file 3 "d:\\1.11\\share\\em_armgcc\\arm-none-eabi\\include\\sys\\_stdint.h"
	.file 4 "d:\\1.11\\share\\em_armgcc\\arm-none-eabi\\include\\sys\\lock.h"
	.file 5 "d:\\1.11\\share\\em_armgcc\\arm-none-eabi\\include\\sys\\_types.h"
	.file 6 "d:\\1.11\\share\\em_armgcc\\lib\\gcc\\arm-none-eabi\\5.4.1\\include\\stddef.h"
	.file 7 "d:\\1.11\\share\\em_armgcc\\arm-none-eabi\\include\\sys\\reent.h"
	.file 8 ".\\Source/systypes.h"
	.file 9 ".\\Source\\Lib\\MT6261/drivers\\lcdif.h"
	.file 10 ".\\Source\\Lib\\MT6261/drivers\\usb.h"
	.file 11 ".\\Source\\Lib\\USB/usb9.h"