	.syntax unified
	.cpu arm9e
	.fpu softvfp
	.eabi_attribute 20, 1
	.eabi_attribute 21, 1
	.eabi_attribute 23, 3
	.eabi_attribute 24, 1
	.eabi_attribute 25, 1
	.eabi_attribute 26, 1
	.eabi_attribute 30, 4
	.eabi_attribute 34, 0
	.eabi_attribute 18, 4
	.thumb
	.syntax unified
	.file	"gpio.c"
	.text
.Ltext0:
	.cfi_sections	.debug_frame
	.section	.text.GPIO_Setup.part.0,"ax",%progbits
	.align	1
	.code	16
	.thumb_func
	.type	GPIO_Setup.part.0, %function
GPIO_Setup.part.0:
.LFB3:
	.file 1 "Source\\Lib\\MT6261\\Drivers\\gpio.c"
	.loc 1 51 0
	.cfi_startproc
	@ args = 0, pretend = 0, frame = 0
	@ frame_needed = 0, uses_anonymous_args = 0
.LVL0:
	.loc 1 55 0
	movs	r3, #1
	.loc 1 51 0
	push	{r4, r5, lr}
	.cfi_def_cfa_offset 12
	.cfi_offset 4, -12
	.cfi_offset 5, -8
	.cfi_offset 14, -4
	.loc 1 55 0
	tst	r1, r3
	beq	.L2
.LVL1:
.LBB23:
	cmp	r0, #31
	bhi	.L3
	lsls	r3, r3, r0
	ldr	r2, .L88
	b	.L81
.L3:
	cmp	r0, #63
	bhi	.L4
	movs	r2, r0
	subs	r2, r2, #32
	lsls	r3, r3, r2
	ldr	r2, .L88+4
	b	.L81
.LVL2:
.L2:
.LBE23:
.LBB24:
	.loc 1 56 0
	cmp	r0, #31
	bhi	.L5
	lsls	r3, r3, r0
	ldr	r2, .L88+8
	b	.L81
.L5:
	cmp	r0, #63
	bhi	.L4
	movs	r2, r0
	subs	r2, r2, #32
	lsls	r3, r3, r2
	ldr	r2, .L88+12
.LVL3:
.L81:
	str	r3, [r2]
.L4:
.LBE24:
	.loc 1 58 0
	lsls	r3, r1, #30
	bpl	.L6
.LVL4:
.LBB25:
	cmp	r0, #31
	bhi	.L7
	movs	r3, #1
	lsls	r3, r3, r0
.LVL5:
	ldr	r2, .L88+16
	tst	r3, r2
	beq	.L8
	ldr	r2, .L88+20
	b	.L82
.LVL6:
.L7:
	cmp	r0, #63
	bhi	.L8
	movs	r2, r0
	movs	r3, #1
	subs	r2, r2, #32
	lsls	r3, r3, r2
.LVL7:
	movs	r2, #255
	lsls	r2, r2, #5
	tst	r3, r2
	beq	.L8
	ldr	r2, .L88+24
	b	.L82
.LVL8:
.L6:
.LBE25:
.LBB26:
	.loc 1 59 0
	cmp	r0, #31
	bhi	.L9
	movs	r3, #1
	lsls	r3, r3, r0
.LVL9:
	ldr	r2, .L88+16
	tst	r3, r2
	beq	.L8
	ldr	r2, .L88+28
	b	.L82
.LVL10:
.L9:
	cmp	r0, #63
	bhi	.L8
	movs	r2, r0
	movs	r3, #1
	subs	r2, r2, #32
	lsls	r3, r3, r2
.LVL11:
	movs	r2, #255
	lsls	r2, r2, #5
	tst	r3, r2
	beq	.L8
	ldr	r2, .L88+32
.LVL12:
.L82:
	str	r3, [r2]
.L8:
.LBE26:
	.loc 1 61 0
	lsls	r3, r1, #28
	bpl	.L10
.LVL13:
.LBB27:
	cmp	r0, #31
	bhi	.L11
	movs	r3, #1
	lsls	r3, r3, r0
.LVL14:
	ldr	r2, .L88+16
	tst	r3, r2
	beq	.L12
	ldr	r2, .L88+36
	b	.L83
.L12:
	ldr	r2, .L88+40
	tst	r3, r2
	beq	.L13
	ldr	r2, .L88+44
	b	.L83
.LVL15:
.L11:
	cmp	r0, #63
	bhi	.L13
	movs	r2, r0
	movs	r3, #1
	subs	r2, r2, #32
	lsls	r3, r3, r2
.LVL16:
	ldr	r2, .L88+48
	tst	r3, r2
	beq	.L14
	ldr	r2, .L88+52
	b	.L83
.L14:
	ldr	r2, .L88+56
	tst	r3, r2
	beq	.L13
	ldr	r2, .L88+60
	b	.L83
.LVL17:
.L10:
.LBE27:
.LBB28:
	.loc 1 62 0
	cmp	r0, #31
	bhi	.L15
	movs	r3, #1
	lsls	r3, r3, r0
.LVL18:
	ldr	r2, .L88+16
	tst	r3, r2
	beq	.L16
	ldr	r2, .L88+64
	b	.L83
.L16:
	ldr	r2, .L88+40
	tst	r3, r2
	beq	.L13
	ldr	r2, .L88+68
	b	.L83
.LVL19:
.L15:
	cmp	r0, #63
	bhi	.L13
	movs	r2, r0
	movs	r3, #1
	subs	r2, r2, #32
	lsls	r3, r3, r2
.LVL20:
	ldr	r2, .L88+48
	tst	r3, r2
	beq	.L17
	ldr	r2, .L88+72
	b	.L83
.L17:
	ldr	r2, .L88+56
	tst	r3, r2
	beq	.L13
	ldr	r2, .L88+76
.LVL21:
.L83:
	str	r3, [r2]
.L13:
.LBE28:
	.loc 1 64 0
	lsls	r3, r1, #29
	bpl	.L18
.LVL22:
.LBB29:
	cmp	r0, #31
	bhi	.L19
	movs	r3, #1
	lsls	r3, r3, r0
.LVL23:
	ldr	r2, .L88+16
	tst	r3, r2
	beq	.L20
	ldr	r2, .L88+80
	b	.L84
.L20:
	ldr	r2, .L88+40
	tst	r3, r2
	beq	.L21
	ldr	r2, .L88+84
	b	.L84
.LVL24:
.L19:
	cmp	r0, #63
	bhi	.L21
	movs	r2, r0
	movs	r3, #1
	subs	r2, r2, #32
	lsls	r3, r3, r2
.LVL25:
	ldr	r2, .L88+48
	tst	r3, r2
	beq	.L22
	ldr	r2, .L88+88
	b	.L84
.L22:
	ldr	r2, .L88+56
	tst	r3, r2
	beq	.L21
	ldr	r2, .L88+92
	b	.L84
.LVL26:
.L18:
.LBE29:
.LBB30:
	.loc 1 65 0
	cmp	r0, #31
	bhi	.L23
	movs	r3, #1
	lsls	r3, r3, r0
.LVL27:
	ldr	r2, .L88+16
	tst	r3, r2
	beq	.L24
	ldr	r2, .L88+96
	b	.L84
.L24:
	ldr	r2, .L88+40
	tst	r3, r2
	beq	.L21
	ldr	r2, .L88+100
	b	.L84
.LVL28:
.L23:
	cmp	r0, #63
	bhi	.L21
	movs	r2, r0
	movs	r3, #1
	subs	r2, r2, #32
	lsls	r3, r3, r2
.LVL29:
	ldr	r2, .L88+48
	tst	r3, r2
	beq	.L25
	ldr	r2, .L88+104
	b	.L84
.L25:
	ldr	r2, .L88+56
	tst	r3, r2
	beq	.L21
	ldr	r2, .L88+108
.LVL30:
.L84:
	str	r3, [r2]
.L21:
.LBE30:
	.loc 1 67 0
	lsls	r3, r1, #27
	bpl	.L26
.LVL31:
.LBB31:
	cmp	r0, #31
	bhi	.L27
	movs	r3, #1
	ldr	r2, .L88+112
	lsls	r3, r3, r0
.LVL32:
	b	.L86
.LVL33:
.L27:
	cmp	r0, #63
	bhi	.L29
	movs	r2, r0
	movs	r3, #1
	subs	r2, r2, #32
	lsls	r3, r3, r2
.LVL34:
	movs	r2, #255
	lsls	r2, r2, #5
	tst	r3, r2
	beq	.L29
	ldr	r2, .L88+116
	b	.L85
.LVL35:
.L26:
.LBE31:
.LBB32:
	.loc 1 68 0
	cmp	r0, #31
	bhi	.L30
	movs	r3, #1
	lsls	r3, r3, r0
.LVL36:
	ldr	r2, .L88+120
.LVL37:
.L86:
	str	r3, [r2]
	b	.L28
.LVL38:
.L30:
	cmp	r0, #63
	bhi	.L29
	movs	r2, r0
	movs	r3, #1
	subs	r2, r2, #32
	lsls	r3, r3, r2
.LVL39:
	movs	r2, #255
	lsls	r2, r2, #5
	tst	r3, r2
	beq	.L29
	ldr	r2, .L88+124
.LVL40:
.L85:
	str	r3, [r2]
.L29:
.LVL41:
.LBE32:
.LBB33:
	.loc 1 70 0
	cmp	r0, #55
	bhi	.L1
.LVL42:
.L28:
.LBB34:
	movs	r4, #28
	lsls	r2, r0, #2
	lsrs	r3, r0, #3
.LVL43:
	ands	r4, r2
.LVL44:
	cmp	r0, #7
	bls	.L37
	cmp	r0, #23
	bls	.L36
	cmp	r0, #31
	bls	.L35
	cmp	r0, #47
	bls	.L36
	ldr	r2, .L88+128
	b	.L32
.L35:
	ldr	r2, .L88+132
	b	.L32
.L36:
	ldr	r2, .L88+136
	b	.L32
.L37:
	ldr	r2, .L88+140
.L32:
.LVL45:
	movs	r5, #15
	lsrs	r1, r1, #8
.LVL46:
	lsls	r5, r5, r4
	ands	r1, r2
	lsls	r1, r1, r4
	ldr	r0, .L88+144
.LVL47:
	lsls	r3, r3, #4
.LVL48:
	adds	r3, r3, r0
	ldr	r0, [r3]
	bics	r0, r5
	orrs	r1, r0
	str	r1, [r3]
.LVL49:
.L1:
.LBE34:
.LBE33:
	.loc 1 72 0
	@ sp needed
	pop	{r4, r5, pc}
.L89:
	.align	2
.L88:
	.word	-1610481660
	.word	-1610481644
	.word	-1610481656
	.word	-1610481640
	.word	1136659455
	.word	-1610479356
	.word	-1610479340
	.word	-1610479352
	.word	-1610479336
	.word	-1610480376
	.word	-1136659456
	.word	-1610479100
	.word	15734784
	.word	-1610480360
	.word	1042431
	.word	-1610479084
	.word	-1610480380
	.word	-1610479096
	.word	-1610480364
	.word	-1610479080
	.word	-1610481404
	.word	-1610478844
	.word	-1610481388
	.word	-1610478828
	.word	-1610481400
	.word	-1610478840
	.word	-1610481384
	.word	-1610478824
	.word	-1610480124
	.word	-1610480108
	.word	-1610480120
	.word	-1610480104
	.word	2004320119
	.word	2013263735
	.word	2004318071
	.word	2004353023
	.word	-1610478592
	.cfi_endproc
.LFE3:
	.size	GPIO_Setup.part.0, .-GPIO_Setup.part.0
	.section	.text.GPIO_Initialize,"ax",%progbits
	.align	1
	.global	GPIO_Initialize
	.code	16
	.thumb_func
	.type	GPIO_Initialize, %function
GPIO_Initialize:
.LFB1:
	.loc 1 25 0
	.cfi_startproc
	@ args = 0, pretend = 0, frame = 0
	@ frame_needed = 0, uses_anonymous_args = 0
	.loc 1 26 0
	movs	r2, #1
	.loc 1 25 0
	push	{r4, lr}
	.cfi_def_cfa_offset 8
	.cfi_offset 4, -8
	.cfi_offset 14, -4
.LBB35:
.LBB36:
	movs	r4, #128
.LBE36:
.LBE35:
	.loc 1 26 0
	ldr	r3, .L91
	rsbs	r2, r2, #0
	str	r2, [r3]
	.loc 1 27 0
	ldr	r2, .L91+4
	ldr	r3, .L91+8
	.loc 1 32 0
	ldr	r1, .L91+12
	.loc 1 27 0
	str	r2, [r3]
	.loc 1 29 0
	ldr	r2, .L91+16
	ldr	r3, .L91+20
.LBB41:
.LBB37:
	lsls	r4, r4, #1
.LBE37:
.LBE41:
	str	r2, [r3]
	.loc 1 30 0
	ldr	r2, .L91+24
	ldr	r3, .L91+28
.LBB42:
.LBB38:
	movs	r0, #51
.LBE38:
.LBE42:
	str	r2, [r3]
	.loc 1 31 0
	ldr	r2, .L91+32
	ldr	r3, .L91+36
	.loc 1 49 0
	@ sp needed
	.loc 1 31 0
	str	r2, [r3]
	.loc 1 32 0
	ldr	r3, .L91+40
	str	r3, [r1]
	.loc 1 33 0
	ldr	r1, .L91+44
	str	r2, [r1]
	.loc 1 34 0
	ldr	r2, .L91+48
	.loc 1 39 0
	ldr	r1, .L91+52
	.loc 1 34 0
	str	r3, [r2]
	.loc 1 36 0
	ldr	r2, .L91+56
	ldr	r3, .L91+60
	str	r2, [r3]
	.loc 1 37 0
	ldr	r3, .L91+64
	ldr	r2, .L91+68
	str	r3, [r2]
	.loc 1 38 0
	ldr	r2, .L91+72
	str	r3, [r2]
	.loc 1 39 0
	ldr	r2, .L91+76
	str	r1, [r2]
	.loc 1 40 0
	ldr	r2, .L91+80
.LBB43:
.LBB39:
	movs	r1, r4
.LBE39:
.LBE43:
	str	r3, [r2]
	.loc 1 41 0
	ldr	r2, .L91+84
	str	r3, [r2]
	.loc 1 42 0
	ldr	r2, .L91+88
	ldr	r3, .L91+92
	str	r2, [r3]
.LVL50:
.LBB44:
.LBB40:
	bl	GPIO_Setup.part.0
.LVL51:
.LBE40:
.LBE44:
.LBB45:
.LBB46:
	movs	r1, r4
	movs	r0, #10
	bl	GPIO_Setup.part.0
.LVL52:
.LBE46:
.LBE45:
.LBB47:
.LBB48:
	movs	r1, r4
	movs	r0, #11
	bl	GPIO_Setup.part.0
.LVL53:
.LBE48:
.LBE47:
	.loc 1 49 0
	pop	{r4, pc}
.L92:
	.align	2
.L91:
	.word	-1610481656
	.word	218103807
	.word	-1610481640
	.word	-1610478824
	.word	1136659455
	.word	-1610481400
	.word	15734784
	.word	-1610481384
	.word	-1136659456
	.word	-1610478840
	.word	1042431
	.word	-1610478808
	.word	-1610478792
	.word	2013263735
	.word	2004353023
	.word	-1610478584
	.word	2004318071
	.word	-1610478568
	.word	-1610478552
	.word	-1610478536
	.word	-1610478520
	.word	-1610478504
	.word	2004320119
	.word	-1610478488
	.cfi_endproc
.LFE1:
	.size	GPIO_Initialize, .-GPIO_Initialize
	.section	.text.GPIO_Setup,"ax",%progbits
	.align	1
	.global	GPIO_Setup
	.code	16
	.thumb_func
	.type	GPIO_Setup, %function
GPIO_Setup:
.LFB2:
	.loc 1 52 0
	.cfi_startproc
	@ args = 0, pretend = 0, frame = 0
	@ frame_needed = 0, uses_anonymous_args = 0
.LVL54:
	push	{r4, lr}
	.cfi_def_cfa_offset 8
	.cfi_offset 4, -8
	.cfi_offset 14, -4
	.loc 1 53 0
	cmp	r0, #55
	bhi	.L93
	bl	GPIO_Setup.part.0
.LVL55:
.L93:
	.loc 1 72 0
	@ sp needed
	pop	{r4, pc}
	.cfi_endproc
.LFE2:
	.size	GPIO_Setup, .-GPIO_Setup
	.text
.Letext0:
	.file 2 "d:\\1.11\\share\\em_armgcc\\arm-none-eabi\\include\\machine\\_default_types.h"
	.file 3 "d:\\1.11\\share\\em_armgcc\\arm-none-eabi\\include\\sys\\_stdint.h"